---
triple:          'arm64-apple-darwin'
binary-path:     '/Users/cloudtest/vss/_work/1/b/onnxruntime-osx-arm64-1.26.0/lib/libonnxruntime.1.26.0.dylib'
relocations:
  - { offset: 0x5D, size: 0x8, addend: 0x0, symName: __ZN4onnx7checkerL16experimental_opsE, symObjAddr: 0x2FBE38, symBinAddr: 0x16A5B40, symSize: 0x0 }
  - { offset: 0x2BA, size: 0x8, addend: 0x0, symName: __ZN4onnx7checker16check_value_infoERKNS_14ValueInfoProtoERKNS0_14CheckerContextE, symObjAddr: 0x0, symBinAddr: 0xD0B810, symSize: 0x78C }
  - { offset: 0x17FA, size: 0x8, addend: 0x0, symName: __ZN4onnx7checker12check_tensorERKNS_11TensorProtoERKNS0_14CheckerContextE, symObjAddr: 0x172C, symBinAddr: 0xD0CF3C, symSize: 0xD78 }
  - { offset: 0x3B8E, size: 0x8, addend: 0x0, symName: __ZN4onnx7checker30resolve_external_data_locationERKNSt3__112basic_stringIcNS1_11char_traitsIcEENS1_9allocatorIcEEEES9_S9_, symObjAddr: 0x2B04, symBinAddr: 0xD0E314, symSize: 0xBC8 }
  - { offset: 0x71CB, size: 0x8, addend: 0x0, symName: __ZN4onnx7checker19check_sparse_tensorERKNS_17SparseTensorProtoERKNS0_14CheckerContextE, symObjAddr: 0x4AA0, symBinAddr: 0xD0FDD4, symSize: 0xB54 }
  - { offset: 0x93D0, size: 0x8, addend: 0x0, symName: __ZN4onnx7checker15check_attributeERKNS_14AttributeProtoERKNS0_14CheckerContextERKNS0_19LexicalScopeContextE, symObjAddr: 0x7A00, symBinAddr: 0xD11760, symSize: 0xF80 }
  - { offset: 0xCB7E, size: 0x8, addend: 0x0, symName: __ZN4onnx7checker11check_graphERKNS_10GraphProtoERKNS0_14CheckerContextERKNS0_19LexicalScopeContextE, symObjAddr: 0x93F0, symBinAddr: 0xD13150, symSize: 0x1040 }
  - { offset: 0x1150D, size: 0x8, addend: 0x0, symName: __ZN4onnx7checker10check_nodeERKNS_9NodeProtoERKNS0_14CheckerContextERKNS0_19LexicalScopeContextE, symObjAddr: 0xA4A8, symBinAddr: 0xD14190, symSize: 0x8F8 }
  - { offset: 0x13C3E, size: 0x8, addend: 0x0, symName: __ZN4onnx7checkerL33print_warning_if_has_experimentalERKNSt3__113unordered_setINS1_12basic_stringIcNS1_11char_traitsIcEENS1_9allocatorIcEEEENS1_4hashIS8_EENS1_8equal_toIS8_EENS6_IS8_EEEE, symObjAddr: 0xC654, symBinAddr: 0xD16048, symSize: 0x39C }
  - { offset: 0x23646, size: 0x8, addend: 0x0, symName: __ZN4onnx10MakeStringIJA8_cA11_cA7_cA5_cA27_cEEENSt3__112basic_stringIcNS6_11char_traitsIcEENS6_9allocatorIcEEEEDpRKT_, symObjAddr: 0x12DC, symBinAddr: 0xD0CAEC, symSize: 0x238 }
  - { offset: 0x23ED9, size: 0x8, addend: 0x0, symName: __ZN4onnx10MakeStringIJA8_cA10_cA7_cA5_cA27_cEEENSt3__112basic_stringIcNS6_11char_traitsIcEENS6_9allocatorIcEEEEDpRKT_, symObjAddr: 0xC34, symBinAddr: 0xD0C444, symSize: 0x238 }
  - { offset: 0x2476C, size: 0x8, addend: 0x0, symName: __ZN4onnx10MakeStringIJA8_cA6_cA7_cA5_cA27_cEEENSt3__112basic_stringIcNS6_11char_traitsIcEENS6_9allocatorIcEEEEDpRKT_, symObjAddr: 0xE6C, symBinAddr: 0xD0C67C, symSize: 0x238 }
  - { offset: 0x24FFF, size: 0x8, addend: 0x0, symName: __ZN4onnx10MakeStringIJA8_cA5_cA7_cA11_cA31_cEEENSt3__112basic_stringIcNS6_11char_traitsIcEENS6_9allocatorIcEEEEDpRKT_, symObjAddr: 0x78C, symBinAddr: 0xD0BF9C, symSize: 0x238 }
  - { offset: 0x25892, size: 0x8, addend: 0x0, symName: __ZN4onnx10MakeStringIJA8_cA5_cA7_cA11_cA27_cEEENSt3__112basic_stringIcNS6_11char_traitsIcEENS6_9allocatorIcEEEEDpRKT_, symObjAddr: 0x9FC, symBinAddr: 0xD0C20C, symSize: 0x238 }
  - { offset: 0x26125, size: 0x8, addend: 0x0, symName: __ZN4onnx10MakeStringIJA8_cA9_cA7_cA5_cA27_cEEENSt3__112basic_stringIcNS6_11char_traitsIcEENS6_9allocatorIcEEEEDpRKT_, symObjAddr: 0x10A4, symBinAddr: 0xD0C8B4, symSize: 0x238 }
  - { offset: 0x269B8, size: 0x8, addend: 0x0, symName: __ZN4onnx10MakeStringIJA48_cNSt3__112basic_stringIcNS2_11char_traitsIcEENS2_9allocatorIcEEEEA4_cNS_9TypeProto9ValueCaseEEEES8_DpRKT_, symObjAddr: 0x1514, symBinAddr: 0xD0CD24, symSize: 0x218 }
  - { offset: 0x27AD9, size: 0x8, addend: 0x0, symName: __ZN4onnx10MakeStringIJA28_cNSt3__112basic_stringIcNS2_11char_traitsIcEENS2_9allocatorIcEEEEA52_cEEES8_DpRKT_, symObjAddr: 0x36CC, symBinAddr: 0xD0EEDC, symSize: 0x200 }
  - { offset: 0x281B5, size: 0x8, addend: 0x0, symName: __ZN4onnx10MakeStringIJA22_ciA30_cA12_cA15_cPKcA2_cEEENSt3__112basic_stringIcNS8_11char_traitsIcEENS8_9allocatorIcEEEEDpRKT_, symObjAddr: 0x413C, symBinAddr: 0xD0F94C, symSize: 0x270 }
  - { offset: 0x28BB2, size: 0x8, addend: 0x0, symName: __ZN4onnx10MakeStringIJA22_ciA30_cA11_cA15_cPKcA2_cEEENSt3__112basic_stringIcNS8_11char_traitsIcEENS8_9allocatorIcEEEEDpRKT_, symObjAddr: 0x3ECC, symBinAddr: 0xD0F6DC, symSize: 0x270 }
  - { offset: 0x295AF, size: 0x8, addend: 0x0, symName: __ZN4onnx10MakeStringIJA8_cA10_cA7_cS3_A27_cEEENSt3__112basic_stringIcNS5_11char_traitsIcEENS5_9allocatorIcEEEEDpRKT_, symObjAddr: 0x24A4, symBinAddr: 0xD0DCB4, symSize: 0x238 }
  - { offset: 0x29E42, size: 0x8, addend: 0x0, symName: __ZN4onnx10MakeStringIJA39_cNSt3__112basic_stringIcNS2_11char_traitsIcEENS2_9allocatorIcEEEEA30_cEEES8_DpRKT_, symObjAddr: 0x26DC, symBinAddr: 0xD0DEEC, symSize: 0x200 }
  - { offset: 0x2A51E, size: 0x8, addend: 0x0, symName: __ZN4onnx10MakeStringIJA36_cNSt3__112basic_stringIcNS2_11char_traitsIcEENS2_9allocatorIcEEEEA55_cPKcEEES8_DpRKT_, symObjAddr: 0x28DC, symBinAddr: 0xD0E0EC, symSize: 0x228 }
  - { offset: 0x2ACDC, size: 0x8, addend: 0x0, symName: __ZN4onnx10MakeStringIJA27_cNSt3__112basic_stringIcNS2_11char_traitsIcEENS2_9allocatorIcEEEEA47_cEEES8_DpRKT_, symObjAddr: 0x3ACC, symBinAddr: 0xD0F2DC, symSize: 0x200 }
  - { offset: 0x2B3B8, size: 0x8, addend: 0x0, symName: __ZN4onnx10MakeStringIJA27_cNSt3__112basic_stringIcNS2_11char_traitsIcEENS2_9allocatorIcEEEEA34_cEEES8_DpRKT_, symObjAddr: 0x38CC, symBinAddr: 0xD0F0DC, symSize: 0x200 }
  - { offset: 0x2BA94, size: 0x8, addend: 0x0, symName: __ZN4onnx10MakeStringIJA27_cNSt3__112basic_stringIcNS2_11char_traitsIcEENS2_9allocatorIcEEEEA41_cEEES8_DpRKT_, symObjAddr: 0x3CCC, symBinAddr: 0xD0F4DC, symSize: 0x200 }
  - { offset: 0x2C170, size: 0x8, addend: 0x0, symName: __ZN4onnx10MakeStringIJA38_cNSt3__112basic_stringIcNS2_11char_traitsIcEENS2_9allocatorIcEEEEA4_ciEEES8_DpRKT_, symObjAddr: 0x43AC, symBinAddr: 0xD0FBBC, symSize: 0x218 }
  - { offset: 0x2CC79, size: 0x8, addend: 0x0, symName: __ZN4onnx10MakeStringIJA36_cNSt3__112basic_stringIcNS2_11char_traitsIcEENS2_9allocatorIcEEEEA6_cS8_A142_cEEES8_DpRKT_, symObjAddr: 0x10F6C, symBinAddr: 0xD174F4, symSize: 0x248 }
  - { offset: 0x2D514, size: 0x8, addend: 0x0, symName: __ZN4onnx10MakeStringIJA36_cNSt3__112basic_stringIcNS2_11char_traitsIcEENS2_9allocatorIcEEEEA23_cS8_A29_cEEES8_DpRKT_, symObjAddr: 0x10894, symBinAddr: 0xD16E1C, symSize: 0x248 }
  - { offset: 0x2DDAF, size: 0x8, addend: 0x0, symName: __ZN4onnx10MakeStringIJA49_cNSt3__112basic_stringIcNS2_11char_traitsIcEENS2_9allocatorIcEEEEA23_cEEES8_DpRKT_, symObjAddr: 0x101D8, symBinAddr: 0xD16760, symSize: 0x200 }
  - { offset: 0x2E48B, size: 0x8, addend: 0x0, symName: __ZN4onnx10MakeStringIJA49_cNSt3__112basic_stringIcNS2_11char_traitsIcEENS2_9allocatorIcEEEEA58_cS8_EEES8_DpRKT_, symObjAddr: 0x103D8, symBinAddr: 0xD16960, symSize: 0x22C }
  - { offset: 0x2EC45, size: 0x8, addend: 0x0, symName: __ZN4onnx10MakeStringIJA36_cNSt3__112basic_stringIcNS2_11char_traitsIcEENS2_9allocatorIcEEEEA31_cS8_A54_cEEES8_DpRKT_, symObjAddr: 0x10ADC, symBinAddr: 0xD17064, symSize: 0x248 }
  - { offset: 0x2F4E0, size: 0x8, addend: 0x0, symName: __ZN4onnx10MakeStringIJA36_cNSt3__112basic_stringIcNS2_11char_traitsIcEENS2_9allocatorIcEEEEA31_cS8_A43_cEEES8_DpRKT_, symObjAddr: 0x10D24, symBinAddr: 0xD172AC, symSize: 0x248 }
  - { offset: 0x2FD7B, size: 0x8, addend: 0x0, symName: __ZN4onnx10MakeStringIJA36_cNSt3__112basic_stringIcNS2_11char_traitsIcEENS2_9allocatorIcEEEEA23_cS8_A30_cEEES8_DpRKT_, symObjAddr: 0x111B4, symBinAddr: 0xD1773C, symSize: 0x248 }
  - { offset: 0x30616, size: 0x8, addend: 0x0, symName: __ZN4onnx10MakeStringIJA36_cNSt3__112basic_stringIcNS2_11char_traitsIcEENS2_9allocatorIcEEEEA23_cS8_A74_cEEES8_DpRKT_, symObjAddr: 0x113FC, symBinAddr: 0xD17984, symSize: 0x248 }
  - { offset: 0x30EB1, size: 0x8, addend: 0x0, symName: __ZN4onnx10MakeStringIJA36_cNSt3__112basic_stringIcNS2_11char_traitsIcEENS2_9allocatorIcEEEEA26_cS8_A9_cS8_A32_cEEES8_DpRKT_, symObjAddr: 0x10604, symBinAddr: 0xD16B8C, symSize: 0x290 }
  - { offset: 0x322B5, size: 0x8, addend: 0x0, symName: __ZN4onnx10MakeStringIJA16_cNSt3__112basic_stringIcNS2_11char_traitsIcEENS2_9allocatorIcEEEEA23_cEEES8_DpRKT_, symObjAddr: 0x7800, symBinAddr: 0xD11560, symSize: 0x200 }
  - { offset: 0x329AF, size: 0x8, addend: 0x0, symName: __ZN4onnx10MakeStringIJA16_cNSt3__112basic_stringIcNS2_11char_traitsIcEENS2_9allocatorIcEEEEA28_cmA2_ciS1_EEES8_DpRKT_, symObjAddr: 0x127D0, symBinAddr: 0xD1872C, symSize: 0x268 }
  - { offset: 0x33327, size: 0x8, addend: 0x0, symName: __ZN4onnx10MakeStringIJA16_cNSt3__112basic_stringIcNS2_11char_traitsIcEENS2_9allocatorIcEEEEA31_cEEES8_DpRKT_, symObjAddr: 0x7200, symBinAddr: 0xD10F60, symSize: 0x200 }
  - { offset: 0x33A03, size: 0x8, addend: 0x0, symName: __ZN4onnx10MakeStringIJA16_cNSt3__112basic_stringIcNS2_11char_traitsIcEENS2_9allocatorIcEEEEA28_cmA23_cEEES8_DpRKT_, symObjAddr: 0x11B70, symBinAddr: 0xD180F8, symSize: 0x234 }
  - { offset: 0x3421F, size: 0x8, addend: 0x0, symName: __ZN4onnx10MakeStringIJA16_cNSt3__112basic_stringIcNS2_11char_traitsIcEENS2_9allocatorIcEEEEA28_cmA20_cxA2_cEEES8_DpRKT_, symObjAddr: 0x11908, symBinAddr: 0xD17E90, symSize: 0x268 }
  - { offset: 0x34B97, size: 0x8, addend: 0x0, symName: __ZN4onnx10MakeStringIJA8_cA7_cS2_A20_cA27_cEEENSt3__112basic_stringIcNS5_11char_traitsIcEENS5_9allocatorIcEEEEDpRKT_, symObjAddr: 0x6BC8, symBinAddr: 0xD10928, symSize: 0x238 }
  - { offset: 0x3542A, size: 0x8, addend: 0x0, symName: __ZN4onnx10MakeStringIJA23_cNSt3__112basic_stringIcNS2_11char_traitsIcEENS2_9allocatorIcEEEEA20_cEEES8_DpRKT_, symObjAddr: 0x6E00, symBinAddr: 0xD10B60, symSize: 0x200 }
  - { offset: 0x35B06, size: 0x8, addend: 0x0, symName: __ZN4onnx10MakeStringIJA16_cNSt3__112basic_stringIcNS2_11char_traitsIcEENS2_9allocatorIcEEEEA29_cEEES8_DpRKT_, symObjAddr: 0x7000, symBinAddr: 0xD10D60, symSize: 0x200 }
  - { offset: 0x361E2, size: 0x8, addend: 0x0, symName: __ZN4onnx10MakeStringIJA24_cNSt3__112basic_stringIcNS2_11char_traitsIcEENS2_9allocatorIcEEEES1_EEES8_DpRKT_, symObjAddr: 0x7400, symBinAddr: 0xD11160, symSize: 0x200 }
  - { offset: 0x368BE, size: 0x8, addend: 0x0, symName: __ZN4onnx10MakeStringIJA24_cNSt3__112basic_stringIcNS2_11char_traitsIcEENS2_9allocatorIcEEEEA25_cEEES8_DpRKT_, symObjAddr: 0x7600, symBinAddr: 0xD11360, symSize: 0x200 }
  - { offset: 0x36F9A, size: 0x8, addend: 0x0, symName: __ZN4onnx10MakeStringIJA24_cNSt3__112basic_stringIcNS2_11char_traitsIcEENS2_9allocatorIcEEEEA43_cEEES8_DpRKT_, symObjAddr: 0x123D0, symBinAddr: 0xD1832C, symSize: 0x200 }
  - { offset: 0x37676, size: 0x8, addend: 0x0, symName: __ZN4onnx10MakeStringIJA24_cNSt3__112basic_stringIcNS2_11char_traitsIcEENS2_9allocatorIcEEEEA7_cxA21_cmEEES8_DpRKT_, symObjAddr: 0x116BC, symBinAddr: 0xD17C44, symSize: 0x24C }
  - { offset: 0x37EFF, size: 0x8, addend: 0x0, symName: __ZN4onnx10MakeStringIJA24_cNSt3__112basic_stringIcNS2_11char_traitsIcEENS2_9allocatorIcEEEEA55_cEEES8_DpRKT_, symObjAddr: 0x125D0, symBinAddr: 0xD1852C, symSize: 0x200 }
  - { offset: 0x385DB, size: 0x8, addend: 0x0, symName: __ZN4onnx10MakeStringIJA16_cNSt3__112basic_stringIcNS2_11char_traitsIcEENS2_9allocatorIcEEEEA28_cmA37_cEEES8_DpRKT_, symObjAddr: 0x12A38, symBinAddr: 0xD18994, symSize: 0x234 }
  - { offset: 0x3948F, size: 0x8, addend: 0x0, symName: __ZN4onnx10MakeStringIJA8_cA5_cA7_cS2_A31_cEEENSt3__112basic_stringIcNS5_11char_traitsIcEENS5_9allocatorIcEEEEDpRKT_, symObjAddr: 0x8980, symBinAddr: 0xD126E0, symSize: 0x238 }
  - { offset: 0x39D22, size: 0x8, addend: 0x0, symName: __ZN4onnx10MakeStringIJA8_cA5_cA7_cS2_A27_cEEENSt3__112basic_stringIcNS5_11char_traitsIcEENS5_9allocatorIcEEEEDpRKT_, symObjAddr: 0x8BB8, symBinAddr: 0xD12918, symSize: 0x238 }
  - { offset: 0x3A5B5, size: 0x8, addend: 0x0, symName: __ZN4onnx10MakeStringIJA18_cNSt3__112basic_stringIcNS2_11char_traitsIcEENS2_9allocatorIcEEEEA48_cEEES8_DpRKT_, symObjAddr: 0x8FF0, symBinAddr: 0xD12D50, symSize: 0x200 }
  - { offset: 0x3AC91, size: 0x8, addend: 0x0, symName: __ZN4onnx10MakeStringIJA49_cNSt3__112basic_stringIcNS2_11char_traitsIcEENS2_9allocatorIcEEEEA2_cEEES8_DpRKT_, symObjAddr: 0x8DF0, symBinAddr: 0xD12B50, symSize: 0x200 }
  - { offset: 0x3B36D, size: 0x8, addend: 0x0, symName: __ZN4onnx10MakeStringIJA18_cNSt3__112basic_stringIcNS2_11char_traitsIcEENS2_9allocatorIcEEEEA44_cEEES8_DpRKT_, symObjAddr: 0x91F0, symBinAddr: 0xD12F50, symSize: 0x200 }
  - { offset: 0x3BEAA, size: 0x8, addend: 0x0, symName: __ZN4onnx10MakeStringIJA64_cNSt3__112basic_stringIcNS2_11char_traitsIcEENS2_9allocatorIcEEEEA48_cEEES8_DpRKT_, symObjAddr: 0xC254, symBinAddr: 0xD15C48, symSize: 0x200 }
  - { offset: 0x3C586, size: 0x8, addend: 0x0, symName: __ZN4onnx10MakeStringIJA63_cNSt3__112basic_stringIcNS2_11char_traitsIcEENS2_9allocatorIcEEEEA13_cA7_cS8_A10_cS8_A39_cEEES8_DpRKT_, symObjAddr: 0xBD74, symBinAddr: 0xD15778, symSize: 0x1F8 }
  - { offset: 0x3CAF5, size: 0x8, addend: 0x0, symName: __ZN4onnx10MakeStringIJA64_cNSt3__112basic_stringIcNS2_11char_traitsIcEENS2_9allocatorIcEEEEA53_cEEES8_DpRKT_, symObjAddr: 0xB7A8, symBinAddr: 0xD15340, symSize: 0x200 }
  - { offset: 0x3D34A, size: 0x8, addend: 0x0, symName: __ZN4onnx10MakeStringIJA8_cA5_cA7_cS3_A27_cEEENSt3__112basic_stringIcNS5_11char_traitsIcEENS5_9allocatorIcEEEEDpRKT_, symObjAddr: 0xBB3C, symBinAddr: 0xD15540, symSize: 0x238 }
  - { offset: 0x3DBDD, size: 0x8, addend: 0x0, symName: __ZN4onnx10MakeStringIJA15_cNSt3__112basic_stringIcNS2_11char_traitsIcEENS2_9allocatorIcEEEEA41_cEEES8_DpRKT_, symObjAddr: 0xC454, symBinAddr: 0xD15E48, symSize: 0x200 }
  - { offset: 0x3E2B9, size: 0x8, addend: 0x0, symName: __ZN4onnx10MakeStringIJA8_cA5_cA7_cA6_cA31_cEEENSt3__112basic_stringIcNS6_11char_traitsIcEENS6_9allocatorIcEEEEDpRKT_, symObjAddr: 0xB570, symBinAddr: 0xD15108, symSize: 0x238 }
  - { offset: 0x3EB4C, size: 0x8, addend: 0x0, symName: __ZN4onnx10MakeStringIJA12_cNSt3__112basic_stringIcNS2_11char_traitsIcEENS2_9allocatorIcEEEEA27_cEEES8_DpRKT_, symObjAddr: 0xB27C, symBinAddr: 0xD14F08, symSize: 0x200 }
  - { offset: 0x3F228, size: 0x8, addend: 0x0, symName: __ZN4onnx10MakeStringIJA8_cS1_A7_cA5_cA31_cEEENSt3__112basic_stringIcNS5_11char_traitsIcEENS5_9allocatorIcEEEEDpRKT_, symObjAddr: 0xADA0, symBinAddr: 0xD14A88, symSize: 0x238 }
  - { offset: 0x3FABB, size: 0x8, addend: 0x0, symName: __ZN4onnx10MakeStringIJA18_cNSt3__112basic_stringIcNS2_11char_traitsIcEENS2_9allocatorIcEEEEA9_cS8_A34_cEEES8_DpRKT_, symObjAddr: 0xAFD8, symBinAddr: 0xD14CC0, symSize: 0x248 }
  - { offset: 0x4090C, size: 0x8, addend: 0x0, symName: __ZN4onnx18MakeStringInternalIA63_cJNSt3__112basic_stringIcNS2_11char_traitsIcEENS2_9allocatorIcEEEEA13_cA7_cS8_A10_cS8_A39_cEEEvRNS2_18basic_stringstreamIcS5_S7_EERKT_DpRKT0_, symObjAddr: 0x15560, symBinAddr: 0xD18E44, symSize: 0x130 }
  - { offset: 0x4100B, size: 0x8, addend: 0x0, symName: __ZN4onnx10MakeStringIJPKcA16_cNSt3__112basic_stringIcNS4_11char_traitsIcEENS4_9allocatorIcEEEEEEESA_DpRKT_, symObjAddr: 0x12CE4, symBinAddr: 0xD18C40, symSize: 0x204 }
  - { offset: 0x43484, size: 0x8, addend: 0x0, symName: __ZN4onnx17LoadProtoFromPathINS_10ModelProtoEEEvRKNSt3__112basic_stringIcNS2_11char_traitsIcEENS2_9allocatorIcEEEERT_, symObjAddr: 0xF668, symBinAddr: 0xD163E4, symSize: 0x37C }
  - { offset: 0x44377, size: 0x8, addend: 0x0, symName: __ZN4onnx19ParseProtoFromBytesINS_10ModelProtoEEEbPT_PKcm, symObjAddr: 0x159C0, symBinAddr: 0xD19174, symSize: 0xDC }
  - { offset: 0x44445, size: 0x8, addend: 0x0, symName: __ZN4onnx10MakeStringIJA28_cNSt3__112basic_stringIcNS2_11char_traitsIcEENS2_9allocatorIcEEEEA40_cEEES8_DpRKT_, symObjAddr: 0x157C0, symBinAddr: 0xD18F74, symSize: 0x200 }
  - { offset: 0x44B21, size: 0x8, addend: 0x0, symName: __ZN4onnx10MakeStringIJA34_cNSt3__112basic_stringIcNS2_11char_traitsIcEENS2_9allocatorIcEEEEA57_cEEES8_DpRKT_, symObjAddr: 0x15A9C, symBinAddr: 0xD19250, symSize: 0x200 }
  - { offset: 0x7963E, size: 0x8, addend: 0x0, symName: __ZN4onnx10MakeStringIJA8_cA5_cA7_cS3_A27_cEEENSt3__112basic_stringIcNS5_11char_traitsIcEENS5_9allocatorIcEEEEDpRKT_, symObjAddr: 0xBB3C, symBinAddr: 0xD15540, symSize: 0x238 }
  - { offset: 0x9369A, size: 0x8, addend: 0x0, symName: __ZN4onnx7checker15ValidationErrorD1Ev, symObjAddr: 0x9C4, symBinAddr: 0xD0C1D4, symSize: 0x38 }
  - { offset: 0x936BE, size: 0x8, addend: 0x0, symName: __ZN4onnx7checker15ValidationErrorD1Ev, symObjAddr: 0x9C4, symBinAddr: 0xD0C1D4, symSize: 0x38 }
  - { offset: 0x93706, size: 0x8, addend: 0x0, symName: __ZN4onnx7checker15ValidationErrorD1Ev, symObjAddr: 0x9C4, symBinAddr: 0xD0C1D4, symSize: 0x38 }
  - { offset: 0x973F4, size: 0x8, addend: 0x0, symName: '__ZZN4onnx7checker11check_graphERKNS_10GraphProtoERKNS0_14CheckerContextERKNS0_19LexicalScopeContextEENK3$_0clEv', symObjAddr: 0xBF6C, symBinAddr: 0xD15970, symSize: 0x2D8 }
  - { offset: 0x98B67, size: 0x8, addend: 0x0, symName: __ZN4onnx7checker15ValidationErrorC1ERKS1_, symObjAddr: 0x12C6C, symBinAddr: 0xD18BC8, symSize: 0x78 }
  - { offset: 0x9991B, size: 0x8, addend: 0x0, symName: __ZNSt3__113basic_fstreamIcNS_11char_traitsIcEEEC1EPKcj, symObjAddr: 0x15D00, symBinAddr: 0xD19450, symSize: 0x110 }
  - { offset: 0x99A3A, size: 0x8, addend: 0x0, symName: __ZNSt3__112basic_stringIcNS_11char_traitsIcEENS_9allocatorIcEEE20__init_with_sentinelB8ne190102INS_19istreambuf_iteratorIcS2_EES8_EEvT_T0_, symObjAddr: 0x16004, symBinAddr: 0xD19560, symSize: 0x14C }
  - { offset: 0x99D6D, size: 0x8, addend: 0x0, symName: __ZN4onnx7checker15ValidationErrorD0Ev, symObjAddr: 0x11644, symBinAddr: 0xD17BCC, symSize: 0x48 }
  - { offset: 0x99ED9, size: 0x8, addend: 0x0, symName: __ZNK4onnx7checker15ValidationError4whatEv, symObjAddr: 0x1168C, symBinAddr: 0xD17C14, symSize: 0x30 }
  - { offset: 0x9CACE, size: 0x8, addend: 0x0, symName: __GLOBAL__sub_I_checker.cc, symObjAddr: 0x17B10, symBinAddr: 0xD196AC, symSize: 0x4EC }
  - { offset: 0x9FA38, size: 0x8, addend: 0x0, symName: __ZN4onnx4barfEPKcz, symObjAddr: 0x0, symBinAddr: 0xD19B98, symSize: 0x100 }
  - { offset: 0xA247B, size: 0x8, addend: 0x0, symName: __ZN4onnx4barfEPKcz, symObjAddr: 0x0, symBinAddr: 0xD19B98, symSize: 0x100 }
  - { offset: 0xA274B, size: 0x8, addend: 0x0, symName: __ZN4onnx18throw_assert_errorERNSt3__112basic_stringIcNS0_11char_traitsIcEENS0_9allocatorIcEEEE, symObjAddr: 0x100, symBinAddr: 0xD19C98, symSize: 0x50 }
  - { offset: 0xA29B5, size: 0x8, addend: 0x0, symName: __ZN4onnx12assert_errorC1ERKNSt3__112basic_stringIcNS1_11char_traitsIcEENS1_9allocatorIcEEEE, symObjAddr: 0x150, symBinAddr: 0xD19CE8, symSize: 0x20 }
  - { offset: 0xA2A58, size: 0x8, addend: 0x0, symName: __ZN4onnx12assert_errorD1Ev, symObjAddr: 0x170, symBinAddr: 0xD19D08, symSize: 0x4 }
  - { offset: 0xA2A7A, size: 0x8, addend: 0x0, symName: __ZN4onnx12assert_errorD1Ev, symObjAddr: 0x170, symBinAddr: 0xD19D08, symSize: 0x4 }
  - { offset: 0xA2B11, size: 0x8, addend: 0x0, symName: __ZN4onnx12assert_errorD0Ev, symObjAddr: 0x270, symBinAddr: 0xD19D0C, symSize: 0x14 }
  - { offset: 0xABCD4, size: 0x8, addend: 0x0, symName: __ZNSt3__110unique_ptrIN4onnx9TypeProtoENS_14default_deleteIS2_EEED1B8ne190102Ev, symObjAddr: 0x57F4, symBinAddr: 0xD19D20, symSize: 0x3C }
  - { offset: 0xADD04, size: 0x8, addend: 0x0, symName: __ZN4onnx6Common6StatusC2ENS0_14StatusCategoryENS0_10StatusCodeERKNSt3__112basic_stringIcNS4_11char_traitsIcEENS4_9allocatorIcEEEE, symObjAddr: 0x0, symBinAddr: 0xD19D5C, symSize: 0x120 }
  - { offset: 0xB29E5, size: 0x8, addend: 0x0, symName: __ZN4onnx6Common6Status2OKEv, symObjAddr: 0x5A0, symBinAddr: 0xD19F14, symSize: 0x38 }
  - { offset: 0xB2A07, size: 0x8, addend: 0x0, symName: __MergedGlobals, symObjAddr: 0x267F0, symBinAddr: 0x16A5B68, symSize: 0x0 }
  - { offset: 0xB31A4, size: 0x8, addend: 0x0, symName: __ZN4onnx6Common6StatusC2ENS0_14StatusCategoryENS0_10StatusCodeERKNSt3__112basic_stringIcNS4_11char_traitsIcEENS4_9allocatorIcEEEE, symObjAddr: 0x0, symBinAddr: 0xD19D5C, symSize: 0x120 }
  - { offset: 0xB37D6, size: 0x8, addend: 0x0, symName: __ZN4onnx6Common6StatusC1ENS0_14StatusCategoryENS0_10StatusCodeERKNSt3__112basic_stringIcNS4_11char_traitsIcEENS4_9allocatorIcEEEE, symObjAddr: 0x164, symBinAddr: 0xD19E7C, symSize: 0x4 }
  - { offset: 0xB380E, size: 0x8, addend: 0x0, symName: __ZN4onnx6Common6StatusC1ENS0_14StatusCategoryENS0_10StatusCodeERKNSt3__112basic_stringIcNS4_11char_traitsIcEENS4_9allocatorIcEEEE, symObjAddr: 0x164, symBinAddr: 0xD19E7C, symSize: 0x4 }
  - { offset: 0xB38A2, size: 0x8, addend: 0x0, symName: __ZNK4onnx6Common6Status4IsOKEv, symObjAddr: 0x250, symBinAddr: 0xD19E80, symSize: 0x10 }
  - { offset: 0xB38C6, size: 0x8, addend: 0x0, symName: __ZNK4onnx6Common6Status4IsOKEv, symObjAddr: 0x250, symBinAddr: 0xD19E80, symSize: 0x10 }
  - { offset: 0xB38E7, size: 0x8, addend: 0x0, symName: __ZNK4onnx6Common6Status4IsOKEv, symObjAddr: 0x250, symBinAddr: 0xD19E80, symSize: 0x10 }
  - { offset: 0xB3920, size: 0x8, addend: 0x0, symName: __ZNK4onnx6Common6Status12ErrorMessageEv, symObjAddr: 0x290, symBinAddr: 0xD19E90, symSize: 0x84 }
  - { offset: 0xB39C4, size: 0x8, addend: 0x0, symName: __ZNK4onnx6Common6Status12ErrorMessageEv.cold.1, symObjAddr: 0x7FC, symBinAddr: 0x1256A58, symSize: 0x58 }
  - { offset: 0xB3A41, size: 0x8, addend: 0x0, symName: __ZN4onnx6Common6Status2OKEv.cold.1, symObjAddr: 0x854, symBinAddr: 0x1256AB0, symSize: 0x50 }
  - { offset: 0xB3B87, size: 0x8, addend: 0x0, symName: _OUTLINED_FUNCTION_1, symObjAddr: 0x8AC, symBinAddr: 0xD19F4C, symSize: 0x8 }
  - { offset: 0xCD577, size: 0x8, addend: 0x0, symName: __ZN4onnx13MakeAttributeENSt3__112basic_stringIcNS0_11char_traitsIcEENS0_9allocatorIcEEEEf, symObjAddr: 0x0, symBinAddr: 0xD19F54, symSize: 0x94 }
  - { offset: 0xCD6EC, size: 0x8, addend: 0x0, symName: __ZN4onnx13MakeAttributeENSt3__112basic_stringIcNS0_11char_traitsIcEENS0_9allocatorIcEEEEx, symObjAddr: 0x94, symBinAddr: 0xD19FE8, symSize: 0x98 }
  - { offset: 0xCD85F, size: 0x8, addend: 0x0, symName: __ZN4onnx13MakeAttributeENSt3__112basic_stringIcNS0_11char_traitsIcEENS0_9allocatorIcEEEEi, symObjAddr: 0x12C, symBinAddr: 0xD1A080, symSize: 0x9C }
  - { offset: 0xCD9D2, size: 0x8, addend: 0x0, symName: __ZN4onnx13MakeAttributeENSt3__112basic_stringIcNS0_11char_traitsIcEENS0_9allocatorIcEEEENS_11TensorProtoE, symObjAddr: 0x27C, symBinAddr: 0xD1A11C, symSize: 0x124 }
  - { offset: 0xCDD19, size: 0x8, addend: 0x0, symName: __ZN4onnx13MakeAttributeENSt3__112basic_stringIcNS0_11char_traitsIcEENS0_9allocatorIcEEEENS_10GraphProtoE, symObjAddr: 0x3A0, symBinAddr: 0xD1A240, symSize: 0x124 }
  - { offset: 0xCE060, size: 0x8, addend: 0x0, symName: __ZN4onnx13MakeAttributeENSt3__112basic_stringIcNS0_11char_traitsIcEENS0_9allocatorIcEEEENS0_6vectorIxNS4_IxEEEE, symObjAddr: 0x6F4, symBinAddr: 0xD1A364, symSize: 0x10C }
  - { offset: 0xCE29C, size: 0x8, addend: 0x0, symName: __ZN4onnx16MakeRefAttributeERKNSt3__112basic_stringIcNS0_11char_traitsIcEENS0_9allocatorIcEEEENS_28AttributeProto_AttributeTypeE, symObjAddr: 0xD80, symBinAddr: 0xD1A470, symSize: 0xB8 }
  - { offset: 0xDC23A, size: 0x8, addend: 0x0, symName: __ZN4onnx11GetOpSchemaINS_13If_Onnx_ver25EEENS_8OpSchemaEv, symObjAddr: 0x0, symBinAddr: 0xD1A528, symSize: 0x3F8 }
  - { offset: 0xDD5C7, size: 0x8, addend: 0x0, symName: __ZN4onnxL23control_flow_types_ir13Ev, symObjAddr: 0x580, symBinAddr: 0xD1A920, symSize: 0x1D8 }
  - { offset: 0xDDE5A, size: 0x8, addend: 0x0, symName: __ZN4onnx11GetOpSchemaINS_15Loop_Onnx_ver25EEENS_8OpSchemaEv, symObjAddr: 0x7C8, symBinAddr: 0xD1AAF8, symSize: 0x46C }
  - { offset: 0xDF1DC, size: 0x8, addend: 0x0, symName: __ZN4onnx11GetOpSchemaINS_15Scan_Onnx_ver25EEENS_8OpSchemaEv, symObjAddr: 0xC34, symBinAddr: 0xD1AF64, symSize: 0x450 }
  - { offset: 0x121936, size: 0x8, addend: 0x0, symName: __ZN4onnx11GetOpSchemaINS_13If_Onnx_ver24EEENS_8OpSchemaEv, symObjAddr: 0x0, symBinAddr: 0xD1B3B4, symSize: 0x3F8 }
  - { offset: 0x122CC3, size: 0x8, addend: 0x0, symName: __ZN4onnxL23control_flow_types_ir12Ev, symObjAddr: 0x580, symBinAddr: 0xD1B7AC, symSize: 0x1D8 }
  - { offset: 0x123556, size: 0x8, addend: 0x0, symName: __ZN4onnx11GetOpSchemaINS_13If_Onnx_ver23EEENS_8OpSchemaEv, symObjAddr: 0x7C8, symBinAddr: 0xD1B984, symSize: 0x3F8 }
  - { offset: 0x1248E3, size: 0x8, addend: 0x0, symName: __ZN4onnxL23control_flow_types_ir11Ev, symObjAddr: 0xBC0, symBinAddr: 0xD1BD7C, symSize: 0x1D8 }
  - { offset: 0x125176, size: 0x8, addend: 0x0, symName: __ZN4onnx11GetOpSchemaINS_13If_Onnx_ver21EEENS_8OpSchemaEv, symObjAddr: 0xD98, symBinAddr: 0xD1BF54, symSize: 0x3F8 }
  - { offset: 0x126503, size: 0x8, addend: 0x0, symName: __ZN4onnxL23control_flow_types_ir10Ev, symObjAddr: 0x1190, symBinAddr: 0xD1C34C, symSize: 0x1D8 }
  - { offset: 0x126D96, size: 0x8, addend: 0x0, symName: __ZN4onnx11GetOpSchemaINS_13If_Onnx_ver19EEENS_8OpSchemaEv, symObjAddr: 0x1368, symBinAddr: 0xD1C524, symSize: 0x3F4 }
  - { offset: 0x128143, size: 0x8, addend: 0x0, symName: __ZN4onnxL22control_flow_types_ir9Ev, symObjAddr: 0x175C, symBinAddr: 0xD1C918, symSize: 0x1D8 }
  - { offset: 0x1289D6, size: 0x8, addend: 0x0, symName: __ZN4onnx11GetOpSchemaINS_13If_Onnx_ver16EEENS_8OpSchemaEv, symObjAddr: 0x1934, symBinAddr: 0xD1CAF0, symSize: 0x3F4 }
  - { offset: 0x129D83, size: 0x8, addend: 0x0, symName: __ZN4onnxL22control_flow_types_ir4Ev, symObjAddr: 0x1D28, symBinAddr: 0xD1CEE4, symSize: 0x1D8 }
  - { offset: 0x12A616, size: 0x8, addend: 0x0, symName: __ZN4onnx11GetOpSchemaINS_15Loop_Onnx_ver24EEENS_8OpSchemaEv, symObjAddr: 0x1F00, symBinAddr: 0xD1D0BC, symSize: 0x46C }
  - { offset: 0x12B9A7, size: 0x8, addend: 0x0, symName: __ZN4onnx11GetOpSchemaINS_15Loop_Onnx_ver23EEENS_8OpSchemaEv, symObjAddr: 0x236C, symBinAddr: 0xD1D528, symSize: 0x46C }
  - { offset: 0x12CD38, size: 0x8, addend: 0x0, symName: __ZN4onnx11GetOpSchemaINS_15Loop_Onnx_ver21EEENS_8OpSchemaEv, symObjAddr: 0x27D8, symBinAddr: 0xD1D994, symSize: 0x46C }
  - { offset: 0x12E0C9, size: 0x8, addend: 0x0, symName: __ZN4onnx11GetOpSchemaINS_15Loop_Onnx_ver19EEENS_8OpSchemaEv, symObjAddr: 0x2C44, symBinAddr: 0xD1DE00, symSize: 0x468 }
  - { offset: 0x12F47A, size: 0x8, addend: 0x0, symName: __ZN4onnx11GetOpSchemaINS_15Loop_Onnx_ver16EEENS_8OpSchemaEv, symObjAddr: 0x30AC, symBinAddr: 0xD1E268, symSize: 0x468 }
  - { offset: 0x13082B, size: 0x8, addend: 0x0, symName: __ZN4onnx11GetOpSchemaINS_15Scan_Onnx_ver24EEENS_8OpSchemaEv, symObjAddr: 0x3514, symBinAddr: 0xD1E6D0, symSize: 0x450 }
  - { offset: 0x131C2D, size: 0x8, addend: 0x0, symName: __ZN4onnx11GetOpSchemaINS_15Scan_Onnx_ver23EEENS_8OpSchemaEv, symObjAddr: 0x3964, symBinAddr: 0xD1EB20, symSize: 0x450 }
  - { offset: 0x13302F, size: 0x8, addend: 0x0, symName: __ZN4onnx11GetOpSchemaINS_15Scan_Onnx_ver21EEENS_8OpSchemaEv, symObjAddr: 0x3DB4, symBinAddr: 0xD1EF70, symSize: 0x450 }
  - { offset: 0x134431, size: 0x8, addend: 0x0, symName: __ZN4onnx11GetOpSchemaINS_15Scan_Onnx_ver19EEENS_8OpSchemaEv, symObjAddr: 0x4204, symBinAddr: 0xD1F3C0, symSize: 0x450 }
  - { offset: 0x135833, size: 0x8, addend: 0x0, symName: __ZN4onnx11GetOpSchemaINS_15Scan_Onnx_ver16EEENS_8OpSchemaEv, symObjAddr: 0x4654, symBinAddr: 0xD1F810, symSize: 0x450 }
  - { offset: 0x136CD1, size: 0x8, addend: 0x0, symName: __ZN4onnx27ScanInferenceFunctionOpset8ERNS_16InferenceContextE, symObjAddr: 0x4AA4, symBinAddr: 0xD1FC60, symSize: 0xE64 }
  - { offset: 0x13ABB6, size: 0x8, addend: 0x0, symName: __ZN4onnx25RemoveDimensionsFromShapeERKNS_9TypeProtoEi, symObjAddr: 0x5C4C, symBinAddr: 0xD20DD0, symSize: 0x1DC }
  - { offset: 0x13B409, size: 0x8, addend: 0x0, symName: __ZN4onnx10MakeStringIJA22_cA12_cmA19_cEEENSt3__112basic_stringIcNS4_11char_traitsIcEENS4_9allocatorIcEEEEDpRKT_, symObjAddr: 0x5A04, symBinAddr: 0xD20BC0, symSize: 0x210 }
  - { offset: 0x13BB40, size: 0x8, addend: 0x0, symName: __ZN4onnx10MakeStringIJA22_cA63_cmA9_cEEENSt3__112basic_stringIcNS4_11char_traitsIcEENS4_9allocatorIcEEEEDpRKT_, symObjAddr: 0x6234, symBinAddr: 0xD211CC, symSize: 0x210 }
  - { offset: 0x13C277, size: 0x8, addend: 0x0, symName: __ZN4onnx10MakeStringIJA22_cA59_cmA20_cmEEENSt3__112basic_stringIcNS4_11char_traitsIcEENS4_9allocatorIcEEEEDpRKT_, symObjAddr: 0x6014, symBinAddr: 0xD20FAC, symSize: 0x220 }
  - { offset: 0x13D47E, size: 0x8, addend: 0x0, symName: __ZN4onnx11GetOpSchemaINS_14Scan_Onnx_ver8EEENS_8OpSchemaEv, symObjAddr: 0x649C, symBinAddr: 0xD213DC, symSize: 0x448 }
  - { offset: 0x13E804, size: 0x8, addend: 0x0, symName: __ZN4onnx11GetOpSchemaINS_14Loop_Onnx_ver1EEENS_8OpSchemaEv, symObjAddr: 0x68E4, symBinAddr: 0xD21824, symSize: 0x464 }
  - { offset: 0x13FB7D, size: 0x8, addend: 0x0, symName: __ZN4onnxL27LoopInferenceFunctionOpset8ERNS_16InferenceContextE, symObjAddr: 0x6D48, symBinAddr: 0xD21C88, symSize: 0xB28 }
  - { offset: 0x142B23, size: 0x8, addend: 0x0, symName: __ZN4onnx10MakeStringIJA22_cA63_cmA6_cNS_9TypeProto9ValueCaseEEEENSt3__112basic_stringIcNS6_11char_traitsIcEENS6_9allocatorIcEEEEDpRKT_, symObjAddr: 0x12488, symBinAddr: 0xD28094, symSize: 0x220 }
  - { offset: 0x1432C0, size: 0x8, addend: 0x0, symName: __ZN4onnx11GetOpSchemaINS_15Loop_Onnx_ver11EEENS_8OpSchemaEv, symObjAddr: 0x7870, symBinAddr: 0xD227B0, symSize: 0x464 }
  - { offset: 0x144639, size: 0x8, addend: 0x0, symName: __ZN4onnxL28LoopInferenceFunctionOpset11ERNS_16InferenceContextE, symObjAddr: 0x7CD4, symBinAddr: 0xD22C14, symSize: 0xB28 }
  - { offset: 0x1475C8, size: 0x8, addend: 0x0, symName: __ZN4onnx11GetOpSchemaINS_14Scan_Onnx_ver9EEENS_8OpSchemaEv, symObjAddr: 0x87FC, symBinAddr: 0xD2373C, symSize: 0x430 }
  - { offset: 0x1489AC, size: 0x8, addend: 0x0, symName: __ZN4onnxL27ScanInferenceFunctionOpset9ERNS_16InferenceContextE, symObjAddr: 0x8C2C, symBinAddr: 0xD23B6C, symSize: 0x11A4 }
  - { offset: 0x14DAF1, size: 0x8, addend: 0x0, symName: __ZN4onnx10MakeStringIJA23_cA38_cmA42_cmA3_cEEENSt3__112basic_stringIcNS5_11char_traitsIcEENS5_9allocatorIcEEEEDpRKT_, symObjAddr: 0x1283C, symBinAddr: 0xD282B4, symSize: 0x244 }
  - { offset: 0x14E376, size: 0x8, addend: 0x0, symName: __ZN4onnx10MakeStringIJA23_cA39_cmA43_cmA3_cEEENSt3__112basic_stringIcNS5_11char_traitsIcEENS5_9allocatorIcEEEEDpRKT_, symObjAddr: 0x12DDC, symBinAddr: 0xD284F8, symSize: 0x244 }
  - { offset: 0x14EBFC, size: 0x8, addend: 0x0, symName: __ZN4onnxL36handle_negative_axis_validate_opset9ERKNSt3__112basic_stringIcNS0_11char_traitsIcEENS0_9allocatorIcEEEEii, symObjAddr: 0x13020, symBinAddr: 0xD2873C, symSize: 0x12C }
  - { offset: 0x14EE78, size: 0x8, addend: 0x0, symName: __ZN4onnx27RemoveIthDimensionFromShapeERKNS_9TypeProtoEi, symObjAddr: 0x1314C, symBinAddr: 0xD28868, symSize: 0x1F0 }
  - { offset: 0x14F3A0, size: 0x8, addend: 0x0, symName: __ZN4onnx11GetOpSchemaINS_12If_Onnx_ver1EEENS_8OpSchemaEv, symObjAddr: 0x9DD0, symBinAddr: 0xD24D10, symSize: 0x3F0 }
  - { offset: 0x150711, size: 0x8, addend: 0x0, symName: __ZN4onnxL20IfInferenceFunction1ERNS_16InferenceContextE, symObjAddr: 0xA1C0, symBinAddr: 0xD25100, symSize: 0x5FC }
  - { offset: 0x15222C, size: 0x8, addend: 0x0, symName: __ZN4onnx10MakeStringIJA22_cA28_cmA7_cNS_9TypeProto9ValueCaseES3_S5_EEENSt3__112basic_stringIcNS6_11char_traitsIcEENS6_9allocatorIcEEEEDpRKT_, symObjAddr: 0x139DC, symBinAddr: 0xD290E4, symSize: 0x254 }
  - { offset: 0x152B25, size: 0x8, addend: 0x0, symName: __ZN4onnx10MakeStringIJA22_cA43_cmA7_ciS3_iEEENSt3__112basic_stringIcNS4_11char_traitsIcEENS4_9allocatorIcEEEEDpRKT_, symObjAddr: 0x13C30, symBinAddr: 0xD29338, symSize: 0x254 }
  - { offset: 0x15341E, size: 0x8, addend: 0x0, symName: __ZN4onnx10MakeStringIJA22_cA66_cmA5_cmEEENSt3__112basic_stringIcNS4_11char_traitsIcEENS4_9allocatorIcEEEEDpRKT_, symObjAddr: 0x1359C, symBinAddr: 0xD28CA4, symSize: 0x220 }
  - { offset: 0x153BBB, size: 0x8, addend: 0x0, symName: __ZN4onnx10MakeStringIJA22_cA13_cmA24_cmEEENSt3__112basic_stringIcNS4_11char_traitsIcEENS4_9allocatorIcEEEEDpRKT_, symObjAddr: 0x137BC, symBinAddr: 0xD28EC4, symSize: 0x220 }
  - { offset: 0x154358, size: 0x8, addend: 0x0, symName: __ZN4onnx11GetOpSchemaINS_13If_Onnx_ver11EEENS_8OpSchemaEv, symObjAddr: 0xA7BC, symBinAddr: 0xD256FC, symSize: 0x3F0 }
  - { offset: 0x1556C9, size: 0x8, addend: 0x0, symName: __ZN4onnxL22IfInferenceFunction_11ERNS_16InferenceContextE, symObjAddr: 0xABAC, symBinAddr: 0xD25AEC, symSize: 0x610 }
  - { offset: 0x15723E, size: 0x8, addend: 0x0, symName: __ZN4onnx11GetOpSchemaINS_13If_Onnx_ver13EEENS_8OpSchemaEv, symObjAddr: 0xB1BC, symBinAddr: 0xD260FC, symSize: 0x4C0 }
  - { offset: 0x158A68, size: 0x8, addend: 0x0, symName: __ZN4onnxL22IfInferenceFunction_13ERNS_16InferenceContextE, symObjAddr: 0xB67C, symBinAddr: 0xD265BC, symSize: 0x410 }
  - { offset: 0x159FB9, size: 0x8, addend: 0x0, symName: __ZN4onnx11GetOpSchemaINS_15Loop_Onnx_ver13EEENS_8OpSchemaEv, symObjAddr: 0xBA8C, symBinAddr: 0xD269CC, symSize: 0x558 }
  - { offset: 0x15B7D9, size: 0x8, addend: 0x0, symName: __ZN4onnxL24LoopInferenceFunction_13ERNS_16InferenceContextE, symObjAddr: 0xBFE4, symBinAddr: 0xD26F24, symSize: 0xC04 }
  - { offset: 0x15EA9E, size: 0x8, addend: 0x0, symName: __ZN4onnx10MakeStringIJA22_cA68_cmA6_cNS_9TypeProto9ValueCaseEEEENSt3__112basic_stringIcNS6_11char_traitsIcEENS6_9allocatorIcEEEEDpRKT_, symObjAddr: 0x140A4, symBinAddr: 0xD297AC, symSize: 0x220 }
  - { offset: 0x15F23B, size: 0x8, addend: 0x0, symName: __ZN4onnx10MakeStringIJA22_cA76_cmA6_cNS_9TypeProto9ValueCaseEEEENSt3__112basic_stringIcNS6_11char_traitsIcEENS6_9allocatorIcEEEEDpRKT_, symObjAddr: 0x13E84, symBinAddr: 0xD2958C, symSize: 0x220 }
  - { offset: 0x15F9D8, size: 0x8, addend: 0x0, symName: __ZN4onnx11GetOpSchemaINS_15Scan_Onnx_ver11EEENS_8OpSchemaEv, symObjAddr: 0xCBE8, symBinAddr: 0xD27B28, symSize: 0x430 }
  - { offset: 0x1621C9, size: 0x8, addend: 0x0, symName: __ZN4onnx10MakeStringIJA23_cNSt3__112basic_stringIcNS2_11char_traitsIcEENS2_9allocatorIcEEEEA13_ciA34_ciEEES8_DpRKT_, symObjAddr: 0x13350, symBinAddr: 0xD28A58, symSize: 0x24C }
  - { offset: 0x191445, size: 0x8, addend: 0x0, symName: __ZNSt3__16vectorIN4onnx9TypeProtoENS_9allocatorIS2_EEE7reserveEm, symObjAddr: 0x5908, symBinAddr: 0xD20AC4, symSize: 0xFC }
  - { offset: 0x19181E, size: 0x8, addend: 0x0, symName: __ZN4onnx10MakeStringIJA22_cA12_cmA19_cEEENSt3__112basic_stringIcNS4_11char_traitsIcEENS4_9allocatorIcEEEEDpRKT_, symObjAddr: 0x5A04, symBinAddr: 0xD20BC0, symSize: 0x210 }
  - { offset: 0x191908, size: 0x8, addend: 0x0, symName: __ZNSt3__16vectorIN4onnx9TypeProtoENS_9allocatorIS2_EEE24__emplace_back_slow_pathIJS2_EEEPS2_DpOT_, symObjAddr: 0x120D0, symBinAddr: 0xD27F58, symSize: 0x13C }
  - { offset: 0x191DD9, size: 0x8, addend: 0x0, symName: __ZN4onnx10MakeStringIJA22_cA63_cmA6_cNS_9TypeProto9ValueCaseEEEENSt3__112basic_stringIcNS6_11char_traitsIcEENS6_9allocatorIcEEEEDpRKT_, symObjAddr: 0x12488, symBinAddr: 0xD28094, symSize: 0x220 }
  - { offset: 0x1936C4, size: 0x8, addend: 0x0, symName: __ZN4onnx10MakeStringIJA23_cA39_cmA43_cmA3_cEEENSt3__112basic_stringIcNS5_11char_traitsIcEENS5_9allocatorIcEEEEDpRKT_, symObjAddr: 0x12DDC, symBinAddr: 0xD284F8, symSize: 0x244 }
  - { offset: 0x1936E6, size: 0x8, addend: 0x0, symName: __ZN4onnx10MakeStringIJA23_cNSt3__112basic_stringIcNS2_11char_traitsIcEENS2_9allocatorIcEEEEA13_ciA34_ciEEES8_DpRKT_, symObjAddr: 0x13350, symBinAddr: 0xD28A58, symSize: 0x24C }
  - { offset: 0x1B448B, size: 0x8, addend: 0x0, symName: __ZN4onnx5Utils13DataTypeUtils6ToTypeERKNS_9TypeProtoE, symObjAddr: 0xE0, symBinAddr: 0xD2C07C, symSize: 0x25C }
  - { offset: 0x1B4F54, size: 0x8, addend: 0x0, symName: __ZN4onnx5Utils13DataTypeUtils8ToStringERKNS_9TypeProtoERKNSt3__112basic_stringIcNS5_11char_traitsIcEENS5_9allocatorIcEEEESD_, symObjAddr: 0x33C, symBinAddr: 0xD2C2D8, symSize: 0xCFC }
  - { offset: 0x1B8673, size: 0x8, addend: 0x0, symName: __ZNSt3__112__hash_tableINS_17__hash_value_typeINS_12basic_stringIcNS_11char_traitsIcEENS_9allocatorIcEEEEN4onnx9TypeProtoEEENS_22__unordered_map_hasherIS7_SA_NS_4hashIS7_EENS_8equal_toIS7_EELb1EEENS_21__unordered_map_equalIS7_SA_SF_SD_Lb1EEENS5_ISA_EEE4findIS7_EENS_15__hash_iteratorIPNS_11__hash_nodeISA_PvEEEERKT_, symObjAddr: 0x47EC, symBinAddr: 0xD2F988, symSize: 0x1E8 }
  - { offset: 0x1B897B, size: 0x8, addend: 0x0, symName: __ZN4onnx5Utils13DataTypeUtils10FromStringERKNSt3__112basic_stringIcNS2_11char_traitsIcEENS2_9allocatorIcEEEERNS_9TypeProtoE, symObjAddr: 0x1038, symBinAddr: 0xD2CFD4, symSize: 0x1188 }
  - { offset: 0x1BBF27, size: 0x8, addend: 0x0, symName: __ZN4onnx5Utils13DataTypeUtils6ToTypeERKNS_9TypeProtoE.cold.1, symObjAddr: 0x6E10, symBinAddr: 0x1256B00, symSize: 0x48 }
  - { offset: 0x1BBF54, size: 0x8, addend: 0x0, symName: __ZN4onnx5Utils13DataTypeUtils6ToTypeERKNS_9TypeProtoE.cold.2, symObjAddr: 0x6E58, symBinAddr: 0x1256B48, symSize: 0x40 }
  - { offset: 0x1BC76B, size: 0x8, addend: 0x0, symName: __ZN4onnx5Utils13DataTypeUtils16ToDataTypeStringEi, symObjAddr: 0x2448, symBinAddr: 0xD2E388, symSize: 0x314 }
  - { offset: 0x1BD588, size: 0x8, addend: 0x0, symName: __ZN4onnx5Utils11StringRange21ParensWhitespaceStripEv, symObjAddr: 0x297C, symBinAddr: 0xD2E69C, symSize: 0x1C4 }
  - { offset: 0x1BD8C9, size: 0x8, addend: 0x0, symName: __ZN4onnx5Utils13DataTypeUtils18FromDataTypeStringERKNSt3__112basic_stringIcNS2_11char_traitsIcEENS2_9allocatorIcEEEE, symObjAddr: 0x2C90, symBinAddr: 0xD2E90C, symSize: 0x250 }
  - { offset: 0x1BDC73, size: 0x8, addend: 0x0, symName: __ZN4onnx16TypeProto_Opaque14mutable_domainEv, symObjAddr: 0x2EF0, symBinAddr: 0xD2EB5C, symSize: 0x2C }
  - { offset: 0x1BDCAA, size: 0x8, addend: 0x0, symName: __ZN4onnx16TypeProto_Opaque14mutable_domainEv, symObjAddr: 0x2EF0, symBinAddr: 0xD2EB5C, symSize: 0x2C }
  - { offset: 0x1BDFD6, size: 0x8, addend: 0x0, symName: __ZN4onnx5Utils12TypesWrapperD2Ev, symObjAddr: 0x452C, symBinAddr: 0xD2F8A0, symSize: 0xE8 }
  - { offset: 0x1BDFE6, size: 0x8, addend: 0x0, symName: __ZN4onnx16TypeProto_Opaque12mutable_nameEv, symObjAddr: 0x2F1C, symBinAddr: 0xD2EB88, symSize: 0x2C }
  - { offset: 0x1BE01D, size: 0x8, addend: 0x0, symName: __ZN4onnx16TypeProto_Opaque12mutable_nameEv, symObjAddr: 0x2F1C, symBinAddr: 0xD2EB88, symSize: 0x2C }
  - { offset: 0x1BE0A4, size: 0x8, addend: 0x0, symName: __ZNSt3__112basic_stringIcNS_11char_traitsIcEENS_9allocatorIcEEEC1B8ne190102EPKcm, symObjAddr: 0x2B50, symBinAddr: 0xD2E860, symSize: 0xAC }
  - { offset: 0x1BE399, size: 0x8, addend: 0x0, symName: __ZN4onnx16TypeProto_Tensor13mutable_shapeEv, symObjAddr: 0x2FBC, symBinAddr: 0xD2EBB4, symSize: 0x68 }
  - { offset: 0x1BE493, size: 0x8, addend: 0x0, symName: __ZN4onnx5Utils13DataTypeUtils6ToTypeERKNSt3__112basic_stringIcNS2_11char_traitsIcEENS2_9allocatorIcEEEE, symObjAddr: 0x21C0, symBinAddr: 0xD2E15C, symSize: 0x9C }
  - { offset: 0x1BE513, size: 0x8, addend: 0x0, symName: __ZN4onnx5Utils13DataTypeUtils11ToTypeProtoERKPKNSt3__112basic_stringIcNS2_11char_traitsIcEENS2_9allocatorIcEEEE, symObjAddr: 0x225C, symBinAddr: 0xD2E1F8, symSize: 0x190 }
  - { offset: 0x1BE7BF, size: 0x8, addend: 0x0, symName: __ZN4onnx5Utils13DataTypeUtils11ToTypeProtoERKPKNSt3__112basic_stringIcNS2_11char_traitsIcEENS2_9allocatorIcEEEE.cold.1, symObjAddr: 0x6F58, symBinAddr: 0x1256B88, symSize: 0x4C }
  - { offset: 0x1BE7EC, size: 0x8, addend: 0x0, symName: __ZN4onnx5Utils13DataTypeUtils11ToTypeProtoERKPKNSt3__112basic_stringIcNS2_11char_traitsIcEENS2_9allocatorIcEEEE.cold.2, symObjAddr: 0x6FA4, symBinAddr: 0x1256BD4, symSize: 0x48 }
  - { offset: 0x1BEB57, size: 0x8, addend: 0x0, symName: __ZN4onnx5Utils12TypesWrapperC2Ev, symObjAddr: 0x3624, symBinAddr: 0xD2ED94, symSize: 0xB0C }
  - { offset: 0x1C2F79, size: 0x8, addend: 0x0, symName: __ZN4onnx5Utils11StringRange10LAndRStripEv, symObjAddr: 0x3124, symBinAddr: 0xD2EC1C, symSize: 0x174 }
  - { offset: 0x1C39F4, size: 0x8, addend: 0x0, symName: __ZN4onnx5Utils12TypesWrapperD1Ev, symObjAddr: 0x3620, symBinAddr: 0xD2ED90, symSize: 0x4 }
  - { offset: 0x1C3A20, size: 0x8, addend: 0x0, symName: __ZN4onnx5Utils12TypesWrapperD1Ev, symObjAddr: 0x3620, symBinAddr: 0xD2ED90, symSize: 0x4 }
  - { offset: 0x1C3A33, size: 0x8, addend: 0x0, symName: __ZN4onnx5Utils12TypesWrapperD2Ev, symObjAddr: 0x452C, symBinAddr: 0xD2F8A0, symSize: 0xE8 }
  - { offset: 0x1C54BB, size: 0x8, addend: 0x0, symName: __ZNSt3__112__hash_tableINS_17__hash_value_typeINS_12basic_stringIcNS_11char_traitsIcEENS_9allocatorIcEEEEN4onnx9TypeProtoEEENS_22__unordered_map_hasherIS7_SA_NS_4hashIS7_EENS_8equal_toIS7_EELb1EEENS_21__unordered_map_equalIS7_SA_SF_SD_Lb1EEENS5_ISA_EEE4findIS7_EENS_15__hash_iteratorIPNS_11__hash_nodeISA_PvEEEERKT_, symObjAddr: 0x47EC, symBinAddr: 0xD2F988, symSize: 0x1E8 }
  - { offset: 0x1C5A29, size: 0x8, addend: 0x0, symName: __ZNSt3__112__hash_tableINS_17__hash_value_typeIiNS_12basic_stringIcNS_11char_traitsIcEENS_9allocatorIcEEEEEENS_22__unordered_map_hasherIiS8_NS_4hashIiEENS_8equal_toIiEELb1EEENS_21__unordered_map_equalIiS8_SD_SB_Lb1EEENS5_IS8_EEE25__emplace_unique_key_argsIiJRKNS_21piecewise_construct_tENS_5tupleIJRKiEEENSN_IJEEEEEENS_4pairINS_15__hash_iteratorIPNS_11__hash_nodeIS8_PvEEEEbEERKT_DpOT0_, symObjAddr: 0x6188, symBinAddr: 0xD2FB70, symSize: 0x374 }
  - { offset: 0x1CA65F, size: 0x8, addend: 0x0, symName: _OUTLINED_FUNCTION_0, symObjAddr: 0x7034, symBinAddr: 0xD2FEE4, symSize: 0x1C }
  - { offset: 0x1CA677, size: 0x8, addend: 0x0, symName: _OUTLINED_FUNCTION_2, symObjAddr: 0x7058, symBinAddr: 0xD2FF00, symSize: 0x8 }
  - { offset: 0x1CA68F, size: 0x8, addend: 0x0, symName: _OUTLINED_FUNCTION_3, symObjAddr: 0x7060, symBinAddr: 0xD2FF08, symSize: 0x8 }
  - { offset: 0x1CC563, size: 0x8, addend: 0x0, symName: __ZN4onnx14kDoc_GRU_ver14E, symObjAddr: 0x0, symBinAddr: 0x156A417, symSize: 0x0 }
  - { offset: 0x1CC57D, size: 0x8, addend: 0x0, symName: __ZN4onnx18kDoc_Squeeze_ver24E, symObjAddr: 0x754, symBinAddr: 0x156AB6B, symSize: 0x0 }
  - { offset: 0x1CC597, size: 0x8, addend: 0x0, symName: __ZN4onnx20kDoc_MaxUnpool_ver11E, symObjAddr: 0x86D, symBinAddr: 0x156AC84, symSize: 0x0 }
  - { offset: 0x1CC5B1, size: 0x8, addend: 0x0, symName: __ZN4onnx15kDoc_Size_ver24E, symObjAddr: 0xDE1, symBinAddr: 0x156B1F8, symSize: 0x0 }
  - { offset: 0x1CC5CB, size: 0x8, addend: 0x0, symName: __ZN4onnx23kDoc_RandomUniform_ver1E, symObjAddr: 0xE57, symBinAddr: 0x156B26E, symSize: 0x0 }
  - { offset: 0x1CC5E5, size: 0x8, addend: 0x0, symName: __ZN4onnx27kDoc_DequantizeLinear_ver24E, symObjAddr: 0xFAC, symBinAddr: 0x156B3C3, symSize: 0x0 }
  - { offset: 0x1CC5FF, size: 0x8, addend: 0x0, symName: __ZN4onnx22kDoc_RandomNormal_ver1E, symObjAddr: 0x13D5, symBinAddr: 0x156B7EC, symSize: 0x0 }
  - { offset: 0x1CC619, size: 0x8, addend: 0x0, symName: __ZN4onnx16kDoc_Round_ver11E, symObjAddr: 0x1554, symBinAddr: 0x156B96B, symSize: 0x0 }
  - { offset: 0x1CC633, size: 0x8, addend: 0x0, symName: __ZN4onnx22kDoc_SpaceToDepth_ver1E, symObjAddr: 0x171A, symBinAddr: 0x156BB31, symSize: 0x0 }
  - { offset: 0x1CC64D, size: 0x8, addend: 0x0, symName: __ZN4onnx31kDoc_InstanceNormalization_ver6E, symObjAddr: 0x17E8, symBinAddr: 0x156BBFF, symSize: 0x0 }
  - { offset: 0x1CC667, size: 0x8, addend: 0x0, symName: __ZN4onnx26kDoc_ThresholdedRelu_ver10E, symObjAddr: 0x18C1, symBinAddr: 0x156BCD8, symSize: 0x0 }
  - { offset: 0x1CC681, size: 0x8, addend: 0x0, symName: __ZN4onnx15kDoc_Acosh_ver9E, symObjAddr: 0x198E, symBinAddr: 0x156BDA5, symSize: 0x0 }
  - { offset: 0x1CC69B, size: 0x8, addend: 0x0, symName: __ZN4onnx18kDoc_Dropout_ver13E, symObjAddr: 0x19DC, symBinAddr: 0x156BDF3, symSize: 0x0 }
  - { offset: 0x1CC6B5, size: 0x8, addend: 0x0, symName: __ZN4onnx21kDoc_DeformConv_ver19E, symObjAddr: 0x1C36, symBinAddr: 0x156C04D, symSize: 0x0 }
  - { offset: 0x1CC6CF, size: 0x8, addend: 0x0, symName: __ZN4onnx18kDoc_Softplus_ver1E, symObjAddr: 0x1D1E, symBinAddr: 0x156C135, symSize: 0x0 }
  - { offset: 0x1CC6E9, size: 0x8, addend: 0x0, symName: __ZN4onnx14kDoc_Tile_ver6E, symObjAddr: 0x1DCA, symBinAddr: 0x156C1E1, symSize: 0x0 }
  - { offset: 0x1CC703, size: 0x8, addend: 0x0, symName: __ZN4onnx20kDoc_Unsqueeze_ver24E, symObjAddr: 0x1E91, symBinAddr: 0x156C2A8, symSize: 0x0 }
  - { offset: 0x1CC71D, size: 0x8, addend: 0x0, symName: __ZN4onnx26kDoc_ConstantOfShape_ver24E, symObjAddr: 0x21EC, symBinAddr: 0x156C603, symSize: 0x0 }
  - { offset: 0x1CC737, size: 0x8, addend: 0x0, symName: __ZN4onnx13kDoc_Elu_ver6E, symObjAddr: 0x221C, symBinAddr: 0x156C633, symSize: 0x0 }
  - { offset: 0x1CC751, size: 0x8, addend: 0x0, symName: __ZN4onnx17kDoc_CumSum_ver11E, symObjAddr: 0x22E8, symBinAddr: 0x156C6FF, symSize: 0x0 }
  - { offset: 0x1CC76B, size: 0x8, addend: 0x0, symName: __ZN4onnx14kDoc_Acos_ver7E, symObjAddr: 0x24FC, symBinAddr: 0x156C913, symSize: 0x0 }
  - { offset: 0x1CC785, size: 0x8, addend: 0x0, symName: __ZN4onnx15kDoc_LSTM_ver14E, symObjAddr: 0x2554, symBinAddr: 0x156C96B, symSize: 0x0 }
  - { offset: 0x1CC7A0, size: 0x8, addend: 0x0, symName: __ZN4onnx20kDoc_Bernoulli_ver15E, symObjAddr: 0x2D69, symBinAddr: 0x156D180, symSize: 0x0 }
  - { offset: 0x1CC7BB, size: 0x8, addend: 0x0, symName: __ZN4onnx18kDoc_Softsign_ver1E, symObjAddr: 0x2F2B, symBinAddr: 0x156D342, symSize: 0x0 }
  - { offset: 0x1CC7D6, size: 0x8, addend: 0x0, symName: __ZN4onnx14kDoc_Selu_ver6E, symObjAddr: 0x2F79, symBinAddr: 0x156D390, symSize: 0x0 }
  - { offset: 0x1CC7F1, size: 0x8, addend: 0x0, symName: __ZN4onnx16kDoc_Shape_ver24E, symObjAddr: 0x306E, symBinAddr: 0x156D485, symSize: 0x0 }
  - { offset: 0x1CC80C, size: 0x8, addend: 0x0, symName: __ZN4onnx18kDoc_Upsample_ver7E, symObjAddr: 0x34FF, symBinAddr: 0x156D916, symSize: 0x0 }
  - { offset: 0x1CC827, size: 0x8, addend: 0x0, symName: __ZN4onnx14kDoc_Tanh_ver6E, symObjAddr: 0x357F, symBinAddr: 0x156D996, symSize: 0x0 }
  - { offset: 0x1CC842, size: 0x8, addend: 0x0, symName: __ZN4onnx15kDoc_Cast_ver24E, symObjAddr: 0x35CB, symBinAddr: 0x156D9E2, symSize: 0x0 }
  - { offset: 0x1CC85D, size: 0x8, addend: 0x0, symName: __ZN4onnx21kDoc_Multinomial_ver7E, symObjAddr: 0x498D, symBinAddr: 0x156EDA4, symSize: 0x0 }
  - { offset: 0x1CC878, size: 0x8, addend: 0x0, symName: __ZN4onnx19kDoc_Constant_ver24E, symObjAddr: 0x4A0D, symBinAddr: 0x156EE24, symSize: 0x0 }
  - { offset: 0x1CC893, size: 0x8, addend: 0x0, symName: __ZN4onnx15kDoc_Where_ver9E, symObjAddr: 0x4A9B, symBinAddr: 0x156EEB2, symSize: 0x0 }
  - { offset: 0x1CC8AE, size: 0x8, addend: 0x0, symName: __ZN4onnx19kDoc_CastLike_ver24E, symObjAddr: 0x4B5A, symBinAddr: 0x156EF71, symSize: 0x0 }
  - { offset: 0x1CC8C9, size: 0x8, addend: 0x0, symName: __ZN4onnx21kDoc_GridSample_ver20E, symObjAddr: 0x4C24, symBinAddr: 0x156F03B, symSize: 0x0 }
  - { offset: 0x1CC8E4, size: 0x8, addend: 0x0, symName: __ZN4onnx15kDoc_Atanh_ver9E, symObjAddr: 0x526D, symBinAddr: 0x156F684, symSize: 0x0 }
  - { offset: 0x1CC8FF, size: 0x8, addend: 0x0, symName: __ZN4onnx18kDoc_Flatten_ver24E, symObjAddr: 0x52BC, symBinAddr: 0x156F6D3, symSize: 0x0 }
  - { offset: 0x1CC91A, size: 0x8, addend: 0x0, symName: __ZN4onnx20kDoc_Reciprocal_ver6E, symObjAddr: 0x5372, symBinAddr: 0x156F789, symSize: 0x0 }
  - { offset: 0x1CC935, size: 0x8, addend: 0x0, symName: __ZN4onnx14kDoc_Pow_ver13E, symObjAddr: 0x5411, symBinAddr: 0x156F828, symSize: 0x0 }
  - { offset: 0x1CC950, size: 0x8, addend: 0x0, symName: __ZN4onnx13kDoc_Tan_ver7E, symObjAddr: 0x54C5, symBinAddr: 0x156F8DC, symSize: 0x0 }
  - { offset: 0x1CC96B, size: 0x8, addend: 0x0, symName: __ZN4onnx15kDoc_mish_ver18E, symObjAddr: 0x5507, symBinAddr: 0x156F91E, symSize: 0x0 }
  - { offset: 0x1CC986, size: 0x8, addend: 0x0, symName: __ZN4onnx19kDoc_RoiAlign_ver16E, symObjAddr: 0x55DA, symBinAddr: 0x156F9F1, symSize: 0x0 }
  - { offset: 0x1CC9A1, size: 0x8, addend: 0x0, symName: __ZN4onnx19kDoc_LeakyRelu_ver1E, symObjAddr: 0x5810, symBinAddr: 0x156FC27, symSize: 0x0 }
  - { offset: 0x1CC9BC, size: 0x8, addend: 0x0, symName: __ZN4onnx14kDoc_Det_ver11E, symObjAddr: 0x58EC, symBinAddr: 0x156FD03, symSize: 0x0 }
  - { offset: 0x1CC9D7, size: 0x8, addend: 0x0, symName: __ZN4onnx27kDoc_RandomUniformLike_ver1E, symObjAddr: 0x5A76, symBinAddr: 0x156FE8D, symSize: 0x0 }
  - { offset: 0x1CC9F2, size: 0x8, addend: 0x0, symName: __ZN4onnx14kDoc_Relu_ver6E, symObjAddr: 0x5C5A, symBinAddr: 0x1570071, symSize: 0x0 }
  - { offset: 0x1CCA0D, size: 0x8, addend: 0x0, symName: __ZN4onnx26kDoc_RandomNormalLike_ver1E, symObjAddr: 0x5D05, symBinAddr: 0x157011C, symSize: 0x0 }
  - { offset: 0x1CCA28, size: 0x8, addend: 0x0, symName: __ZN4onnx13kDoc_Exp_ver6E, symObjAddr: 0x5EEA, symBinAddr: 0x1570301, symSize: 0x0 }
  - { offset: 0x1CCA43, size: 0x8, addend: 0x0, symName: __ZN4onnx14kDoc_Sign_ver9E, symObjAddr: 0x5F30, symBinAddr: 0x1570347, symSize: 0x0 }
  - { offset: 0x1CCA5E, size: 0x8, addend: 0x0, symName: __ZN4onnx14kDoc_Cosh_ver9E, symObjAddr: 0x5FB7, symBinAddr: 0x15703CE, symSize: 0x0 }
  - { offset: 0x1CCA79, size: 0x8, addend: 0x0, symName: __ZN4onnx17kDoc_Sigmoid_ver6E, symObjAddr: 0x6002, symBinAddr: 0x1570419, symSize: 0x0 }
  - { offset: 0x1CCA94, size: 0x8, addend: 0x0, symName: __ZN4onnx21kDoc_HardSigmoid_ver6E, symObjAddr: 0x60AF, symBinAddr: 0x15704C6, symSize: 0x0 }
  - { offset: 0x1CCAAF, size: 0x8, addend: 0x0, symName: __ZN4onnx25kDoc_LpNormalization_ver1E, symObjAddr: 0x6173, symBinAddr: 0x157058A, symSize: 0x0 }
  - { offset: 0x1CCACA, size: 0x8, addend: 0x0, symName: __ZN4onnx13kDoc_Erf_ver9E, symObjAddr: 0x627C, symBinAddr: 0x1570693, symSize: 0x0 }
  - { offset: 0x1CCAE5, size: 0x8, addend: 0x0, symName: __ZN4onnx15kDoc_Asinh_ver9E, symObjAddr: 0x62C2, symBinAddr: 0x15706D9, symSize: 0x0 }
  - { offset: 0x1CCB00, size: 0x8, addend: 0x0, symName: __ZN4onnx14kDoc_Sinh_ver9E, symObjAddr: 0x630E, symBinAddr: 0x1570725, symSize: 0x0 }
  - { offset: 0x1CCB1B, size: 0x8, addend: 0x0, symName: __ZN4onnx14kDoc_Atan_ver7E, symObjAddr: 0x6357, symBinAddr: 0x157076E, symSize: 0x0 }
  - { offset: 0x1CCB36, size: 0x8, addend: 0x0, symName: __ZN4onnx14kDoc_Sqrt_ver6E, symObjAddr: 0x63B1, symBinAddr: 0x15707C8, symSize: 0x0 }
  - { offset: 0x1CCB51, size: 0x8, addend: 0x0, symName: __ZN4onnx14kDoc_Asin_ver7E, symObjAddr: 0x647F, symBinAddr: 0x1570896, symSize: 0x0 }
  - { offset: 0x1CCB6C, size: 0x8, addend: 0x0, symName: __ZN4onnx16kDoc_Expand_ver8E, symObjAddr: 0x64D3, symBinAddr: 0x15708EA, symSize: 0x0 }
  - { offset: 0x1CCB87, size: 0x8, addend: 0x0, symName: __ZN4onnx12kDoc_scan_24E, symObjAddr: 0x671A, symBinAddr: 0x1570B31, symSize: 0x0 }
  - { offset: 0x1CCBA2, size: 0x8, addend: 0x0, symName: __ZN4onnx14kDoc_Pad_ver24E, symObjAddr: 0x7E4D, symBinAddr: 0x1572264, symSize: 0x0 }
  - { offset: 0x1CCBBD, size: 0x8, addend: 0x0, symName: __ZN4onnx13kDoc_Cos_ver7E, symObjAddr: 0x8534, symBinAddr: 0x157294B, symSize: 0x0 }
  - { offset: 0x1CCBD8, size: 0x8, addend: 0x0, symName: __ZN4onnx20kDoc_HardSwish_ver14E, symObjAddr: 0x8575, symBinAddr: 0x157298C, symSize: 0x0 }
  - { offset: 0x1CCBF3, size: 0x8, addend: 0x0, symName: __ZN4onnx16kDoc_MatMul_ver9E, symObjAddr: 0x867D, symBinAddr: 0x1572A94, symSize: 0x0 }
  - { offset: 0x1CCC0E, size: 0x8, addend: 0x0, symName: __ZN4onnx36kDoc_NegativeLogLikelihoodLoss_ver13E, symObjAddr: 0x86F4, symBinAddr: 0x1572B0B, symSize: 0x0 }
  - { offset: 0x1CCC29, size: 0x8, addend: 0x0, symName: __ZN4onnx13kDoc_Sin_ver7E, symObjAddr: 0x9234, symBinAddr: 0x157364B, symSize: 0x0 }
  - { offset: 0x1CCC44, size: 0x8, addend: 0x0, symName: __ZN4onnx15kDoc_Loop_ver23E, symObjAddr: 0x9273, symBinAddr: 0x157368A, symSize: 0x0 }
  - { offset: 0x1CCC5F, size: 0x8, addend: 0x0, symName: __ZN4onnx14kDoc_RNN_ver14E, symObjAddr: 0xA8F7, symBinAddr: 0x1574D0E, symSize: 0x0 }
  - { offset: 0x1CCC7A, size: 0x8, addend: 0x0, symName: __ZN4onnx28kDoc_NonMaxSuppression_ver10E, symObjAddr: 0xAE54, symBinAddr: 0x157526B, symSize: 0x0 }
  - { offset: 0x1CCC95, size: 0x8, addend: 0x0, symName: __ZN4onnx13kDoc_Log_ver6E, symObjAddr: 0xB21D, symBinAddr: 0x1575634, symSize: 0x0 }
  - { offset: 0x1CCCB0, size: 0x8, addend: 0x0, symName: __ZN4onnx17kDoc_EyeLike_ver9E, symObjAddr: 0xB263, symBinAddr: 0x157567A, symSize: 0x0 }
  - { offset: 0x1CCCCB, size: 0x8, addend: 0x0, symName: __ZN4onnx18kDoc_Reshape_ver24E, symObjAddr: 0xB4C3, symBinAddr: 0x15758DA, symSize: 0x0 }
  - { offset: 0x1CCCE6, size: 0x8, addend: 0x0, symName: __ZN4onnx18kDoc_Compress_ver9E, symObjAddr: 0xB883, symBinAddr: 0x1575C9A, symSize: 0x0 }
  - { offset: 0x1CCD01, size: 0x8, addend: 0x0, symName: __ZN4onnx15kDoc_PRelu_ver7E, symObjAddr: 0xB9C1, symBinAddr: 0x1575DD8, symSize: 0x0 }
  - { offset: 0x1CCD1C, size: 0x8, addend: 0x0, symName: __ZN4onnx13kDoc_Neg_ver6E, symObjAddr: 0xBA9E, symBinAddr: 0x1575EB5, symSize: 0x0 }
  - { offset: 0x1CCD37, size: 0x8, addend: 0x0, symName: __ZN4onnx18kDoc_BitCast_ver26E, symObjAddr: 0xBB3D, symBinAddr: 0x1575F54, symSize: 0x0 }
  - { offset: 0x2055A3, size: 0x8, addend: 0x0, symName: __ZN4onnx18FunctionBodyHelper10BuildNodesERKNSt3__16vectorINS0_7NodeDefENS1_9allocatorIS3_EEEE, symObjAddr: 0x1E28, symBinAddr: 0xD2FF10, symSize: 0x45C }
  - { offset: 0x2061FC, size: 0x8, addend: 0x0, symName: __ZNSt3__128__exception_guard_exceptionsINS_6vectorIN4onnx9NodeProtoENS_9allocatorIS3_EEE16__destroy_vectorEED1B8ne190102Ev, symObjAddr: 0x4DC4, symBinAddr: 0xD303C4, symSize: 0x70 }
  - { offset: 0x206229, size: 0x8, addend: 0x0, symName: __ZNSt3__128__exception_guard_exceptionsINS_6vectorIN4onnx9NodeProtoENS_9allocatorIS3_EEE16__destroy_vectorEED1B8ne190102Ev, symObjAddr: 0x4DC4, symBinAddr: 0xD303C4, symSize: 0x70 }
  - { offset: 0x206386, size: 0x8, addend: 0x0, symName: __ZNSt3__16vectorIN4onnx9NodeProtoENS_9allocatorIS2_EEED1B8ne190102Ev, symObjAddr: 0x2284, symBinAddr: 0xD3036C, symSize: 0x58 }
  - { offset: 0x213928, size: 0x8, addend: 0x0, symName: __ZN4onnx23BinaryLogicDocGeneratorEPKc, symObjAddr: 0x0, symBinAddr: 0xD3FFF8, symSize: 0x14 }
  - { offset: 0x21396D, size: 0x8, addend: 0x0, symName: __ZN4onnx23BinaryLogicDocGeneratorEPKc, symObjAddr: 0x0, symBinAddr: 0xD3FFF8, symSize: 0x14 }
  - { offset: 0x21398F, size: 0x8, addend: 0x0, symName: __ZN4onnx23BinaryLogicDocGeneratorEPKc, symObjAddr: 0x0, symBinAddr: 0xD3FFF8, symSize: 0x14 }
  - { offset: 0x2139B2, size: 0x8, addend: 0x0, symName: __ZN4onnx23BinaryLogicDocGeneratorEPKc, symObjAddr: 0x0, symBinAddr: 0xD3FFF8, symSize: 0x14 }
  - { offset: 0x2139CE, size: 0x8, addend: 0x0, symName: __ZN4onnx23BinaryLogicDocGeneratorEPKc, symObjAddr: 0x0, symBinAddr: 0xD3FFF8, symSize: 0x14 }
  - { offset: 0x2139EA, size: 0x8, addend: 0x0, symName: __ZN4onnx23BinaryLogicDocGeneratorEPKc, symObjAddr: 0x0, symBinAddr: 0xD3FFF8, symSize: 0x14 }
  - { offset: 0x213A06, size: 0x8, addend: 0x0, symName: __ZN4onnx23BinaryLogicDocGeneratorEPKc, symObjAddr: 0x0, symBinAddr: 0xD3FFF8, symSize: 0x14 }
  - { offset: 0x213A22, size: 0x8, addend: 0x0, symName: __ZN4onnx23BinaryLogicDocGeneratorEPKc, symObjAddr: 0x0, symBinAddr: 0xD3FFF8, symSize: 0x14 }
  - { offset: 0x213A42, size: 0x8, addend: 0x0, symName: __ZN4onnx11GetOpSchemaINS_19BitShift_Onnx_ver11EEENS_8OpSchemaEv, symObjAddr: 0x15B8, symBinAddr: 0xD413B8, symSize: 0x454 }
  - { offset: 0x214F3A, size: 0x8, addend: 0x0, symName: __ZN4onnx11GetOpSchemaINS_13And_Onnx_ver7EEENS_8OpSchemaEv, symObjAddr: 0x14, symBinAddr: 0xD4000C, symSize: 0x240 }
  - { offset: 0x215939, size: 0x8, addend: 0x0, symName: __ZN4onnx11GetOpSchemaINS_12Or_Onnx_ver7EEENS_8OpSchemaEv, symObjAddr: 0x254, symBinAddr: 0xD4024C, symSize: 0x240 }
  - { offset: 0x216338, size: 0x8, addend: 0x0, symName: __ZN4onnx11GetOpSchemaINS_13Xor_Onnx_ver7EEENS_8OpSchemaEv, symObjAddr: 0x494, symBinAddr: 0xD4048C, symSize: 0x240 }
  - { offset: 0x216D37, size: 0x8, addend: 0x0, symName: __ZN4onnx11GetOpSchemaINS_18Greater_Onnx_ver13EEENS_8OpSchemaEv, symObjAddr: 0x6D4, symBinAddr: 0xD406CC, symSize: 0x368 }
  - { offset: 0x2180D7, size: 0x8, addend: 0x0, symName: __ZN4onnx11GetOpSchemaINS_15Less_Onnx_ver13EEENS_8OpSchemaEv, symObjAddr: 0xAAC, symBinAddr: 0xD40A34, symSize: 0x368 }
  - { offset: 0x219477, size: 0x8, addend: 0x0, symName: __ZN4onnx11GetOpSchemaINS_16Equal_Onnx_ver19EEENS_8OpSchemaEv, symObjAddr: 0xE14, symBinAddr: 0xD40D9C, symSize: 0x268 }
  - { offset: 0x219E3E, size: 0x8, addend: 0x0, symName: __ZN4onnx11GetOpSchemaINS_13Not_Onnx_ver1EEENS_8OpSchemaEv, symObjAddr: 0x107C, symBinAddr: 0xD41004, symSize: 0x2AC }
  - { offset: 0x21A923, size: 0x8, addend: 0x0, symName: __ZN4onnxL23unaryLogicalOpInferenceERNS_16InferenceContextE, symObjAddr: 0x14B0, symBinAddr: 0xD412B0, symSize: 0x108 }
  - { offset: 0x21B258, size: 0x8, addend: 0x0, symName: __ZN4onnx11GetOpSchemaINS_22LessOrEqual_Onnx_ver16EEENS_8OpSchemaEv, symObjAddr: 0x1A0C, symBinAddr: 0xD4180C, symSize: 0x3FC }
  - { offset: 0x21C8E9, size: 0x8, addend: 0x0, symName: __ZN4onnxL24binaryLogicalOpInferenceERNS_16InferenceContextE, symObjAddr: 0x1E08, symBinAddr: 0xD41C08, symSize: 0x34C }
  - { offset: 0x21DBE2, size: 0x8, addend: 0x0, symName: __ZN4onnx11GetOpSchemaINS_25GreaterOrEqual_Onnx_ver16EEENS_8OpSchemaEv, symObjAddr: 0x2154, symBinAddr: 0xD41F54, symSize: 0x3FC }
  - { offset: 0x21F1F2, size: 0x8, addend: 0x0, symName: __ZN4onnx11GetOpSchemaINS_21BitwiseNot_Onnx_ver18EEENS_8OpSchemaEv, symObjAddr: 0x2550, symBinAddr: 0xD42350, symSize: 0x2C4 }
  - { offset: 0x21FBFB, size: 0x8, addend: 0x0, symName: __ZN4onnx11GetOpSchemaINS_21BitwiseAnd_Onnx_ver18EEENS_8OpSchemaEv, symObjAddr: 0x2918, symBinAddr: 0xD42614, symSize: 0x228 }
  - { offset: 0x2205CA, size: 0x8, addend: 0x0, symName: __ZN4onnx11GetOpSchemaINS_20BitwiseOr_Onnx_ver18EEENS_8OpSchemaEv, symObjAddr: 0x2B40, symBinAddr: 0xD4283C, symSize: 0x228 }
  - { offset: 0x220F99, size: 0x8, addend: 0x0, symName: __ZN4onnx11GetOpSchemaINS_21BitwiseXor_Onnx_ver18EEENS_8OpSchemaEv, symObjAddr: 0x2D68, symBinAddr: 0xD42A64, symSize: 0x228 }
  - { offset: 0x259BC6, size: 0x8, addend: 0x0, symName: '__ZNSt3__110__function6__funcIZN4onnxL25BinaryBitwiseDocGeneratorEPKcE3$_0NS_9allocatorIS5_EEFvRNS2_8OpSchemaEEED1Ev', symObjAddr: 0x8944, symBinAddr: 0xD42C8C, symSize: 0x4 }
  - { offset: 0x259BF1, size: 0x8, addend: 0x0, symName: '__ZNSt3__110__function6__funcIZN4onnxL25BinaryBitwiseDocGeneratorEPKcE3$_0NS_9allocatorIS5_EEFvRNS2_8OpSchemaEEED0Ev', symObjAddr: 0x8948, symBinAddr: 0xD42C90, symSize: 0x4 }
  - { offset: 0x259CA6, size: 0x8, addend: 0x0, symName: '__ZNKSt3__110__function6__funcIZN4onnxL25BinaryBitwiseDocGeneratorEPKcE3$_0NS_9allocatorIS5_EEFvRNS2_8OpSchemaEEE7__cloneEv', symObjAddr: 0x894C, symBinAddr: 0xD42C94, symSize: 0x34 }
  - { offset: 0x259DED, size: 0x8, addend: 0x0, symName: '__ZNKSt3__110__function6__funcIZN4onnxL25BinaryBitwiseDocGeneratorEPKcE3$_0NS_9allocatorIS5_EEFvRNS2_8OpSchemaEEE7__cloneEPNS0_6__baseISA_EE', symObjAddr: 0x8980, symBinAddr: 0xD42CC8, symSize: 0x14 }
  - { offset: 0x259E5B, size: 0x8, addend: 0x0, symName: '__ZNSt3__110__function6__funcIZN4onnxL25BinaryBitwiseDocGeneratorEPKcE3$_0NS_9allocatorIS5_EEFvRNS2_8OpSchemaEEE7destroyEv', symObjAddr: 0x8994, symBinAddr: 0xD42CDC, symSize: 0x4 }
  - { offset: 0x259EAA, size: 0x8, addend: 0x0, symName: '__ZNSt3__110__function6__funcIZN4onnxL25BinaryBitwiseDocGeneratorEPKcE3$_0NS_9allocatorIS5_EEFvRNS2_8OpSchemaEEE18destroy_deallocateEv', symObjAddr: 0x8998, symBinAddr: 0xD42CE0, symSize: 0x4 }
  - { offset: 0x259EDD, size: 0x8, addend: 0x0, symName: '__ZNSt3__110__function6__funcIZN4onnxL25BinaryBitwiseDocGeneratorEPKcE3$_0NS_9allocatorIS5_EEFvRNS2_8OpSchemaEEE18destroy_deallocateEv', symObjAddr: 0x8998, symBinAddr: 0xD42CE0, symSize: 0x4 }
  - { offset: 0x259EFF, size: 0x8, addend: 0x0, symName: '__ZNSt3__110__function6__funcIZN4onnxL25BinaryBitwiseDocGeneratorEPKcE3$_0NS_9allocatorIS5_EEFvRNS2_8OpSchemaEEE18destroy_deallocateEv', symObjAddr: 0x8998, symBinAddr: 0xD42CE0, symSize: 0x4 }
  - { offset: 0x259F2A, size: 0x8, addend: 0x0, symName: '__ZNSt3__110__function6__funcIZN4onnxL25BinaryBitwiseDocGeneratorEPKcE3$_0NS_9allocatorIS5_EEFvRNS2_8OpSchemaEEE18destroy_deallocateEv', symObjAddr: 0x8998, symBinAddr: 0xD42CE0, symSize: 0x4 }
  - { offset: 0x259F50, size: 0x8, addend: 0x0, symName: '__ZNSt3__110__function6__funcIZN4onnxL25BinaryBitwiseDocGeneratorEPKcE3$_0NS_9allocatorIS5_EEFvRNS2_8OpSchemaEEE18destroy_deallocateEv', symObjAddr: 0x8998, symBinAddr: 0xD42CE0, symSize: 0x4 }
  - { offset: 0x25A1F4, size: 0x8, addend: 0x0, symName: '__ZNSt3__110__function6__funcIZN4onnxL25BinaryBitwiseDocGeneratorEPKcE3$_0NS_9allocatorIS5_EEFvRNS2_8OpSchemaEEEclES9_', symObjAddr: 0x899C, symBinAddr: 0xD42CE4, symSize: 0x2CC }
  - { offset: 0x25AE65, size: 0x8, addend: 0x0, symName: '__ZNSt3__110__function6__funcIZZN4onnxL25BinaryBitwiseDocGeneratorEPKcENK3$_0clERNS2_8OpSchemaEEUlRNS2_16InferenceContextEE_NS_9allocatorISA_EEFvS9_EED1Ev', symObjAddr: 0x8E50, symBinAddr: 0xD43020, symSize: 0x4 }
  - { offset: 0x25AE7B, size: 0x8, addend: 0x0, symName: '__ZNKSt3__110__function6__funcIZN4onnxL25BinaryBitwiseDocGeneratorEPKcE3$_0NS_9allocatorIS5_EEFvRNS2_8OpSchemaEEE6targetERKSt9type_info', symObjAddr: 0x8C68, symBinAddr: 0xD42FB0, symSize: 0x64 }
  - { offset: 0x25AF2E, size: 0x8, addend: 0x0, symName: '__ZNKSt3__110__function6__funcIZN4onnxL25BinaryBitwiseDocGeneratorEPKcE3$_0NS_9allocatorIS5_EEFvRNS2_8OpSchemaEEE11target_typeEv', symObjAddr: 0x8CCC, symBinAddr: 0xD43014, symSize: 0xC }
  - { offset: 0x25AFEC, size: 0x8, addend: 0x0, symName: '__ZNSt3__110__function6__funcIZZN4onnxL25BinaryBitwiseDocGeneratorEPKcENK3$_0clERNS2_8OpSchemaEEUlRNS2_16InferenceContextEE_NS_9allocatorISA_EEFvS9_EED1Ev', symObjAddr: 0x8E50, symBinAddr: 0xD43020, symSize: 0x4 }
  - { offset: 0x25B017, size: 0x8, addend: 0x0, symName: '__ZNSt3__110__function6__funcIZZN4onnxL25BinaryBitwiseDocGeneratorEPKcENK3$_0clERNS2_8OpSchemaEEUlRNS2_16InferenceContextEE_NS_9allocatorISA_EEFvS9_EED0Ev', symObjAddr: 0x8E54, symBinAddr: 0xD43024, symSize: 0x4 }
  - { offset: 0x25B0CC, size: 0x8, addend: 0x0, symName: '__ZNKSt3__110__function6__funcIZZN4onnxL25BinaryBitwiseDocGeneratorEPKcENK3$_0clERNS2_8OpSchemaEEUlRNS2_16InferenceContextEE_NS_9allocatorISA_EEFvS9_EE7__cloneEv', symObjAddr: 0x8E58, symBinAddr: 0xD43028, symSize: 0x24 }
  - { offset: 0x25B20F, size: 0x8, addend: 0x0, symName: '__ZNKSt3__110__function6__funcIZZN4onnxL25BinaryBitwiseDocGeneratorEPKcENK3$_0clERNS2_8OpSchemaEEUlRNS2_16InferenceContextEE_NS_9allocatorISA_EEFvS9_EE7__cloneEPNS0_6__baseISD_EE', symObjAddr: 0x8E7C, symBinAddr: 0xD4304C, symSize: 0x10 }
  - { offset: 0x25B243, size: 0x8, addend: 0x0, symName: '__ZNKSt3__110__function6__funcIZZN4onnxL25BinaryBitwiseDocGeneratorEPKcENK3$_0clERNS2_8OpSchemaEEUlRNS2_16InferenceContextEE_NS_9allocatorISA_EEFvS9_EE7__cloneEPNS0_6__baseISD_EE', symObjAddr: 0x8E7C, symBinAddr: 0xD4304C, symSize: 0x10 }
  - { offset: 0x25B25F, size: 0x8, addend: 0x0, symName: '__ZNKSt3__110__function6__funcIZZN4onnxL25BinaryBitwiseDocGeneratorEPKcENK3$_0clERNS2_8OpSchemaEEUlRNS2_16InferenceContextEE_NS_9allocatorISA_EEFvS9_EE7__cloneEPNS0_6__baseISD_EE', symObjAddr: 0x8E7C, symBinAddr: 0xD4304C, symSize: 0x10 }
  - { offset: 0x25B27B, size: 0x8, addend: 0x0, symName: '__ZNSt3__110__function6__funcIZZN4onnxL25BinaryBitwiseDocGeneratorEPKcENK3$_0clERNS2_8OpSchemaEEUlRNS2_16InferenceContextEE_NS_9allocatorISA_EEFvS9_EE7destroyEv', symObjAddr: 0x8E8C, symBinAddr: 0xD4305C, symSize: 0x4 }
  - { offset: 0x25B2CA, size: 0x8, addend: 0x0, symName: '__ZNSt3__110__function6__funcIZZN4onnxL25BinaryBitwiseDocGeneratorEPKcENK3$_0clERNS2_8OpSchemaEEUlRNS2_16InferenceContextEE_NS_9allocatorISA_EEFvS9_EE18destroy_deallocateEv', symObjAddr: 0x8E90, symBinAddr: 0xD43060, symSize: 0x4 }
  - { offset: 0x25B2FD, size: 0x8, addend: 0x0, symName: '__ZNSt3__110__function6__funcIZZN4onnxL25BinaryBitwiseDocGeneratorEPKcENK3$_0clERNS2_8OpSchemaEEUlRNS2_16InferenceContextEE_NS_9allocatorISA_EEFvS9_EE18destroy_deallocateEv', symObjAddr: 0x8E90, symBinAddr: 0xD43060, symSize: 0x4 }
  - { offset: 0x25B31F, size: 0x8, addend: 0x0, symName: '__ZNSt3__110__function6__funcIZZN4onnxL25BinaryBitwiseDocGeneratorEPKcENK3$_0clERNS2_8OpSchemaEEUlRNS2_16InferenceContextEE_NS_9allocatorISA_EEFvS9_EE18destroy_deallocateEv', symObjAddr: 0x8E90, symBinAddr: 0xD43060, symSize: 0x4 }
  - { offset: 0x25B34A, size: 0x8, addend: 0x0, symName: '__ZNSt3__110__function6__funcIZZN4onnxL25BinaryBitwiseDocGeneratorEPKcENK3$_0clERNS2_8OpSchemaEEUlRNS2_16InferenceContextEE_NS_9allocatorISA_EEFvS9_EE18destroy_deallocateEv', symObjAddr: 0x8E90, symBinAddr: 0xD43060, symSize: 0x4 }
  - { offset: 0x25B370, size: 0x8, addend: 0x0, symName: '__ZNSt3__110__function6__funcIZZN4onnxL25BinaryBitwiseDocGeneratorEPKcENK3$_0clERNS2_8OpSchemaEEUlRNS2_16InferenceContextEE_NS_9allocatorISA_EEFvS9_EE18destroy_deallocateEv', symObjAddr: 0x8E90, symBinAddr: 0xD43060, symSize: 0x4 }
  - { offset: 0x25B41A, size: 0x8, addend: 0x0, symName: '__ZNSt3__110__function6__funcIZZN4onnxL25BinaryBitwiseDocGeneratorEPKcENK3$_0clERNS2_8OpSchemaEEUlRNS2_16InferenceContextEE_NS_9allocatorISA_EEFvS9_EEclES9_', symObjAddr: 0x8E94, symBinAddr: 0xD43064, symSize: 0x348 }
  - { offset: 0x25C0F2, size: 0x8, addend: 0x0, symName: '__ZNKSt3__110__function6__funcIZZN4onnxL25BinaryBitwiseDocGeneratorEPKcENK3$_0clERNS2_8OpSchemaEEUlRNS2_16InferenceContextEE_NS_9allocatorISA_EEFvS9_EE6targetERKSt9type_info', symObjAddr: 0x91DC, symBinAddr: 0xD433AC, symSize: 0x64 }
  - { offset: 0x25C1A5, size: 0x8, addend: 0x0, symName: '__ZNKSt3__110__function6__funcIZZN4onnxL25BinaryBitwiseDocGeneratorEPKcENK3$_0clERNS2_8OpSchemaEEUlRNS2_16InferenceContextEE_NS_9allocatorISA_EEFvS9_EE11target_typeEv', symObjAddr: 0x9240, symBinAddr: 0xD43410, symSize: 0xC }
  - { offset: 0x25C1C8, size: 0x8, addend: 0x0, symName: '__ZNSt3__110__function6__funcIZN4onnx23BinaryLogicDocGeneratorEPKcE3$_0NS_9allocatorIS5_EEFvRNS2_8OpSchemaEEED1Ev', symObjAddr: 0x9320, symBinAddr: 0xD4341C, symSize: 0x4 }
  - { offset: 0x25C1F3, size: 0x8, addend: 0x0, symName: '__ZNSt3__110__function6__funcIZN4onnx23BinaryLogicDocGeneratorEPKcE3$_0NS_9allocatorIS5_EEFvRNS2_8OpSchemaEEED0Ev', symObjAddr: 0x9324, symBinAddr: 0xD43420, symSize: 0x4 }
  - { offset: 0x25C2A8, size: 0x8, addend: 0x0, symName: '__ZNKSt3__110__function6__funcIZN4onnx23BinaryLogicDocGeneratorEPKcE3$_0NS_9allocatorIS5_EEFvRNS2_8OpSchemaEEE7__cloneEv', symObjAddr: 0x9328, symBinAddr: 0xD43424, symSize: 0x34 }
  - { offset: 0x25C3EF, size: 0x8, addend: 0x0, symName: '__ZNKSt3__110__function6__funcIZN4onnx23BinaryLogicDocGeneratorEPKcE3$_0NS_9allocatorIS5_EEFvRNS2_8OpSchemaEEE7__cloneEPNS0_6__baseISA_EE', symObjAddr: 0x935C, symBinAddr: 0xD43458, symSize: 0x14 }
  - { offset: 0x25C45D, size: 0x8, addend: 0x0, symName: '__ZNSt3__110__function6__funcIZN4onnx23BinaryLogicDocGeneratorEPKcE3$_0NS_9allocatorIS5_EEFvRNS2_8OpSchemaEEE7destroyEv', symObjAddr: 0x9370, symBinAddr: 0xD4346C, symSize: 0x4 }
  - { offset: 0x25C4AC, size: 0x8, addend: 0x0, symName: '__ZNSt3__110__function6__funcIZN4onnx23BinaryLogicDocGeneratorEPKcE3$_0NS_9allocatorIS5_EEFvRNS2_8OpSchemaEEE18destroy_deallocateEv', symObjAddr: 0x9374, symBinAddr: 0xD43470, symSize: 0x4 }
  - { offset: 0x25C4DF, size: 0x8, addend: 0x0, symName: '__ZNSt3__110__function6__funcIZN4onnx23BinaryLogicDocGeneratorEPKcE3$_0NS_9allocatorIS5_EEFvRNS2_8OpSchemaEEE18destroy_deallocateEv', symObjAddr: 0x9374, symBinAddr: 0xD43470, symSize: 0x4 }
  - { offset: 0x25C501, size: 0x8, addend: 0x0, symName: '__ZNSt3__110__function6__funcIZN4onnx23BinaryLogicDocGeneratorEPKcE3$_0NS_9allocatorIS5_EEFvRNS2_8OpSchemaEEE18destroy_deallocateEv', symObjAddr: 0x9374, symBinAddr: 0xD43470, symSize: 0x4 }
  - { offset: 0x25C52C, size: 0x8, addend: 0x0, symName: '__ZNSt3__110__function6__funcIZN4onnx23BinaryLogicDocGeneratorEPKcE3$_0NS_9allocatorIS5_EEFvRNS2_8OpSchemaEEE18destroy_deallocateEv', symObjAddr: 0x9374, symBinAddr: 0xD43470, symSize: 0x4 }
  - { offset: 0x25C552, size: 0x8, addend: 0x0, symName: '__ZNSt3__110__function6__funcIZN4onnx23BinaryLogicDocGeneratorEPKcE3$_0NS_9allocatorIS5_EEFvRNS2_8OpSchemaEEE18destroy_deallocateEv', symObjAddr: 0x9374, symBinAddr: 0xD43470, symSize: 0x4 }
  - { offset: 0x25C606, size: 0x8, addend: 0x0, symName: '__ZNSt3__110__function6__funcIZN4onnx23BinaryLogicDocGeneratorEPKcE3$_0NS_9allocatorIS5_EEFvRNS2_8OpSchemaEEEclES9_', symObjAddr: 0x9378, symBinAddr: 0xD43474, symSize: 0x2D4 }
  - { offset: 0x25D047, size: 0x8, addend: 0x0, symName: '__ZNKSt3__110__function6__funcIZN4onnx23BinaryLogicDocGeneratorEPKcE3$_0NS_9allocatorIS5_EEFvRNS2_8OpSchemaEEE6targetERKSt9type_info', symObjAddr: 0x964C, symBinAddr: 0xD43748, symSize: 0x64 }
  - { offset: 0x25D0FA, size: 0x8, addend: 0x0, symName: '__ZNKSt3__110__function6__funcIZN4onnx23BinaryLogicDocGeneratorEPKcE3$_0NS_9allocatorIS5_EEFvRNS2_8OpSchemaEEE11target_typeEv', symObjAddr: 0x96B0, symBinAddr: 0xD437AC, symSize: 0xC }
  - { offset: 0x25D11D, size: 0x8, addend: 0x0, symName: '__ZNSt3__110__function6__funcIZN4onnx11GetOpSchemaINS2_19BitShift_Onnx_ver11EEENS2_8OpSchemaEvE3$_0NS_9allocatorIS6_EEFvRNS2_16InferenceContextEEED1Ev', symObjAddr: 0x96BC, symBinAddr: 0xD437B8, symSize: 0x4 }
  - { offset: 0x25D148, size: 0x8, addend: 0x0, symName: '__ZNSt3__110__function6__funcIZN4onnx11GetOpSchemaINS2_19BitShift_Onnx_ver11EEENS2_8OpSchemaEvE3$_0NS_9allocatorIS6_EEFvRNS2_16InferenceContextEEED0Ev', symObjAddr: 0x96C0, symBinAddr: 0xD437BC, symSize: 0x4 }
  - { offset: 0x25D1FD, size: 0x8, addend: 0x0, symName: '__ZNKSt3__110__function6__funcIZN4onnx11GetOpSchemaINS2_19BitShift_Onnx_ver11EEENS2_8OpSchemaEvE3$_0NS_9allocatorIS6_EEFvRNS2_16InferenceContextEEE7__cloneEv', symObjAddr: 0x96C4, symBinAddr: 0xD437C0, symSize: 0x24 }
  - { offset: 0x25D340, size: 0x8, addend: 0x0, symName: '__ZNKSt3__110__function6__funcIZN4onnx11GetOpSchemaINS2_19BitShift_Onnx_ver11EEENS2_8OpSchemaEvE3$_0NS_9allocatorIS6_EEFvRNS2_16InferenceContextEEE7__cloneEPNS0_6__baseISB_EE', symObjAddr: 0x96E8, symBinAddr: 0xD437E4, symSize: 0x10 }
  - { offset: 0x25D374, size: 0x8, addend: 0x0, symName: '__ZNKSt3__110__function6__funcIZN4onnx11GetOpSchemaINS2_19BitShift_Onnx_ver11EEENS2_8OpSchemaEvE3$_0NS_9allocatorIS6_EEFvRNS2_16InferenceContextEEE7__cloneEPNS0_6__baseISB_EE', symObjAddr: 0x96E8, symBinAddr: 0xD437E4, symSize: 0x10 }
  - { offset: 0x25D390, size: 0x8, addend: 0x0, symName: '__ZNKSt3__110__function6__funcIZN4onnx11GetOpSchemaINS2_19BitShift_Onnx_ver11EEENS2_8OpSchemaEvE3$_0NS_9allocatorIS6_EEFvRNS2_16InferenceContextEEE7__cloneEPNS0_6__baseISB_EE', symObjAddr: 0x96E8, symBinAddr: 0xD437E4, symSize: 0x10 }
  - { offset: 0x25D3AC, size: 0x8, addend: 0x0, symName: '__ZNSt3__110__function6__funcIZN4onnx11GetOpSchemaINS2_19BitShift_Onnx_ver11EEENS2_8OpSchemaEvE3$_0NS_9allocatorIS6_EEFvRNS2_16InferenceContextEEE7destroyEv', symObjAddr: 0x96F8, symBinAddr: 0xD437F4, symSize: 0x4 }
  - { offset: 0x25D3FB, size: 0x8, addend: 0x0, symName: '__ZNSt3__110__function6__funcIZN4onnx11GetOpSchemaINS2_19BitShift_Onnx_ver11EEENS2_8OpSchemaEvE3$_0NS_9allocatorIS6_EEFvRNS2_16InferenceContextEEE18destroy_deallocateEv', symObjAddr: 0x96FC, symBinAddr: 0xD437F8, symSize: 0x4 }
  - { offset: 0x25D42E, size: 0x8, addend: 0x0, symName: '__ZNSt3__110__function6__funcIZN4onnx11GetOpSchemaINS2_19BitShift_Onnx_ver11EEENS2_8OpSchemaEvE3$_0NS_9allocatorIS6_EEFvRNS2_16InferenceContextEEE18destroy_deallocateEv', symObjAddr: 0x96FC, symBinAddr: 0xD437F8, symSize: 0x4 }
  - { offset: 0x25D450, size: 0x8, addend: 0x0, symName: '__ZNSt3__110__function6__funcIZN4onnx11GetOpSchemaINS2_19BitShift_Onnx_ver11EEENS2_8OpSchemaEvE3$_0NS_9allocatorIS6_EEFvRNS2_16InferenceContextEEE18destroy_deallocateEv', symObjAddr: 0x96FC, symBinAddr: 0xD437F8, symSize: 0x4 }
  - { offset: 0x25D47B, size: 0x8, addend: 0x0, symName: '__ZNSt3__110__function6__funcIZN4onnx11GetOpSchemaINS2_19BitShift_Onnx_ver11EEENS2_8OpSchemaEvE3$_0NS_9allocatorIS6_EEFvRNS2_16InferenceContextEEE18destroy_deallocateEv', symObjAddr: 0x96FC, symBinAddr: 0xD437F8, symSize: 0x4 }
  - { offset: 0x25D4A1, size: 0x8, addend: 0x0, symName: '__ZNSt3__110__function6__funcIZN4onnx11GetOpSchemaINS2_19BitShift_Onnx_ver11EEENS2_8OpSchemaEvE3$_0NS_9allocatorIS6_EEFvRNS2_16InferenceContextEEE18destroy_deallocateEv', symObjAddr: 0x96FC, symBinAddr: 0xD437F8, symSize: 0x4 }
  - { offset: 0x25D54A, size: 0x8, addend: 0x0, symName: '__ZNSt3__110__function6__funcIZN4onnx11GetOpSchemaINS2_19BitShift_Onnx_ver11EEENS2_8OpSchemaEvE3$_0NS_9allocatorIS6_EEFvRNS2_16InferenceContextEEEclESA_', symObjAddr: 0x9700, symBinAddr: 0xD437FC, symSize: 0x348 }
  - { offset: 0x25E21A, size: 0x8, addend: 0x0, symName: '__ZNKSt3__110__function6__funcIZN4onnx11GetOpSchemaINS2_19BitShift_Onnx_ver11EEENS2_8OpSchemaEvE3$_0NS_9allocatorIS6_EEFvRNS2_16InferenceContextEEE6targetERKSt9type_info', symObjAddr: 0x9A48, symBinAddr: 0xD43B44, symSize: 0x64 }
  - { offset: 0x25E2CD, size: 0x8, addend: 0x0, symName: '__ZNKSt3__110__function6__funcIZN4onnx11GetOpSchemaINS2_19BitShift_Onnx_ver11EEENS2_8OpSchemaEvE3$_0NS_9allocatorIS6_EEFvRNS2_16InferenceContextEEE11target_typeEv', symObjAddr: 0x9AAC, symBinAddr: 0xD43BA8, symSize: 0xC }
  - { offset: 0x26055C, size: 0x8, addend: 0x0, symName: __ZN4onnxL20old_mvn_default_axesE, symObjAddr: 0x58A0C0, symBinAddr: 0x16A5C68, symSize: 0x0 }
  - { offset: 0x26C1CF, size: 0x8, addend: 0x0, symName: __ZN4onnx11GetOpSchemaINS_18Dropout_Onnx_ver13EEENS_8OpSchemaEv, symObjAddr: 0x1F4, symBinAddr: 0xDABDDC, symSize: 0x56C }
  - { offset: 0x26D724, size: 0x8, addend: 0x0, symName: __ZN4onnx11GetOpSchemaINS_25LpNormalization_Onnx_ver1EEENS_8OpSchemaEv, symObjAddr: 0x760, symBinAddr: 0xDAC348, symSize: 0x328 }
  - { offset: 0x26E0BE, size: 0x8, addend: 0x0, symName: __ZN4onnx11GetOpSchemaINS_31InstanceNormalization_Onnx_ver6EEENS_8OpSchemaEv, symObjAddr: 0xC10, symBinAddr: 0xDAC670, symSize: 0x350 }
  - { offset: 0x26EA99, size: 0x8, addend: 0x0, symName: __ZN4onnx11GetOpSchemaINS_21DeformConv_Onnx_ver19EEENS_8OpSchemaEv, symObjAddr: 0x1348, symBinAddr: 0xDACDA8, symSize: 0x454 }
  - { offset: 0x26F43B, size: 0x8, addend: 0x0, symName: __ZN4onnx11GetOpSchemaINS_20MaxUnpool_Onnx_ver11EEENS_8OpSchemaEv, symObjAddr: 0x1F4C, symBinAddr: 0xDAD9AC, symSize: 0x3AC }
  - { offset: 0x26FE20, size: 0x8, addend: 0x0, symName: __ZN4onnx11GetOpSchemaINS_18Dropout_Onnx_ver12EEENS_8OpSchemaEv, symObjAddr: 0x2810, symBinAddr: 0xDAE270, symSize: 0x54C }
  - { offset: 0x271397, size: 0x8, addend: 0x0, symName: __ZN4onnx11GetOpSchemaINS_18Flatten_Onnx_ver24EEENS_8OpSchemaEv, symObjAddr: 0x2D5C, symBinAddr: 0xDAE7BC, symSize: 0x3D8 }
  - { offset: 0x272756, size: 0x8, addend: 0x0, symName: __ZN4onnx11GetOpSchemaINS_18Flatten_Onnx_ver23EEENS_8OpSchemaEv, symObjAddr: 0x31A4, symBinAddr: 0xDAEB94, symSize: 0x3D8 }
  - { offset: 0x273B15, size: 0x8, addend: 0x0, symName: __ZN4onnx11GetOpSchemaINS_18Flatten_Onnx_ver21EEENS_8OpSchemaEv, symObjAddr: 0x357C, symBinAddr: 0xDAEF6C, symSize: 0x3D8 }
  - { offset: 0x274ED4, size: 0x8, addend: 0x0, symName: __ZN4onnx11GetOpSchemaINS_18Flatten_Onnx_ver13EEENS_8OpSchemaEv, symObjAddr: 0x3954, symBinAddr: 0xDAF344, symSize: 0x3D0 }
  - { offset: 0x276293, size: 0x8, addend: 0x0, symName: __ZN4onnx11GetOpSchemaINS_18Flatten_Onnx_ver11EEENS_8OpSchemaEv, symObjAddr: 0x3D24, symBinAddr: 0xDAF714, symSize: 0x3CC }
  - { offset: 0x277652, size: 0x8, addend: 0x0, symName: __ZN4onnx11GetOpSchemaINS_19MaxUnpool_Onnx_ver9EEENS_8OpSchemaEv, symObjAddr: 0x7DC0, symBinAddr: 0xDB3570, symSize: 0x3A0 }
  - { offset: 0x278037, size: 0x8, addend: 0x0, symName: __ZN4onnx11GetOpSchemaINS_28BatchNormalization_Onnx_ver9EEENS_8OpSchemaEv, symObjAddr: 0x93A0, symBinAddr: 0xDB4B08, symSize: 0x68C }
  - { offset: 0x279624, size: 0x8, addend: 0x0, symName: __ZN4onnx11GetOpSchemaINS_29BatchNormalization_Onnx_ver14EEENS_8OpSchemaEv, symObjAddr: 0x9A2C, symBinAddr: 0xDB5194, symSize: 0x698 }
  - { offset: 0x27AC30, size: 0x8, addend: 0x0, symName: __ZN4onnx11GetOpSchemaINS_18Dropout_Onnx_ver10EEENS_8OpSchemaEv, symObjAddr: 0xAE24, symBinAddr: 0xDB658C, symSize: 0x470 }
  - { offset: 0x27C15D, size: 0x8, addend: 0x0, symName: __ZN4onnx11GetOpSchemaINS_28BatchNormalization_Onnx_ver6EEENS_8OpSchemaEv, symObjAddr: 0xB294, symBinAddr: 0xDB69FC, symSize: 0x57C }
  - { offset: 0x27CFD5, size: 0x8, addend: 0x0, symName: __ZN4onnx11GetOpSchemaINS_17Flatten_Onnx_ver1EEENS_8OpSchemaEv, symObjAddr: 0xB810, symBinAddr: 0xDB6F78, symSize: 0x2E8 }
  - { offset: 0x27D9BA, size: 0x8, addend: 0x0, symName: __ZN4onnx11GetOpSchemaINS_17Flatten_Onnx_ver9EEENS_8OpSchemaEv, symObjAddr: 0xBAF8, symBinAddr: 0xDB7260, symSize: 0x3CC }
  - { offset: 0x27ED79, size: 0x8, addend: 0x0, symName: __ZN4onnx11GetOpSchemaINS_28BatchNormalization_Onnx_ver7EEENS_8OpSchemaEv, symObjAddr: 0xBEC4, symBinAddr: 0xDB762C, symSize: 0x680 }
  - { offset: 0x280727, size: 0x8, addend: 0x0, symName: __ZN4onnx11GetOpSchemaINS_29GroupNormalization_Onnx_ver18EEENS_8OpSchemaEv, symObjAddr: 0xC544, symBinAddr: 0xDB7CAC, symSize: 0x370 }
  - { offset: 0x281111, size: 0x8, addend: 0x0, symName: __ZN4onnx11GetOpSchemaINS_20Attention_Onnx_ver23EEENS_8OpSchemaEv, symObjAddr: 0xC8B4, symBinAddr: 0xDB801C, symSize: 0x98C }
  - { offset: 0x283BC2, size: 0x8, addend: 0x0, symName: __ZN4onnx11GetOpSchemaINS_22GlobalLpPool_Onnx_ver2EEENS_8OpSchemaEv, symObjAddr: 0x0, symBinAddr: 0xDABBE8, symSize: 0x1F4 }
  - { offset: 0x2845B1, size: 0x8, addend: 0x0, symName: __ZN4onnx11GetOpSchemaINS_27GlobalAveragePool_Onnx_ver1EEENS_8OpSchemaEv, symObjAddr: 0xF60, symBinAddr: 0xDAC9C0, symSize: 0x1F4 }
  - { offset: 0x284F6C, size: 0x8, addend: 0x0, symName: __ZN4onnx11GetOpSchemaINS_23GlobalMaxPool_Onnx_ver1EEENS_8OpSchemaEv, symObjAddr: 0x1154, symBinAddr: 0xDACBB4, symSize: 0x1F4 }
  - { offset: 0x285946, size: 0x8, addend: 0x0, symName: __ZN4onnx11GetOpSchemaINS_24ConvTranspose_Onnx_ver11EEENS_8OpSchemaEv, symObjAddr: 0x179C, symBinAddr: 0xDAD1FC, symSize: 0x1EC }
  - { offset: 0x286326, size: 0x8, addend: 0x0, symName: __ZN4onnx11GetOpSchemaINS_15Conv_Onnx_ver11EEENS_8OpSchemaEv, symObjAddr: 0x1988, symBinAddr: 0xDAD3E8, symSize: 0x1EC }
  - { offset: 0x286D06, size: 0x8, addend: 0x0, symName: __ZN4onnx11GetOpSchemaINS_20MaxRoiPool_Onnx_ver1EEENS_8OpSchemaEv, symObjAddr: 0x1B74, symBinAddr: 0xDAD5D4, symSize: 0x1EC }
  - { offset: 0x2876E6, size: 0x8, addend: 0x0, symName: __ZN4onnx11GetOpSchemaINS_17LpPool_Onnx_ver18EEENS_8OpSchemaEv, symObjAddr: 0x1D60, symBinAddr: 0xDAD7C0, symSize: 0x1EC }
  - { offset: 0x2880F6, size: 0x8, addend: 0x0, symName: __ZN4onnx11GetOpSchemaINS_22AveragePool_Onnx_ver19EEENS_8OpSchemaEv, symObjAddr: 0x22F8, symBinAddr: 0xDADD58, symSize: 0x25C }
  - { offset: 0x288B7F, size: 0x8, addend: 0x0, symName: __ZN4onnx11GetOpSchemaINS_18MaxPool_Onnx_ver12EEENS_8OpSchemaEv, symObjAddr: 0x2554, symBinAddr: 0xDADFB4, symSize: 0x2BC }
  - { offset: 0x289619, size: 0x8, addend: 0x0, symName: __ZN4onnx11GetOpSchemaINS_13LRN_Onnx_ver1EEENS_8OpSchemaEv, symObjAddr: 0x40F0, symBinAddr: 0xDAFAE0, symSize: 0x37C }
  - { offset: 0x28A5B2, size: 0x8, addend: 0x0, symName: __ZN4onnx11GetOpSchemaINS_35MeanVarianceNormalization_Onnx_ver9EEENS_8OpSchemaEv, symObjAddr: 0x45A4, symBinAddr: 0xDAFE5C, symSize: 0x21B8 }
  - { offset: 0x295F30, size: 0x8, addend: 0x0, symName: __ZN4onnx11GetOpSchemaINS_21AveragePool_Onnx_ver1EEENS_8OpSchemaEv, symObjAddr: 0x6AB8, symBinAddr: 0xDB2268, symSize: 0x21C }
  - { offset: 0x296958, size: 0x8, addend: 0x0, symName: __ZN4onnx11GetOpSchemaINS_21AveragePool_Onnx_ver7EEENS_8OpSchemaEv, symObjAddr: 0x6CD4, symBinAddr: 0xDB2484, symSize: 0x238 }
  - { offset: 0x297412, size: 0x8, addend: 0x0, symName: __ZN4onnx11GetOpSchemaINS_22AveragePool_Onnx_ver10EEENS_8OpSchemaEv, symObjAddr: 0x6F0C, symBinAddr: 0xDB26BC, symSize: 0x244 }
  - { offset: 0x297EEA, size: 0x8, addend: 0x0, symName: __ZN4onnx11GetOpSchemaINS_22AveragePool_Onnx_ver11EEENS_8OpSchemaEv, symObjAddr: 0x7150, symBinAddr: 0xDB2900, symSize: 0x240 }
  - { offset: 0x298973, size: 0x8, addend: 0x0, symName: __ZN4onnx11GetOpSchemaINS_17MaxPool_Onnx_ver1EEENS_8OpSchemaEv, symObjAddr: 0x7390, symBinAddr: 0xDB2B40, symSize: 0x21C }
  - { offset: 0x29939B, size: 0x8, addend: 0x0, symName: __ZN4onnx11GetOpSchemaINS_17MaxPool_Onnx_ver8EEENS_8OpSchemaEv, symObjAddr: 0x75AC, symBinAddr: 0xDB2D5C, symSize: 0x294 }
  - { offset: 0x299E17, size: 0x8, addend: 0x0, symName: __ZN4onnx11GetOpSchemaINS_18MaxPool_Onnx_ver10EEENS_8OpSchemaEv, symObjAddr: 0x7840, symBinAddr: 0xDB2FF0, symSize: 0x2C0 }
  - { offset: 0x29A8B1, size: 0x8, addend: 0x0, symName: __ZN4onnx11GetOpSchemaINS_18MaxPool_Onnx_ver11EEENS_8OpSchemaEv, symObjAddr: 0x7B00, symBinAddr: 0xDB32B0, symSize: 0x2C0 }
  - { offset: 0x29B34B, size: 0x8, addend: 0x0, symName: __ZN4onnx11GetOpSchemaINS_16LpPool_Onnx_ver1EEENS_8OpSchemaEv, symObjAddr: 0x8160, symBinAddr: 0xDB3910, symSize: 0x2FC }
  - { offset: 0x29BE54, size: 0x8, addend: 0x0, symName: __ZN4onnx11GetOpSchemaINS_16LpPool_Onnx_ver2EEENS_8OpSchemaEv, symObjAddr: 0x845C, symBinAddr: 0xDB3C0C, symSize: 0x1EC }
  - { offset: 0x29C834, size: 0x8, addend: 0x0, symName: __ZN4onnx11GetOpSchemaINS_17LpPool_Onnx_ver11EEENS_8OpSchemaEv, symObjAddr: 0x8648, symBinAddr: 0xDB3DF8, symSize: 0x1EC }
  - { offset: 0x29D214, size: 0x8, addend: 0x0, symName: __ZN4onnx11GetOpSchemaINS_14Conv_Onnx_ver1EEENS_8OpSchemaEv, symObjAddr: 0x8834, symBinAddr: 0xDB3FE4, symSize: 0x1EC }
  - { offset: 0x29DBF4, size: 0x8, addend: 0x0, symName: __ZN4onnx11GetOpSchemaINS_23ConvTranspose_Onnx_ver1EEENS_8OpSchemaEv, symObjAddr: 0x8A20, symBinAddr: 0xDB41D0, symSize: 0x1EC }
  - { offset: 0x29E5B5, size: 0x8, addend: 0x0, symName: __ZN4onnx11GetOpSchemaINS_22GlobalLpPool_Onnx_ver1EEENS_8OpSchemaEv, symObjAddr: 0x8C0C, symBinAddr: 0xDB43BC, symSize: 0x258 }
  - { offset: 0x29ED6C, size: 0x8, addend: 0x0, symName: __ZN4onnx11GetOpSchemaINS_28BatchNormalization_Onnx_ver1EEENS_8OpSchemaEv, symObjAddr: 0x8E64, symBinAddr: 0xDB4614, symSize: 0x4F4 }
  - { offset: 0x29F97F, size: 0x8, addend: 0x0, symName: __ZN4onnx11GetOpSchemaINS_31InstanceNormalization_Onnx_ver1EEENS_8OpSchemaEv, symObjAddr: 0xA0C4, symBinAddr: 0xDB582C, symSize: 0x2D8 }
  - { offset: 0x2A0136, size: 0x8, addend: 0x0, symName: __ZN4onnx11GetOpSchemaINS_17Dropout_Onnx_ver1EEENS_8OpSchemaEv, symObjAddr: 0xA39C, symBinAddr: 0xDB5B04, symSize: 0x2E0 }
  - { offset: 0x2A091F, size: 0x8, addend: 0x0, symName: __ZN4onnx11GetOpSchemaINS_17Dropout_Onnx_ver6EEENS_8OpSchemaEv, symObjAddr: 0xA67C, symBinAddr: 0xDB5DE4, symSize: 0x360 }
  - { offset: 0x2A1319, size: 0x8, addend: 0x0, symName: __ZN4onnx11GetOpSchemaINS_17Dropout_Onnx_ver7EEENS_8OpSchemaEv, symObjAddr: 0xA9DC, symBinAddr: 0xDB6144, symSize: 0x448 }
  - { offset: 0x2A33EF, size: 0x8, addend: 0x0, symName: __ZN4onnxL30convPoolShapeInference_opset19ERNS_16InferenceContextEbbii, symObjAddr: 0x14C88, symBinAddr: 0xDBBAA4, symSize: 0x16E8 }
  - { offset: 0x2AA215, size: 0x8, addend: 0x0, symName: __ZN4onnx10MakeStringIJA23_cA26_cmA12_cNSt3__112basic_stringIcNS4_11char_traitsIcEENS4_9allocatorIcEEEEA2_cEEESA_DpRKT_, symObjAddr: 0x16CBC, symBinAddr: 0xDBD18C, symSize: 0x258 }
  - { offset: 0x2AE1F5, size: 0x8, addend: 0x0, symName: __ZN4onnxL23convPoolShapeInference1ERNS_16InferenceContextEbbii, symObjAddr: 0x1AD2C, symBinAddr: 0xDBF640, symSize: 0x1600 }
  - { offset: 0x31B85C, size: 0x8, addend: 0x0, symName: '__ZNSt3__110__function6__funcIZN4onnxL37GlobalPoolingOpSchemaGenerator_opset1EPKcS4_E3$_0NS_9allocatorIS5_EEFvRNS2_8OpSchemaEEED1Ev', symObjAddr: 0x1167C, symBinAddr: 0xDB9118, symSize: 0x4 }
  - { offset: 0x31F54C, size: 0x8, addend: 0x0, symName: __ZN4onnx18FunctionBodyHelper5ConstIfEENS0_7NodeDefERKNSt3__112basic_stringIcNS3_11char_traitsIcEENS3_9allocatorIcEEEERKT_, symObjAddr: 0x675C, symBinAddr: 0xDB2014, symSize: 0x254 }
  - { offset: 0x320796, size: 0x8, addend: 0x0, symName: __ZN4onnx18FunctionBodyHelper7NodeDefC2ERKS1_, symObjAddr: 0x1A428, symBinAddr: 0xDBEF6C, symSize: 0x158 }
  - { offset: 0x32128F, size: 0x8, addend: 0x0, symName: __ZNSt3__128__exception_guard_exceptionsINS_6vectorIN4onnx18FunctionBodyHelper7NodeDefENS_9allocatorIS4_EEE16__destroy_vectorEED1B8ne190102Ev, symObjAddr: 0x1A3B8, symBinAddr: 0xDBEEFC, symSize: 0x70 }
  - { offset: 0x3212BC, size: 0x8, addend: 0x0, symName: __ZNSt3__128__exception_guard_exceptionsINS_6vectorIN4onnx18FunctionBodyHelper7NodeDefENS_9allocatorIS4_EEE16__destroy_vectorEED1B8ne190102Ev, symObjAddr: 0x1A3B8, symBinAddr: 0xDBEEFC, symSize: 0x70 }
  - { offset: 0x3216ED, size: 0x8, addend: 0x0, symName: __ZN4onnx18FunctionBodyHelper21AttributeProtoWrapperC2INS_11TensorProtoEEERKNSt3__112basic_stringIcNS4_11char_traitsIcEENS4_9allocatorIcEEEERKT_, symObjAddr: 0x25164, symBinAddr: 0xDC7898, symSize: 0xF4 }
  - { offset: 0x326732, size: 0x8, addend: 0x0, symName: '__ZNSt3__110__function6__funcIZN4onnxL39GlobalLpPoolingOpSchemaGenerator_opset2EPKcS4_E3$_0NS_9allocatorIS5_EEFvRNS2_8OpSchemaEEED1Ev', symObjAddr: 0xD838, symBinAddr: 0xDB89A8, symSize: 0x4 }
  - { offset: 0x32675D, size: 0x8, addend: 0x0, symName: '__ZNSt3__110__function6__funcIZN4onnxL39GlobalLpPoolingOpSchemaGenerator_opset2EPKcS4_E3$_0NS_9allocatorIS5_EEFvRNS2_8OpSchemaEEED0Ev', symObjAddr: 0xD83C, symBinAddr: 0xDB89AC, symSize: 0x4 }
  - { offset: 0x326961, size: 0x8, addend: 0x0, symName: '__ZNKSt3__110__function6__funcIZN4onnxL39GlobalLpPoolingOpSchemaGenerator_opset2EPKcS4_E3$_0NS_9allocatorIS5_EEFvRNS2_8OpSchemaEEE7__cloneEv', symObjAddr: 0xD840, symBinAddr: 0xDB89B0, symSize: 0x38 }
  - { offset: 0x326C80, size: 0x8, addend: 0x0, symName: '__ZNKSt3__110__function6__funcIZN4onnxL39GlobalLpPoolingOpSchemaGenerator_opset2EPKcS4_E3$_0NS_9allocatorIS5_EEFvRNS2_8OpSchemaEEE7__cloneEPNS0_6__baseISA_EE', symObjAddr: 0xD878, symBinAddr: 0xDB89E8, symSize: 0x18 }
  - { offset: 0x326CB6, size: 0x8, addend: 0x0, symName: '__ZNKSt3__110__function6__funcIZN4onnxL39GlobalLpPoolingOpSchemaGenerator_opset2EPKcS4_E3$_0NS_9allocatorIS5_EEFvRNS2_8OpSchemaEEE7__cloneEPNS0_6__baseISA_EE', symObjAddr: 0xD878, symBinAddr: 0xDB89E8, symSize: 0x18 }
  - { offset: 0x326CDB, size: 0x8, addend: 0x0, symName: '__ZNKSt3__110__function6__funcIZN4onnxL39GlobalLpPoolingOpSchemaGenerator_opset2EPKcS4_E3$_0NS_9allocatorIS5_EEFvRNS2_8OpSchemaEEE7__cloneEPNS0_6__baseISA_EE', symObjAddr: 0xD878, symBinAddr: 0xDB89E8, symSize: 0x18 }
  - { offset: 0x326DC4, size: 0x8, addend: 0x0, symName: '__ZNSt3__110__function6__funcIZN4onnxL39GlobalLpPoolingOpSchemaGenerator_opset2EPKcS4_E3$_0NS_9allocatorIS5_EEFvRNS2_8OpSchemaEEE7destroyEv', symObjAddr: 0xD890, symBinAddr: 0xDB8A00, symSize: 0x4 }
  - { offset: 0x326E13, size: 0x8, addend: 0x0, symName: '__ZNSt3__110__function6__funcIZN4onnxL39GlobalLpPoolingOpSchemaGenerator_opset2EPKcS4_E3$_0NS_9allocatorIS5_EEFvRNS2_8OpSchemaEEE18destroy_deallocateEv', symObjAddr: 0xD894, symBinAddr: 0xDB8A04, symSize: 0x4 }
  - { offset: 0x326E46, size: 0x8, addend: 0x0, symName: '__ZNSt3__110__function6__funcIZN4onnxL39GlobalLpPoolingOpSchemaGenerator_opset2EPKcS4_E3$_0NS_9allocatorIS5_EEFvRNS2_8OpSchemaEEE18destroy_deallocateEv', symObjAddr: 0xD894, symBinAddr: 0xDB8A04, symSize: 0x4 }
  - { offset: 0x326E68, size: 0x8, addend: 0x0, symName: '__ZNSt3__110__function6__funcIZN4onnxL39GlobalLpPoolingOpSchemaGenerator_opset2EPKcS4_E3$_0NS_9allocatorIS5_EEFvRNS2_8OpSchemaEEE18destroy_deallocateEv', symObjAddr: 0xD894, symBinAddr: 0xDB8A04, symSize: 0x4 }
  - { offset: 0x326E93, size: 0x8, addend: 0x0, symName: '__ZNSt3__110__function6__funcIZN4onnxL39GlobalLpPoolingOpSchemaGenerator_opset2EPKcS4_E3$_0NS_9allocatorIS5_EEFvRNS2_8OpSchemaEEE18destroy_deallocateEv', symObjAddr: 0xD894, symBinAddr: 0xDB8A04, symSize: 0x4 }
  - { offset: 0x326EB9, size: 0x8, addend: 0x0, symName: '__ZNSt3__110__function6__funcIZN4onnxL39GlobalLpPoolingOpSchemaGenerator_opset2EPKcS4_E3$_0NS_9allocatorIS5_EEFvRNS2_8OpSchemaEEE18destroy_deallocateEv', symObjAddr: 0xD894, symBinAddr: 0xDB8A04, symSize: 0x4 }
  - { offset: 0x32723D, size: 0x8, addend: 0x0, symName: '__ZNSt3__110__function6__funcIZN4onnxL39GlobalLpPoolingOpSchemaGenerator_opset2EPKcS4_E3$_0NS_9allocatorIS5_EEFvRNS2_8OpSchemaEEEclES9_', symObjAddr: 0xD898, symBinAddr: 0xDB8A08, symSize: 0x2A4 }
  - { offset: 0x327BD1, size: 0x8, addend: 0x0, symName: '__ZNKSt3__110__function6__funcIZN4onnxL39GlobalLpPoolingOpSchemaGenerator_opset2EPKcS4_E3$_0NS_9allocatorIS5_EEFvRNS2_8OpSchemaEEE6targetERKSt9type_info', symObjAddr: 0xDB3C, symBinAddr: 0xDB8CAC, symSize: 0x64 }
  - { offset: 0x327C84, size: 0x8, addend: 0x0, symName: '__ZNKSt3__110__function6__funcIZN4onnxL39GlobalLpPoolingOpSchemaGenerator_opset2EPKcS4_E3$_0NS_9allocatorIS5_EEFvRNS2_8OpSchemaEEE11target_typeEv', symObjAddr: 0xDBA0, symBinAddr: 0xDB8D10, symSize: 0xC }
  - { offset: 0x327E97, size: 0x8, addend: 0x0, symName: '__ZNSt3__110__function6__funcIZZN4onnxL39GlobalLpPoolingOpSchemaGenerator_opset2EPKcS4_ENK3$_0clERNS2_8OpSchemaEEUlRNS2_16InferenceContextEE_NS_9allocatorISA_EEFvS9_EED1Ev', symObjAddr: 0xDDAC, symBinAddr: 0xDB8D1C, symSize: 0x4 }
  - { offset: 0x327EC2, size: 0x8, addend: 0x0, symName: '__ZNSt3__110__function6__funcIZZN4onnxL39GlobalLpPoolingOpSchemaGenerator_opset2EPKcS4_ENK3$_0clERNS2_8OpSchemaEEUlRNS2_16InferenceContextEE_NS_9allocatorISA_EEFvS9_EED0Ev', symObjAddr: 0xDDB0, symBinAddr: 0xDB8D20, symSize: 0x4 }
  - { offset: 0x327F77, size: 0x8, addend: 0x0, symName: '__ZNKSt3__110__function6__funcIZZN4onnxL39GlobalLpPoolingOpSchemaGenerator_opset2EPKcS4_ENK3$_0clERNS2_8OpSchemaEEUlRNS2_16InferenceContextEE_NS_9allocatorISA_EEFvS9_EE7__cloneEv', symObjAddr: 0xDDB4, symBinAddr: 0xDB8D24, symSize: 0x24 }
  - { offset: 0x3280BA, size: 0x8, addend: 0x0, symName: '__ZNKSt3__110__function6__funcIZZN4onnxL39GlobalLpPoolingOpSchemaGenerator_opset2EPKcS4_ENK3$_0clERNS2_8OpSchemaEEUlRNS2_16InferenceContextEE_NS_9allocatorISA_EEFvS9_EE7__cloneEPNS0_6__baseISD_EE', symObjAddr: 0xDDD8, symBinAddr: 0xDB8D48, symSize: 0x10 }
  - { offset: 0x3280EE, size: 0x8, addend: 0x0, symName: '__ZNKSt3__110__function6__funcIZZN4onnxL39GlobalLpPoolingOpSchemaGenerator_opset2EPKcS4_ENK3$_0clERNS2_8OpSchemaEEUlRNS2_16InferenceContextEE_NS_9allocatorISA_EEFvS9_EE7__cloneEPNS0_6__baseISD_EE', symObjAddr: 0xDDD8, symBinAddr: 0xDB8D48, symSize: 0x10 }
  - { offset: 0x32810A, size: 0x8, addend: 0x0, symName: '__ZNKSt3__110__function6__funcIZZN4onnxL39GlobalLpPoolingOpSchemaGenerator_opset2EPKcS4_ENK3$_0clERNS2_8OpSchemaEEUlRNS2_16InferenceContextEE_NS_9allocatorISA_EEFvS9_EE7__cloneEPNS0_6__baseISD_EE', symObjAddr: 0xDDD8, symBinAddr: 0xDB8D48, symSize: 0x10 }
  - { offset: 0x328126, size: 0x8, addend: 0x0, symName: '__ZNSt3__110__function6__funcIZZN4onnxL39GlobalLpPoolingOpSchemaGenerator_opset2EPKcS4_ENK3$_0clERNS2_8OpSchemaEEUlRNS2_16InferenceContextEE_NS_9allocatorISA_EEFvS9_EE7destroyEv', symObjAddr: 0xDDE8, symBinAddr: 0xDB8D58, symSize: 0x4 }
  - { offset: 0x328175, size: 0x8, addend: 0x0, symName: '__ZNSt3__110__function6__funcIZZN4onnxL39GlobalLpPoolingOpSchemaGenerator_opset2EPKcS4_ENK3$_0clERNS2_8OpSchemaEEUlRNS2_16InferenceContextEE_NS_9allocatorISA_EEFvS9_EE18destroy_deallocateEv', symObjAddr: 0xDDEC, symBinAddr: 0xDB8D5C, symSize: 0x4 }
  - { offset: 0x3281A8, size: 0x8, addend: 0x0, symName: '__ZNSt3__110__function6__funcIZZN4onnxL39GlobalLpPoolingOpSchemaGenerator_opset2EPKcS4_ENK3$_0clERNS2_8OpSchemaEEUlRNS2_16InferenceContextEE_NS_9allocatorISA_EEFvS9_EE18destroy_deallocateEv', symObjAddr: 0xDDEC, symBinAddr: 0xDB8D5C, symSize: 0x4 }
  - { offset: 0x3281CA, size: 0x8, addend: 0x0, symName: '__ZNSt3__110__function6__funcIZZN4onnxL39GlobalLpPoolingOpSchemaGenerator_opset2EPKcS4_ENK3$_0clERNS2_8OpSchemaEEUlRNS2_16InferenceContextEE_NS_9allocatorISA_EEFvS9_EE18destroy_deallocateEv', symObjAddr: 0xDDEC, symBinAddr: 0xDB8D5C, symSize: 0x4 }
  - { offset: 0x3281F5, size: 0x8, addend: 0x0, symName: '__ZNSt3__110__function6__funcIZZN4onnxL39GlobalLpPoolingOpSchemaGenerator_opset2EPKcS4_ENK3$_0clERNS2_8OpSchemaEEUlRNS2_16InferenceContextEE_NS_9allocatorISA_EEFvS9_EE18destroy_deallocateEv', symObjAddr: 0xDDEC, symBinAddr: 0xDB8D5C, symSize: 0x4 }
  - { offset: 0x32821B, size: 0x8, addend: 0x0, symName: '__ZNSt3__110__function6__funcIZZN4onnxL39GlobalLpPoolingOpSchemaGenerator_opset2EPKcS4_ENK3$_0clERNS2_8OpSchemaEEUlRNS2_16InferenceContextEE_NS_9allocatorISA_EEFvS9_EE18destroy_deallocateEv', symObjAddr: 0xDDEC, symBinAddr: 0xDB8D5C, symSize: 0x4 }
  - { offset: 0x3286E0, size: 0x8, addend: 0x0, symName: '__ZNSt3__110__function6__funcIZZN4onnxL39GlobalLpPoolingOpSchemaGenerator_opset2EPKcS4_ENK3$_0clERNS2_8OpSchemaEEUlRNS2_16InferenceContextEE_NS_9allocatorISA_EEFvS9_EEclES9_', symObjAddr: 0xDDF0, symBinAddr: 0xDB8D60, symSize: 0x348 }
  - { offset: 0x329001, size: 0x8, addend: 0x0, symName: '__ZNKSt3__110__function6__funcIZZN4onnxL39GlobalLpPoolingOpSchemaGenerator_opset2EPKcS4_ENK3$_0clERNS2_8OpSchemaEEUlRNS2_16InferenceContextEE_NS_9allocatorISA_EEFvS9_EE6targetERKSt9type_info', symObjAddr: 0xE138, symBinAddr: 0xDB90A8, symSize: 0x64 }
  - { offset: 0x3290B4, size: 0x8, addend: 0x0, symName: '__ZNKSt3__110__function6__funcIZZN4onnxL39GlobalLpPoolingOpSchemaGenerator_opset2EPKcS4_ENK3$_0clERNS2_8OpSchemaEEUlRNS2_16InferenceContextEE_NS_9allocatorISA_EEFvS9_EE11target_typeEv', symObjAddr: 0xE19C, symBinAddr: 0xDB910C, symSize: 0xC }
  - { offset: 0x330BE7, size: 0x8, addend: 0x0, symName: '__ZNSt3__110__function6__funcIZN4onnxL37GlobalPoolingOpSchemaGenerator_opset1EPKcS4_E3$_0NS_9allocatorIS5_EEFvRNS2_8OpSchemaEEED1Ev', symObjAddr: 0x1167C, symBinAddr: 0xDB9118, symSize: 0x4 }
  - { offset: 0x330C12, size: 0x8, addend: 0x0, symName: '__ZNSt3__110__function6__funcIZN4onnxL37GlobalPoolingOpSchemaGenerator_opset1EPKcS4_E3$_0NS_9allocatorIS5_EEFvRNS2_8OpSchemaEEED0Ev', symObjAddr: 0x11680, symBinAddr: 0xDB911C, symSize: 0x4 }
  - { offset: 0x330E16, size: 0x8, addend: 0x0, symName: '__ZNKSt3__110__function6__funcIZN4onnxL37GlobalPoolingOpSchemaGenerator_opset1EPKcS4_E3$_0NS_9allocatorIS5_EEFvRNS2_8OpSchemaEEE7__cloneEv', symObjAddr: 0x11684, symBinAddr: 0xDB9120, symSize: 0x38 }
  - { offset: 0x331135, size: 0x8, addend: 0x0, symName: '__ZNKSt3__110__function6__funcIZN4onnxL37GlobalPoolingOpSchemaGenerator_opset1EPKcS4_E3$_0NS_9allocatorIS5_EEFvRNS2_8OpSchemaEEE7__cloneEPNS0_6__baseISA_EE', symObjAddr: 0x116BC, symBinAddr: 0xDB9158, symSize: 0x18 }
  - { offset: 0x33116B, size: 0x8, addend: 0x0, symName: '__ZNKSt3__110__function6__funcIZN4onnxL37GlobalPoolingOpSchemaGenerator_opset1EPKcS4_E3$_0NS_9allocatorIS5_EEFvRNS2_8OpSchemaEEE7__cloneEPNS0_6__baseISA_EE', symObjAddr: 0x116BC, symBinAddr: 0xDB9158, symSize: 0x18 }
  - { offset: 0x331190, size: 0x8, addend: 0x0, symName: '__ZNKSt3__110__function6__funcIZN4onnxL37GlobalPoolingOpSchemaGenerator_opset1EPKcS4_E3$_0NS_9allocatorIS5_EEFvRNS2_8OpSchemaEEE7__cloneEPNS0_6__baseISA_EE', symObjAddr: 0x116BC, symBinAddr: 0xDB9158, symSize: 0x18 }
  - { offset: 0x331279, size: 0x8, addend: 0x0, symName: '__ZNSt3__110__function6__funcIZN4onnxL37GlobalPoolingOpSchemaGenerator_opset1EPKcS4_E3$_0NS_9allocatorIS5_EEFvRNS2_8OpSchemaEEE7destroyEv', symObjAddr: 0x116D4, symBinAddr: 0xDB9170, symSize: 0x4 }
  - { offset: 0x3312C8, size: 0x8, addend: 0x0, symName: '__ZNSt3__110__function6__funcIZN4onnxL37GlobalPoolingOpSchemaGenerator_opset1EPKcS4_E3$_0NS_9allocatorIS5_EEFvRNS2_8OpSchemaEEE18destroy_deallocateEv', symObjAddr: 0x116D8, symBinAddr: 0xDB9174, symSize: 0x4 }
  - { offset: 0x3312FB, size: 0x8, addend: 0x0, symName: '__ZNSt3__110__function6__funcIZN4onnxL37GlobalPoolingOpSchemaGenerator_opset1EPKcS4_E3$_0NS_9allocatorIS5_EEFvRNS2_8OpSchemaEEE18destroy_deallocateEv', symObjAddr: 0x116D8, symBinAddr: 0xDB9174, symSize: 0x4 }
  - { offset: 0x33131D, size: 0x8, addend: 0x0, symName: '__ZNSt3__110__function6__funcIZN4onnxL37GlobalPoolingOpSchemaGenerator_opset1EPKcS4_E3$_0NS_9allocatorIS5_EEFvRNS2_8OpSchemaEEE18destroy_deallocateEv', symObjAddr: 0x116D8, symBinAddr: 0xDB9174, symSize: 0x4 }
  - { offset: 0x331348, size: 0x8, addend: 0x0, symName: '__ZNSt3__110__function6__funcIZN4onnxL37GlobalPoolingOpSchemaGenerator_opset1EPKcS4_E3$_0NS_9allocatorIS5_EEFvRNS2_8OpSchemaEEE18destroy_deallocateEv', symObjAddr: 0x116D8, symBinAddr: 0xDB9174, symSize: 0x4 }
  - { offset: 0x33136E, size: 0x8, addend: 0x0, symName: '__ZNSt3__110__function6__funcIZN4onnxL37GlobalPoolingOpSchemaGenerator_opset1EPKcS4_E3$_0NS_9allocatorIS5_EEFvRNS2_8OpSchemaEEE18destroy_deallocateEv', symObjAddr: 0x116D8, symBinAddr: 0xDB9174, symSize: 0x4 }
  - { offset: 0x3315CE, size: 0x8, addend: 0x0, symName: '__ZNSt3__110__function6__funcIZN4onnxL37GlobalPoolingOpSchemaGenerator_opset1EPKcS4_E3$_0NS_9allocatorIS5_EEFvRNS2_8OpSchemaEEEclES9_', symObjAddr: 0x116DC, symBinAddr: 0xDB9178, symSize: 0x26C }
  - { offset: 0x331CB5, size: 0x8, addend: 0x0, symName: '__ZNKSt3__110__function6__funcIZN4onnxL37GlobalPoolingOpSchemaGenerator_opset1EPKcS4_E3$_0NS_9allocatorIS5_EEFvRNS2_8OpSchemaEEE6targetERKSt9type_info', symObjAddr: 0x11948, symBinAddr: 0xDB93E4, symSize: 0x64 }
  - { offset: 0x331D68, size: 0x8, addend: 0x0, symName: '__ZNKSt3__110__function6__funcIZN4onnxL37GlobalPoolingOpSchemaGenerator_opset1EPKcS4_E3$_0NS_9allocatorIS5_EEFvRNS2_8OpSchemaEEE11target_typeEv', symObjAddr: 0x119AC, symBinAddr: 0xDB9448, symSize: 0xC }
  - { offset: 0x331D8B, size: 0x8, addend: 0x0, symName: '__ZNSt3__110__function6__funcIZZN4onnxL37GlobalPoolingOpSchemaGenerator_opset1EPKcS4_ENK3$_0clERNS2_8OpSchemaEEUlRNS2_16InferenceContextEE_NS_9allocatorISA_EEFvS9_EED1Ev', symObjAddr: 0x119B8, symBinAddr: 0xDB9454, symSize: 0x4 }
  - { offset: 0x331DB6, size: 0x8, addend: 0x0, symName: '__ZNSt3__110__function6__funcIZZN4onnxL37GlobalPoolingOpSchemaGenerator_opset1EPKcS4_ENK3$_0clERNS2_8OpSchemaEEUlRNS2_16InferenceContextEE_NS_9allocatorISA_EEFvS9_EED0Ev', symObjAddr: 0x119BC, symBinAddr: 0xDB9458, symSize: 0x4 }
  - { offset: 0x331E6B, size: 0x8, addend: 0x0, symName: '__ZNKSt3__110__function6__funcIZZN4onnxL37GlobalPoolingOpSchemaGenerator_opset1EPKcS4_ENK3$_0clERNS2_8OpSchemaEEUlRNS2_16InferenceContextEE_NS_9allocatorISA_EEFvS9_EE7__cloneEv', symObjAddr: 0x119C0, symBinAddr: 0xDB945C, symSize: 0x24 }
  - { offset: 0x331FAE, size: 0x8, addend: 0x0, symName: '__ZNKSt3__110__function6__funcIZZN4onnxL37GlobalPoolingOpSchemaGenerator_opset1EPKcS4_ENK3$_0clERNS2_8OpSchemaEEUlRNS2_16InferenceContextEE_NS_9allocatorISA_EEFvS9_EE7__cloneEPNS0_6__baseISD_EE', symObjAddr: 0x119E4, symBinAddr: 0xDB9480, symSize: 0x10 }
  - { offset: 0x331FE2, size: 0x8, addend: 0x0, symName: '__ZNKSt3__110__function6__funcIZZN4onnxL37GlobalPoolingOpSchemaGenerator_opset1EPKcS4_ENK3$_0clERNS2_8OpSchemaEEUlRNS2_16InferenceContextEE_NS_9allocatorISA_EEFvS9_EE7__cloneEPNS0_6__baseISD_EE', symObjAddr: 0x119E4, symBinAddr: 0xDB9480, symSize: 0x10 }
  - { offset: 0x331FFE, size: 0x8, addend: 0x0, symName: '__ZNKSt3__110__function6__funcIZZN4onnxL37GlobalPoolingOpSchemaGenerator_opset1EPKcS4_ENK3$_0clERNS2_8OpSchemaEEUlRNS2_16InferenceContextEE_NS_9allocatorISA_EEFvS9_EE7__cloneEPNS0_6__baseISD_EE', symObjAddr: 0x119E4, symBinAddr: 0xDB9480, symSize: 0x10 }
  - { offset: 0x33201A, size: 0x8, addend: 0x0, symName: '__ZNSt3__110__function6__funcIZZN4onnxL37GlobalPoolingOpSchemaGenerator_opset1EPKcS4_ENK3$_0clERNS2_8OpSchemaEEUlRNS2_16InferenceContextEE_NS_9allocatorISA_EEFvS9_EE7destroyEv', symObjAddr: 0x119F4, symBinAddr: 0xDB9490, symSize: 0x4 }
  - { offset: 0x332069, size: 0x8, addend: 0x0, symName: '__ZNSt3__110__function6__funcIZZN4onnxL37GlobalPoolingOpSchemaGenerator_opset1EPKcS4_ENK3$_0clERNS2_8OpSchemaEEUlRNS2_16InferenceContextEE_NS_9allocatorISA_EEFvS9_EE18destroy_deallocateEv', symObjAddr: 0x119F8, symBinAddr: 0xDB9494, symSize: 0x4 }
  - { offset: 0x33209C, size: 0x8, addend: 0x0, symName: '__ZNSt3__110__function6__funcIZZN4onnxL37GlobalPoolingOpSchemaGenerator_opset1EPKcS4_ENK3$_0clERNS2_8OpSchemaEEUlRNS2_16InferenceContextEE_NS_9allocatorISA_EEFvS9_EE18destroy_deallocateEv', symObjAddr: 0x119F8, symBinAddr: 0xDB9494, symSize: 0x4 }
  - { offset: 0x3320BE, size: 0x8, addend: 0x0, symName: '__ZNSt3__110__function6__funcIZZN4onnxL37GlobalPoolingOpSchemaGenerator_opset1EPKcS4_ENK3$_0clERNS2_8OpSchemaEEUlRNS2_16InferenceContextEE_NS_9allocatorISA_EEFvS9_EE18destroy_deallocateEv', symObjAddr: 0x119F8, symBinAddr: 0xDB9494, symSize: 0x4 }
  - { offset: 0x3320E9, size: 0x8, addend: 0x0, symName: '__ZNSt3__110__function6__funcIZZN4onnxL37GlobalPoolingOpSchemaGenerator_opset1EPKcS4_ENK3$_0clERNS2_8OpSchemaEEUlRNS2_16InferenceContextEE_NS_9allocatorISA_EEFvS9_EE18destroy_deallocateEv', symObjAddr: 0x119F8, symBinAddr: 0xDB9494, symSize: 0x4 }
  - { offset: 0x33210F, size: 0x8, addend: 0x0, symName: '__ZNSt3__110__function6__funcIZZN4onnxL37GlobalPoolingOpSchemaGenerator_opset1EPKcS4_ENK3$_0clERNS2_8OpSchemaEEUlRNS2_16InferenceContextEE_NS_9allocatorISA_EEFvS9_EE18destroy_deallocateEv', symObjAddr: 0x119F8, symBinAddr: 0xDB9494, symSize: 0x4 }
  - { offset: 0x3321B9, size: 0x8, addend: 0x0, symName: '__ZNSt3__110__function6__funcIZZN4onnxL37GlobalPoolingOpSchemaGenerator_opset1EPKcS4_ENK3$_0clERNS2_8OpSchemaEEUlRNS2_16InferenceContextEE_NS_9allocatorISA_EEFvS9_EEclES9_', symObjAddr: 0x119FC, symBinAddr: 0xDB9498, symSize: 0x348 }
  - { offset: 0x332AE9, size: 0x8, addend: 0x0, symName: '__ZNKSt3__110__function6__funcIZZN4onnxL37GlobalPoolingOpSchemaGenerator_opset1EPKcS4_ENK3$_0clERNS2_8OpSchemaEEUlRNS2_16InferenceContextEE_NS_9allocatorISA_EEFvS9_EE6targetERKSt9type_info', symObjAddr: 0x11D44, symBinAddr: 0xDB97E0, symSize: 0x64 }
  - { offset: 0x332B9C, size: 0x8, addend: 0x0, symName: '__ZNKSt3__110__function6__funcIZZN4onnxL37GlobalPoolingOpSchemaGenerator_opset1EPKcS4_ENK3$_0clERNS2_8OpSchemaEEUlRNS2_16InferenceContextEE_NS_9allocatorISA_EEFvS9_EE11target_typeEv', symObjAddr: 0x11DA8, symBinAddr: 0xDB9844, symSize: 0xC }
  - { offset: 0x332BBF, size: 0x8, addend: 0x0, symName: '__ZNSt3__110__function6__funcIZN4onnxL38ConvTransposeOpSchemaGenerator_opset11EPKcE3$_0NS_9allocatorIS5_EEFvRNS2_8OpSchemaEEED1Ev', symObjAddr: 0x11DB4, symBinAddr: 0xDB9850, symSize: 0x4 }
  - { offset: 0x332BEA, size: 0x8, addend: 0x0, symName: '__ZNSt3__110__function6__funcIZN4onnxL38ConvTransposeOpSchemaGenerator_opset11EPKcE3$_0NS_9allocatorIS5_EEFvRNS2_8OpSchemaEEED0Ev', symObjAddr: 0x11DB8, symBinAddr: 0xDB9854, symSize: 0x4 }
  - { offset: 0x332C9F, size: 0x8, addend: 0x0, symName: '__ZNKSt3__110__function6__funcIZN4onnxL38ConvTransposeOpSchemaGenerator_opset11EPKcE3$_0NS_9allocatorIS5_EEFvRNS2_8OpSchemaEEE7__cloneEv', symObjAddr: 0x11DBC, symBinAddr: 0xDB9858, symSize: 0x34 }
  - { offset: 0x332DE6, size: 0x8, addend: 0x0, symName: '__ZNKSt3__110__function6__funcIZN4onnxL38ConvTransposeOpSchemaGenerator_opset11EPKcE3$_0NS_9allocatorIS5_EEFvRNS2_8OpSchemaEEE7__cloneEPNS0_6__baseISA_EE', symObjAddr: 0x11DF0, symBinAddr: 0xDB988C, symSize: 0x14 }
  - { offset: 0x332E54, size: 0x8, addend: 0x0, symName: '__ZNSt3__110__function6__funcIZN4onnxL38ConvTransposeOpSchemaGenerator_opset11EPKcE3$_0NS_9allocatorIS5_EEFvRNS2_8OpSchemaEEE7destroyEv', symObjAddr: 0x11E04, symBinAddr: 0xDB98A0, symSize: 0x4 }
  - { offset: 0x332EA3, size: 0x8, addend: 0x0, symName: '__ZNSt3__110__function6__funcIZN4onnxL38ConvTransposeOpSchemaGenerator_opset11EPKcE3$_0NS_9allocatorIS5_EEFvRNS2_8OpSchemaEEE18destroy_deallocateEv', symObjAddr: 0x11E08, symBinAddr: 0xDB98A4, symSize: 0x4 }
  - { offset: 0x332ED6, size: 0x8, addend: 0x0, symName: '__ZNSt3__110__function6__funcIZN4onnxL38ConvTransposeOpSchemaGenerator_opset11EPKcE3$_0NS_9allocatorIS5_EEFvRNS2_8OpSchemaEEE18destroy_deallocateEv', symObjAddr: 0x11E08, symBinAddr: 0xDB98A4, symSize: 0x4 }
  - { offset: 0x332EF8, size: 0x8, addend: 0x0, symName: '__ZNSt3__110__function6__funcIZN4onnxL38ConvTransposeOpSchemaGenerator_opset11EPKcE3$_0NS_9allocatorIS5_EEFvRNS2_8OpSchemaEEE18destroy_deallocateEv', symObjAddr: 0x11E08, symBinAddr: 0xDB98A4, symSize: 0x4 }
  - { offset: 0x332F23, size: 0x8, addend: 0x0, symName: '__ZNSt3__110__function6__funcIZN4onnxL38ConvTransposeOpSchemaGenerator_opset11EPKcE3$_0NS_9allocatorIS5_EEFvRNS2_8OpSchemaEEE18destroy_deallocateEv', symObjAddr: 0x11E08, symBinAddr: 0xDB98A4, symSize: 0x4 }
  - { offset: 0x332F49, size: 0x8, addend: 0x0, symName: '__ZNSt3__110__function6__funcIZN4onnxL38ConvTransposeOpSchemaGenerator_opset11EPKcE3$_0NS_9allocatorIS5_EEFvRNS2_8OpSchemaEEE18destroy_deallocateEv', symObjAddr: 0x11E08, symBinAddr: 0xDB98A4, symSize: 0x4 }
  - { offset: 0x3331A9, size: 0x8, addend: 0x0, symName: '__ZNSt3__110__function6__funcIZN4onnxL38ConvTransposeOpSchemaGenerator_opset11EPKcE3$_0NS_9allocatorIS5_EEFvRNS2_8OpSchemaEEEclES9_', symObjAddr: 0x11E0C, symBinAddr: 0xDB98A8, symSize: 0x3F0 }
  - { offset: 0x333BF1, size: 0x8, addend: 0x0, symName: '__ZNKSt3__110__function6__funcIZN4onnxL38ConvTransposeOpSchemaGenerator_opset11EPKcE3$_0NS_9allocatorIS5_EEFvRNS2_8OpSchemaEEE6targetERKSt9type_info', symObjAddr: 0x121FC, symBinAddr: 0xDB9C98, symSize: 0x64 }
  - { offset: 0x333CA4, size: 0x8, addend: 0x0, symName: '__ZNKSt3__110__function6__funcIZN4onnxL38ConvTransposeOpSchemaGenerator_opset11EPKcE3$_0NS_9allocatorIS5_EEFvRNS2_8OpSchemaEEE11target_typeEv', symObjAddr: 0x12260, symBinAddr: 0xDB9CFC, symSize: 0xC }
  - { offset: 0x333CC7, size: 0x8, addend: 0x0, symName: '__ZNSt3__110__function6__funcIZZN4onnxL38ConvTransposeOpSchemaGenerator_opset11EPKcENK3$_0clERNS2_8OpSchemaEEUlRNS2_16InferenceContextEE_NS_9allocatorISA_EEFvS9_EED1Ev', symObjAddr: 0x1226C, symBinAddr: 0xDB9D08, symSize: 0x4 }
  - { offset: 0x333CF2, size: 0x8, addend: 0x0, symName: '__ZNSt3__110__function6__funcIZZN4onnxL38ConvTransposeOpSchemaGenerator_opset11EPKcENK3$_0clERNS2_8OpSchemaEEUlRNS2_16InferenceContextEE_NS_9allocatorISA_EEFvS9_EED0Ev', symObjAddr: 0x12270, symBinAddr: 0xDB9D0C, symSize: 0x4 }
  - { offset: 0x333DA7, size: 0x8, addend: 0x0, symName: '__ZNKSt3__110__function6__funcIZZN4onnxL38ConvTransposeOpSchemaGenerator_opset11EPKcENK3$_0clERNS2_8OpSchemaEEUlRNS2_16InferenceContextEE_NS_9allocatorISA_EEFvS9_EE7__cloneEv', symObjAddr: 0x12274, symBinAddr: 0xDB9D10, symSize: 0x24 }
  - { offset: 0x333EEA, size: 0x8, addend: 0x0, symName: '__ZNKSt3__110__function6__funcIZZN4onnxL38ConvTransposeOpSchemaGenerator_opset11EPKcENK3$_0clERNS2_8OpSchemaEEUlRNS2_16InferenceContextEE_NS_9allocatorISA_EEFvS9_EE7__cloneEPNS0_6__baseISD_EE', symObjAddr: 0x12298, symBinAddr: 0xDB9D34, symSize: 0x10 }
  - { offset: 0x333F1E, size: 0x8, addend: 0x0, symName: '__ZNKSt3__110__function6__funcIZZN4onnxL38ConvTransposeOpSchemaGenerator_opset11EPKcENK3$_0clERNS2_8OpSchemaEEUlRNS2_16InferenceContextEE_NS_9allocatorISA_EEFvS9_EE7__cloneEPNS0_6__baseISD_EE', symObjAddr: 0x12298, symBinAddr: 0xDB9D34, symSize: 0x10 }
  - { offset: 0x333F3A, size: 0x8, addend: 0x0, symName: '__ZNKSt3__110__function6__funcIZZN4onnxL38ConvTransposeOpSchemaGenerator_opset11EPKcENK3$_0clERNS2_8OpSchemaEEUlRNS2_16InferenceContextEE_NS_9allocatorISA_EEFvS9_EE7__cloneEPNS0_6__baseISD_EE', symObjAddr: 0x12298, symBinAddr: 0xDB9D34, symSize: 0x10 }
  - { offset: 0x333F56, size: 0x8, addend: 0x0, symName: '__ZNSt3__110__function6__funcIZZN4onnxL38ConvTransposeOpSchemaGenerator_opset11EPKcENK3$_0clERNS2_8OpSchemaEEUlRNS2_16InferenceContextEE_NS_9allocatorISA_EEFvS9_EE7destroyEv', symObjAddr: 0x122A8, symBinAddr: 0xDB9D44, symSize: 0x4 }
  - { offset: 0x333FA5, size: 0x8, addend: 0x0, symName: '__ZNSt3__110__function6__funcIZZN4onnxL38ConvTransposeOpSchemaGenerator_opset11EPKcENK3$_0clERNS2_8OpSchemaEEUlRNS2_16InferenceContextEE_NS_9allocatorISA_EEFvS9_EE18destroy_deallocateEv', symObjAddr: 0x122AC, symBinAddr: 0xDB9D48, symSize: 0x4 }
  - { offset: 0x333FD8, size: 0x8, addend: 0x0, symName: '__ZNSt3__110__function6__funcIZZN4onnxL38ConvTransposeOpSchemaGenerator_opset11EPKcENK3$_0clERNS2_8OpSchemaEEUlRNS2_16InferenceContextEE_NS_9allocatorISA_EEFvS9_EE18destroy_deallocateEv', symObjAddr: 0x122AC, symBinAddr: 0xDB9D48, symSize: 0x4 }
  - { offset: 0x333FFA, size: 0x8, addend: 0x0, symName: '__ZNSt3__110__function6__funcIZZN4onnxL38ConvTransposeOpSchemaGenerator_opset11EPKcENK3$_0clERNS2_8OpSchemaEEUlRNS2_16InferenceContextEE_NS_9allocatorISA_EEFvS9_EE18destroy_deallocateEv', symObjAddr: 0x122AC, symBinAddr: 0xDB9D48, symSize: 0x4 }
  - { offset: 0x334025, size: 0x8, addend: 0x0, symName: '__ZNSt3__110__function6__funcIZZN4onnxL38ConvTransposeOpSchemaGenerator_opset11EPKcENK3$_0clERNS2_8OpSchemaEEUlRNS2_16InferenceContextEE_NS_9allocatorISA_EEFvS9_EE18destroy_deallocateEv', symObjAddr: 0x122AC, symBinAddr: 0xDB9D48, symSize: 0x4 }
  - { offset: 0x33404B, size: 0x8, addend: 0x0, symName: '__ZNSt3__110__function6__funcIZZN4onnxL38ConvTransposeOpSchemaGenerator_opset11EPKcENK3$_0clERNS2_8OpSchemaEEUlRNS2_16InferenceContextEE_NS_9allocatorISA_EEFvS9_EE18destroy_deallocateEv', symObjAddr: 0x122AC, symBinAddr: 0xDB9D48, symSize: 0x4 }
  - { offset: 0x334A89, size: 0x8, addend: 0x0, symName: '__ZNSt3__110__function6__funcIZZN4onnxL38ConvTransposeOpSchemaGenerator_opset11EPKcENK3$_0clERNS2_8OpSchemaEEUlRNS2_16InferenceContextEE_NS_9allocatorISA_EEFvS9_EEclES9_', symObjAddr: 0x122B0, symBinAddr: 0xDB9D4C, symSize: 0x178C }
  - { offset: 0x33BC83, size: 0x8, addend: 0x0, symName: '__ZNKSt3__110__function6__funcIZZN4onnxL38ConvTransposeOpSchemaGenerator_opset11EPKcENK3$_0clERNS2_8OpSchemaEEUlRNS2_16InferenceContextEE_NS_9allocatorISA_EEFvS9_EE6targetERKSt9type_info', symObjAddr: 0x13A3C, symBinAddr: 0xDBB4D8, symSize: 0x64 }
  - { offset: 0x33BD36, size: 0x8, addend: 0x0, symName: '__ZNKSt3__110__function6__funcIZZN4onnxL38ConvTransposeOpSchemaGenerator_opset11EPKcENK3$_0clERNS2_8OpSchemaEEUlRNS2_16InferenceContextEE_NS_9allocatorISA_EEFvS9_EE11target_typeEv', symObjAddr: 0x13AA0, symBinAddr: 0xDBB53C, symSize: 0xC }
  - { offset: 0x33C761, size: 0x8, addend: 0x0, symName: '__ZNSt3__110__function6__funcIZN4onnxL29ConvOpSchemaGenerator_opset11EPKcE3$_0NS_9allocatorIS5_EEFvRNS2_8OpSchemaEEED1Ev', symObjAddr: 0x1472C, symBinAddr: 0xDBB548, symSize: 0x4 }
  - { offset: 0x33C78C, size: 0x8, addend: 0x0, symName: '__ZNSt3__110__function6__funcIZN4onnxL29ConvOpSchemaGenerator_opset11EPKcE3$_0NS_9allocatorIS5_EEFvRNS2_8OpSchemaEEED0Ev', symObjAddr: 0x14730, symBinAddr: 0xDBB54C, symSize: 0x4 }
  - { offset: 0x33C841, size: 0x8, addend: 0x0, symName: '__ZNKSt3__110__function6__funcIZN4onnxL29ConvOpSchemaGenerator_opset11EPKcE3$_0NS_9allocatorIS5_EEFvRNS2_8OpSchemaEEE7__cloneEv', symObjAddr: 0x14734, symBinAddr: 0xDBB550, symSize: 0x34 }
  - { offset: 0x33C988, size: 0x8, addend: 0x0, symName: '__ZNKSt3__110__function6__funcIZN4onnxL29ConvOpSchemaGenerator_opset11EPKcE3$_0NS_9allocatorIS5_EEFvRNS2_8OpSchemaEEE7__cloneEPNS0_6__baseISA_EE', symObjAddr: 0x14768, symBinAddr: 0xDBB584, symSize: 0x14 }
  - { offset: 0x33C9F6, size: 0x8, addend: 0x0, symName: '__ZNSt3__110__function6__funcIZN4onnxL29ConvOpSchemaGenerator_opset11EPKcE3$_0NS_9allocatorIS5_EEFvRNS2_8OpSchemaEEE7destroyEv', symObjAddr: 0x1477C, symBinAddr: 0xDBB598, symSize: 0x4 }
  - { offset: 0x33CA45, size: 0x8, addend: 0x0, symName: '__ZNSt3__110__function6__funcIZN4onnxL29ConvOpSchemaGenerator_opset11EPKcE3$_0NS_9allocatorIS5_EEFvRNS2_8OpSchemaEEE18destroy_deallocateEv', symObjAddr: 0x14780, symBinAddr: 0xDBB59C, symSize: 0x4 }
  - { offset: 0x33CA78, size: 0x8, addend: 0x0, symName: '__ZNSt3__110__function6__funcIZN4onnxL29ConvOpSchemaGenerator_opset11EPKcE3$_0NS_9allocatorIS5_EEFvRNS2_8OpSchemaEEE18destroy_deallocateEv', symObjAddr: 0x14780, symBinAddr: 0xDBB59C, symSize: 0x4 }
  - { offset: 0x33CA9A, size: 0x8, addend: 0x0, symName: '__ZNSt3__110__function6__funcIZN4onnxL29ConvOpSchemaGenerator_opset11EPKcE3$_0NS_9allocatorIS5_EEFvRNS2_8OpSchemaEEE18destroy_deallocateEv', symObjAddr: 0x14780, symBinAddr: 0xDBB59C, symSize: 0x4 }
  - { offset: 0x33CAC5, size: 0x8, addend: 0x0, symName: '__ZNSt3__110__function6__funcIZN4onnxL29ConvOpSchemaGenerator_opset11EPKcE3$_0NS_9allocatorIS5_EEFvRNS2_8OpSchemaEEE18destroy_deallocateEv', symObjAddr: 0x14780, symBinAddr: 0xDBB59C, symSize: 0x4 }
  - { offset: 0x33CAEB, size: 0x8, addend: 0x0, symName: '__ZNSt3__110__function6__funcIZN4onnxL29ConvOpSchemaGenerator_opset11EPKcE3$_0NS_9allocatorIS5_EEFvRNS2_8OpSchemaEEE18destroy_deallocateEv', symObjAddr: 0x14780, symBinAddr: 0xDBB59C, symSize: 0x4 }
  - { offset: 0x33CD4B, size: 0x8, addend: 0x0, symName: '__ZNSt3__110__function6__funcIZN4onnxL29ConvOpSchemaGenerator_opset11EPKcE3$_0NS_9allocatorIS5_EEFvRNS2_8OpSchemaEEEclES9_', symObjAddr: 0x14784, symBinAddr: 0xDBB5A0, symSize: 0x3A8 }
  - { offset: 0x33D792, size: 0x8, addend: 0x0, symName: '__ZNKSt3__110__function6__funcIZN4onnxL29ConvOpSchemaGenerator_opset11EPKcE3$_0NS_9allocatorIS5_EEFvRNS2_8OpSchemaEEE6targetERKSt9type_info', symObjAddr: 0x14B2C, symBinAddr: 0xDBB948, symSize: 0x64 }
  - { offset: 0x33D845, size: 0x8, addend: 0x0, symName: '__ZNKSt3__110__function6__funcIZN4onnxL29ConvOpSchemaGenerator_opset11EPKcE3$_0NS_9allocatorIS5_EEFvRNS2_8OpSchemaEEE11target_typeEv', symObjAddr: 0x14B90, symBinAddr: 0xDBB9AC, symSize: 0xC }
  - { offset: 0x33D868, size: 0x8, addend: 0x0, symName: '__ZNSt3__110__function6__funcIZZN4onnxL29ConvOpSchemaGenerator_opset11EPKcENK3$_0clERNS2_8OpSchemaEEUlRNS2_16InferenceContextEE_NS_9allocatorISA_EEFvS9_EED1Ev', symObjAddr: 0x14B9C, symBinAddr: 0xDBB9B8, symSize: 0x4 }
  - { offset: 0x33D893, size: 0x8, addend: 0x0, symName: '__ZNSt3__110__function6__funcIZZN4onnxL29ConvOpSchemaGenerator_opset11EPKcENK3$_0clERNS2_8OpSchemaEEUlRNS2_16InferenceContextEE_NS_9allocatorISA_EEFvS9_EED0Ev', symObjAddr: 0x14BA0, symBinAddr: 0xDBB9BC, symSize: 0x4 }
  - { offset: 0x33D948, size: 0x8, addend: 0x0, symName: '__ZNKSt3__110__function6__funcIZZN4onnxL29ConvOpSchemaGenerator_opset11EPKcENK3$_0clERNS2_8OpSchemaEEUlRNS2_16InferenceContextEE_NS_9allocatorISA_EEFvS9_EE7__cloneEv', symObjAddr: 0x14BA4, symBinAddr: 0xDBB9C0, symSize: 0x24 }
  - { offset: 0x33DA8B, size: 0x8, addend: 0x0, symName: '__ZNKSt3__110__function6__funcIZZN4onnxL29ConvOpSchemaGenerator_opset11EPKcENK3$_0clERNS2_8OpSchemaEEUlRNS2_16InferenceContextEE_NS_9allocatorISA_EEFvS9_EE7__cloneEPNS0_6__baseISD_EE', symObjAddr: 0x14BC8, symBinAddr: 0xDBB9E4, symSize: 0x10 }
  - { offset: 0x33DABF, size: 0x8, addend: 0x0, symName: '__ZNKSt3__110__function6__funcIZZN4onnxL29ConvOpSchemaGenerator_opset11EPKcENK3$_0clERNS2_8OpSchemaEEUlRNS2_16InferenceContextEE_NS_9allocatorISA_EEFvS9_EE7__cloneEPNS0_6__baseISD_EE', symObjAddr: 0x14BC8, symBinAddr: 0xDBB9E4, symSize: 0x10 }
  - { offset: 0x33DADB, size: 0x8, addend: 0x0, symName: '__ZNKSt3__110__function6__funcIZZN4onnxL29ConvOpSchemaGenerator_opset11EPKcENK3$_0clERNS2_8OpSchemaEEUlRNS2_16InferenceContextEE_NS_9allocatorISA_EEFvS9_EE7__cloneEPNS0_6__baseISD_EE', symObjAddr: 0x14BC8, symBinAddr: 0xDBB9E4, symSize: 0x10 }
  - { offset: 0x33DAF7, size: 0x8, addend: 0x0, symName: '__ZNSt3__110__function6__funcIZZN4onnxL29ConvOpSchemaGenerator_opset11EPKcENK3$_0clERNS2_8OpSchemaEEUlRNS2_16InferenceContextEE_NS_9allocatorISA_EEFvS9_EE7destroyEv', symObjAddr: 0x14BD8, symBinAddr: 0xDBB9F4, symSize: 0x4 }
  - { offset: 0x33DB46, size: 0x8, addend: 0x0, symName: '__ZNSt3__110__function6__funcIZZN4onnxL29ConvOpSchemaGenerator_opset11EPKcENK3$_0clERNS2_8OpSchemaEEUlRNS2_16InferenceContextEE_NS_9allocatorISA_EEFvS9_EE18destroy_deallocateEv', symObjAddr: 0x14BDC, symBinAddr: 0xDBB9F8, symSize: 0x4 }
  - { offset: 0x33DB79, size: 0x8, addend: 0x0, symName: '__ZNSt3__110__function6__funcIZZN4onnxL29ConvOpSchemaGenerator_opset11EPKcENK3$_0clERNS2_8OpSchemaEEUlRNS2_16InferenceContextEE_NS_9allocatorISA_EEFvS9_EE18destroy_deallocateEv', symObjAddr: 0x14BDC, symBinAddr: 0xDBB9F8, symSize: 0x4 }
  - { offset: 0x33DB9B, size: 0x8, addend: 0x0, symName: '__ZNSt3__110__function6__funcIZZN4onnxL29ConvOpSchemaGenerator_opset11EPKcENK3$_0clERNS2_8OpSchemaEEUlRNS2_16InferenceContextEE_NS_9allocatorISA_EEFvS9_EE18destroy_deallocateEv', symObjAddr: 0x14BDC, symBinAddr: 0xDBB9F8, symSize: 0x4 }
  - { offset: 0x33DBC6, size: 0x8, addend: 0x0, symName: '__ZNSt3__110__function6__funcIZZN4onnxL29ConvOpSchemaGenerator_opset11EPKcENK3$_0clERNS2_8OpSchemaEEUlRNS2_16InferenceContextEE_NS_9allocatorISA_EEFvS9_EE18destroy_deallocateEv', symObjAddr: 0x14BDC, symBinAddr: 0xDBB9F8, symSize: 0x4 }
  - { offset: 0x33DBEC, size: 0x8, addend: 0x0, symName: '__ZNSt3__110__function6__funcIZZN4onnxL29ConvOpSchemaGenerator_opset11EPKcENK3$_0clERNS2_8OpSchemaEEUlRNS2_16InferenceContextEE_NS_9allocatorISA_EEFvS9_EE18destroy_deallocateEv', symObjAddr: 0x14BDC, symBinAddr: 0xDBB9F8, symSize: 0x4 }
  - { offset: 0x33DC96, size: 0x8, addend: 0x0, symName: '__ZNSt3__110__function6__funcIZZN4onnxL29ConvOpSchemaGenerator_opset11EPKcENK3$_0clERNS2_8OpSchemaEEUlRNS2_16InferenceContextEE_NS_9allocatorISA_EEFvS9_EEclES9_', symObjAddr: 0x14BE0, symBinAddr: 0xDBB9FC, symSize: 0x38 }
  - { offset: 0x33DD7A, size: 0x8, addend: 0x0, symName: '__ZNKSt3__110__function6__funcIZZN4onnxL29ConvOpSchemaGenerator_opset11EPKcENK3$_0clERNS2_8OpSchemaEEUlRNS2_16InferenceContextEE_NS_9allocatorISA_EEFvS9_EE6targetERKSt9type_info', symObjAddr: 0x14C18, symBinAddr: 0xDBBA34, symSize: 0x64 }
  - { offset: 0x33DE2D, size: 0x8, addend: 0x0, symName: '__ZNKSt3__110__function6__funcIZZN4onnxL29ConvOpSchemaGenerator_opset11EPKcENK3$_0clERNS2_8OpSchemaEEUlRNS2_16InferenceContextEE_NS_9allocatorISA_EEFvS9_EE11target_typeEv', symObjAddr: 0x14C7C, symBinAddr: 0xDBBA98, symSize: 0xC }
  - { offset: 0x33DF87, size: 0x8, addend: 0x0, symName: '__ZNSt3__110__function6__funcIZN4onnxL31RoiPoolOpSchemaGenerator_opset1EPKcE3$_0NS_9allocatorIS5_EEFvRNS2_8OpSchemaEEED1Ev', symObjAddr: 0x17864, symBinAddr: 0xDBD3E4, symSize: 0x4 }
  - { offset: 0x33DFB2, size: 0x8, addend: 0x0, symName: '__ZNSt3__110__function6__funcIZN4onnxL31RoiPoolOpSchemaGenerator_opset1EPKcE3$_0NS_9allocatorIS5_EEFvRNS2_8OpSchemaEEED0Ev', symObjAddr: 0x17868, symBinAddr: 0xDBD3E8, symSize: 0x4 }
  - { offset: 0x33E067, size: 0x8, addend: 0x0, symName: '__ZNKSt3__110__function6__funcIZN4onnxL31RoiPoolOpSchemaGenerator_opset1EPKcE3$_0NS_9allocatorIS5_EEFvRNS2_8OpSchemaEEE7__cloneEv', symObjAddr: 0x1786C, symBinAddr: 0xDBD3EC, symSize: 0x34 }
  - { offset: 0x33E1AE, size: 0x8, addend: 0x0, symName: '__ZNKSt3__110__function6__funcIZN4onnxL31RoiPoolOpSchemaGenerator_opset1EPKcE3$_0NS_9allocatorIS5_EEFvRNS2_8OpSchemaEEE7__cloneEPNS0_6__baseISA_EE', symObjAddr: 0x178A0, symBinAddr: 0xDBD420, symSize: 0x14 }
  - { offset: 0x33E21C, size: 0x8, addend: 0x0, symName: '__ZNSt3__110__function6__funcIZN4onnxL31RoiPoolOpSchemaGenerator_opset1EPKcE3$_0NS_9allocatorIS5_EEFvRNS2_8OpSchemaEEE7destroyEv', symObjAddr: 0x178B4, symBinAddr: 0xDBD434, symSize: 0x4 }
  - { offset: 0x33E26B, size: 0x8, addend: 0x0, symName: '__ZNSt3__110__function6__funcIZN4onnxL31RoiPoolOpSchemaGenerator_opset1EPKcE3$_0NS_9allocatorIS5_EEFvRNS2_8OpSchemaEEE18destroy_deallocateEv', symObjAddr: 0x178B8, symBinAddr: 0xDBD438, symSize: 0x4 }
  - { offset: 0x33E29E, size: 0x8, addend: 0x0, symName: '__ZNSt3__110__function6__funcIZN4onnxL31RoiPoolOpSchemaGenerator_opset1EPKcE3$_0NS_9allocatorIS5_EEFvRNS2_8OpSchemaEEE18destroy_deallocateEv', symObjAddr: 0x178B8, symBinAddr: 0xDBD438, symSize: 0x4 }
  - { offset: 0x33E2C0, size: 0x8, addend: 0x0, symName: '__ZNSt3__110__function6__funcIZN4onnxL31RoiPoolOpSchemaGenerator_opset1EPKcE3$_0NS_9allocatorIS5_EEFvRNS2_8OpSchemaEEE18destroy_deallocateEv', symObjAddr: 0x178B8, symBinAddr: 0xDBD438, symSize: 0x4 }
  - { offset: 0x33E2EB, size: 0x8, addend: 0x0, symName: '__ZNSt3__110__function6__funcIZN4onnxL31RoiPoolOpSchemaGenerator_opset1EPKcE3$_0NS_9allocatorIS5_EEFvRNS2_8OpSchemaEEE18destroy_deallocateEv', symObjAddr: 0x178B8, symBinAddr: 0xDBD438, symSize: 0x4 }
  - { offset: 0x33E311, size: 0x8, addend: 0x0, symName: '__ZNSt3__110__function6__funcIZN4onnxL31RoiPoolOpSchemaGenerator_opset1EPKcE3$_0NS_9allocatorIS5_EEFvRNS2_8OpSchemaEEE18destroy_deallocateEv', symObjAddr: 0x178B8, symBinAddr: 0xDBD438, symSize: 0x4 }
  - { offset: 0x33E571, size: 0x8, addend: 0x0, symName: '__ZNSt3__110__function6__funcIZN4onnxL31RoiPoolOpSchemaGenerator_opset1EPKcE3$_0NS_9allocatorIS5_EEFvRNS2_8OpSchemaEEEclES9_', symObjAddr: 0x178BC, symBinAddr: 0xDBD43C, symSize: 0x2E8 }
  - { offset: 0x33EC44, size: 0x8, addend: 0x0, symName: '__ZNKSt3__110__function6__funcIZN4onnxL31RoiPoolOpSchemaGenerator_opset1EPKcE3$_0NS_9allocatorIS5_EEFvRNS2_8OpSchemaEEE6targetERKSt9type_info', symObjAddr: 0x17BA4, symBinAddr: 0xDBD724, symSize: 0x64 }
  - { offset: 0x33ECF7, size: 0x8, addend: 0x0, symName: '__ZNKSt3__110__function6__funcIZN4onnxL31RoiPoolOpSchemaGenerator_opset1EPKcE3$_0NS_9allocatorIS5_EEFvRNS2_8OpSchemaEEE11target_typeEv', symObjAddr: 0x17C08, symBinAddr: 0xDBD788, symSize: 0xC }
  - { offset: 0x33ED1A, size: 0x8, addend: 0x0, symName: '__ZNSt3__110__function6__funcIZZN4onnxL31RoiPoolOpSchemaGenerator_opset1EPKcENK3$_0clERNS2_8OpSchemaEEUlRNS2_16InferenceContextEE_NS_9allocatorISA_EEFvS9_EED1Ev', symObjAddr: 0x17C14, symBinAddr: 0xDBD794, symSize: 0x4 }
  - { offset: 0x33ED45, size: 0x8, addend: 0x0, symName: '__ZNSt3__110__function6__funcIZZN4onnxL31RoiPoolOpSchemaGenerator_opset1EPKcENK3$_0clERNS2_8OpSchemaEEUlRNS2_16InferenceContextEE_NS_9allocatorISA_EEFvS9_EED0Ev', symObjAddr: 0x17C18, symBinAddr: 0xDBD798, symSize: 0x4 }
  - { offset: 0x33EDFA, size: 0x8, addend: 0x0, symName: '__ZNKSt3__110__function6__funcIZZN4onnxL31RoiPoolOpSchemaGenerator_opset1EPKcENK3$_0clERNS2_8OpSchemaEEUlRNS2_16InferenceContextEE_NS_9allocatorISA_EEFvS9_EE7__cloneEv', symObjAddr: 0x17C1C, symBinAddr: 0xDBD79C, symSize: 0x24 }
  - { offset: 0x33EF3D, size: 0x8, addend: 0x0, symName: '__ZNKSt3__110__function6__funcIZZN4onnxL31RoiPoolOpSchemaGenerator_opset1EPKcENK3$_0clERNS2_8OpSchemaEEUlRNS2_16InferenceContextEE_NS_9allocatorISA_EEFvS9_EE7__cloneEPNS0_6__baseISD_EE', symObjAddr: 0x17C40, symBinAddr: 0xDBD7C0, symSize: 0x10 }
  - { offset: 0x33EF71, size: 0x8, addend: 0x0, symName: '__ZNKSt3__110__function6__funcIZZN4onnxL31RoiPoolOpSchemaGenerator_opset1EPKcENK3$_0clERNS2_8OpSchemaEEUlRNS2_16InferenceContextEE_NS_9allocatorISA_EEFvS9_EE7__cloneEPNS0_6__baseISD_EE', symObjAddr: 0x17C40, symBinAddr: 0xDBD7C0, symSize: 0x10 }
  - { offset: 0x33EF8D, size: 0x8, addend: 0x0, symName: '__ZNKSt3__110__function6__funcIZZN4onnxL31RoiPoolOpSchemaGenerator_opset1EPKcENK3$_0clERNS2_8OpSchemaEEUlRNS2_16InferenceContextEE_NS_9allocatorISA_EEFvS9_EE7__cloneEPNS0_6__baseISD_EE', symObjAddr: 0x17C40, symBinAddr: 0xDBD7C0, symSize: 0x10 }
  - { offset: 0x33EFA9, size: 0x8, addend: 0x0, symName: '__ZNSt3__110__function6__funcIZZN4onnxL31RoiPoolOpSchemaGenerator_opset1EPKcENK3$_0clERNS2_8OpSchemaEEUlRNS2_16InferenceContextEE_NS_9allocatorISA_EEFvS9_EE7destroyEv', symObjAddr: 0x17C50, symBinAddr: 0xDBD7D0, symSize: 0x4 }
  - { offset: 0x33EFF8, size: 0x8, addend: 0x0, symName: '__ZNSt3__110__function6__funcIZZN4onnxL31RoiPoolOpSchemaGenerator_opset1EPKcENK3$_0clERNS2_8OpSchemaEEUlRNS2_16InferenceContextEE_NS_9allocatorISA_EEFvS9_EE18destroy_deallocateEv', symObjAddr: 0x17C54, symBinAddr: 0xDBD7D4, symSize: 0x4 }
  - { offset: 0x33F02B, size: 0x8, addend: 0x0, symName: '__ZNSt3__110__function6__funcIZZN4onnxL31RoiPoolOpSchemaGenerator_opset1EPKcENK3$_0clERNS2_8OpSchemaEEUlRNS2_16InferenceContextEE_NS_9allocatorISA_EEFvS9_EE18destroy_deallocateEv', symObjAddr: 0x17C54, symBinAddr: 0xDBD7D4, symSize: 0x4 }
  - { offset: 0x33F04D, size: 0x8, addend: 0x0, symName: '__ZNSt3__110__function6__funcIZZN4onnxL31RoiPoolOpSchemaGenerator_opset1EPKcENK3$_0clERNS2_8OpSchemaEEUlRNS2_16InferenceContextEE_NS_9allocatorISA_EEFvS9_EE18destroy_deallocateEv', symObjAddr: 0x17C54, symBinAddr: 0xDBD7D4, symSize: 0x4 }
  - { offset: 0x33F078, size: 0x8, addend: 0x0, symName: '__ZNSt3__110__function6__funcIZZN4onnxL31RoiPoolOpSchemaGenerator_opset1EPKcENK3$_0clERNS2_8OpSchemaEEUlRNS2_16InferenceContextEE_NS_9allocatorISA_EEFvS9_EE18destroy_deallocateEv', symObjAddr: 0x17C54, symBinAddr: 0xDBD7D4, symSize: 0x4 }
  - { offset: 0x33F09E, size: 0x8, addend: 0x0, symName: '__ZNSt3__110__function6__funcIZZN4onnxL31RoiPoolOpSchemaGenerator_opset1EPKcENK3$_0clERNS2_8OpSchemaEEUlRNS2_16InferenceContextEE_NS_9allocatorISA_EEFvS9_EE18destroy_deallocateEv', symObjAddr: 0x17C54, symBinAddr: 0xDBD7D4, symSize: 0x4 }
  - { offset: 0x33F148, size: 0x8, addend: 0x0, symName: '__ZNSt3__110__function6__funcIZZN4onnxL31RoiPoolOpSchemaGenerator_opset1EPKcENK3$_0clERNS2_8OpSchemaEEUlRNS2_16InferenceContextEE_NS_9allocatorISA_EEFvS9_EEclES9_', symObjAddr: 0x17C58, symBinAddr: 0xDBD7D8, symSize: 0x85C }
  - { offset: 0x340D32, size: 0x8, addend: 0x0, symName: '__ZNKSt3__110__function6__funcIZZN4onnxL31RoiPoolOpSchemaGenerator_opset1EPKcENK3$_0clERNS2_8OpSchemaEEUlRNS2_16InferenceContextEE_NS_9allocatorISA_EEFvS9_EE6targetERKSt9type_info', symObjAddr: 0x184B4, symBinAddr: 0xDBE034, symSize: 0x64 }
  - { offset: 0x340DE5, size: 0x8, addend: 0x0, symName: '__ZNKSt3__110__function6__funcIZZN4onnxL31RoiPoolOpSchemaGenerator_opset1EPKcENK3$_0clERNS2_8OpSchemaEEUlRNS2_16InferenceContextEE_NS_9allocatorISA_EEFvS9_EE11target_typeEv', symObjAddr: 0x18518, symBinAddr: 0xDBE098, symSize: 0xC }
  - { offset: 0x340E3A, size: 0x8, addend: 0x0, symName: '__ZNSt3__110__function6__funcIZN4onnxL31LpPoolOpSchemaGenerator_opset18EPKcE3$_0NS_9allocatorIS5_EEFvRNS2_8OpSchemaEEED1Ev', symObjAddr: 0x188DC, symBinAddr: 0xDBE0A4, symSize: 0x4 }
  - { offset: 0x340E65, size: 0x8, addend: 0x0, symName: '__ZNSt3__110__function6__funcIZN4onnxL31LpPoolOpSchemaGenerator_opset18EPKcE3$_0NS_9allocatorIS5_EEFvRNS2_8OpSchemaEEED0Ev', symObjAddr: 0x188E0, symBinAddr: 0xDBE0A8, symSize: 0x4 }
  - { offset: 0x340F1A, size: 0x8, addend: 0x0, symName: '__ZNKSt3__110__function6__funcIZN4onnxL31LpPoolOpSchemaGenerator_opset18EPKcE3$_0NS_9allocatorIS5_EEFvRNS2_8OpSchemaEEE7__cloneEv', symObjAddr: 0x188E4, symBinAddr: 0xDBE0AC, symSize: 0x34 }
  - { offset: 0x341061, size: 0x8, addend: 0x0, symName: '__ZNKSt3__110__function6__funcIZN4onnxL31LpPoolOpSchemaGenerator_opset18EPKcE3$_0NS_9allocatorIS5_EEFvRNS2_8OpSchemaEEE7__cloneEPNS0_6__baseISA_EE', symObjAddr: 0x18918, symBinAddr: 0xDBE0E0, symSize: 0x14 }
  - { offset: 0x3410CF, size: 0x8, addend: 0x0, symName: '__ZNSt3__110__function6__funcIZN4onnxL31LpPoolOpSchemaGenerator_opset18EPKcE3$_0NS_9allocatorIS5_EEFvRNS2_8OpSchemaEEE7destroyEv', symObjAddr: 0x1892C, symBinAddr: 0xDBE0F4, symSize: 0x4 }
  - { offset: 0x34111E, size: 0x8, addend: 0x0, symName: '__ZNSt3__110__function6__funcIZN4onnxL31LpPoolOpSchemaGenerator_opset18EPKcE3$_0NS_9allocatorIS5_EEFvRNS2_8OpSchemaEEE18destroy_deallocateEv', symObjAddr: 0x18930, symBinAddr: 0xDBE0F8, symSize: 0x4 }
  - { offset: 0x341151, size: 0x8, addend: 0x0, symName: '__ZNSt3__110__function6__funcIZN4onnxL31LpPoolOpSchemaGenerator_opset18EPKcE3$_0NS_9allocatorIS5_EEFvRNS2_8OpSchemaEEE18destroy_deallocateEv', symObjAddr: 0x18930, symBinAddr: 0xDBE0F8, symSize: 0x4 }
  - { offset: 0x341173, size: 0x8, addend: 0x0, symName: '__ZNSt3__110__function6__funcIZN4onnxL31LpPoolOpSchemaGenerator_opset18EPKcE3$_0NS_9allocatorIS5_EEFvRNS2_8OpSchemaEEE18destroy_deallocateEv', symObjAddr: 0x18930, symBinAddr: 0xDBE0F8, symSize: 0x4 }
  - { offset: 0x34119E, size: 0x8, addend: 0x0, symName: '__ZNSt3__110__function6__funcIZN4onnxL31LpPoolOpSchemaGenerator_opset18EPKcE3$_0NS_9allocatorIS5_EEFvRNS2_8OpSchemaEEE18destroy_deallocateEv', symObjAddr: 0x18930, symBinAddr: 0xDBE0F8, symSize: 0x4 }
  - { offset: 0x3411C4, size: 0x8, addend: 0x0, symName: '__ZNSt3__110__function6__funcIZN4onnxL31LpPoolOpSchemaGenerator_opset18EPKcE3$_0NS_9allocatorIS5_EEFvRNS2_8OpSchemaEEE18destroy_deallocateEv', symObjAddr: 0x18930, symBinAddr: 0xDBE0F8, symSize: 0x4 }
  - { offset: 0x341424, size: 0x8, addend: 0x0, symName: '__ZNSt3__110__function6__funcIZN4onnxL31LpPoolOpSchemaGenerator_opset18EPKcE3$_0NS_9allocatorIS5_EEFvRNS2_8OpSchemaEEEclES9_', symObjAddr: 0x18934, symBinAddr: 0xDBE0FC, symSize: 0x370 }
  - { offset: 0x341E6C, size: 0x8, addend: 0x0, symName: '__ZNKSt3__110__function6__funcIZN4onnxL31LpPoolOpSchemaGenerator_opset18EPKcE3$_0NS_9allocatorIS5_EEFvRNS2_8OpSchemaEEE6targetERKSt9type_info', symObjAddr: 0x18CA4, symBinAddr: 0xDBE46C, symSize: 0x64 }
  - { offset: 0x341F1F, size: 0x8, addend: 0x0, symName: '__ZNKSt3__110__function6__funcIZN4onnxL31LpPoolOpSchemaGenerator_opset18EPKcE3$_0NS_9allocatorIS5_EEFvRNS2_8OpSchemaEEE11target_typeEv', symObjAddr: 0x18D08, symBinAddr: 0xDBE4D0, symSize: 0xC }
  - { offset: 0x341F42, size: 0x8, addend: 0x0, symName: '__ZNSt3__110__function6__funcIZZN4onnxL31LpPoolOpSchemaGenerator_opset18EPKcENK3$_0clERNS2_8OpSchemaEEUlRNS2_16InferenceContextEE_NS_9allocatorISA_EEFvS9_EED1Ev', symObjAddr: 0x18D14, symBinAddr: 0xDBE4DC, symSize: 0x4 }
  - { offset: 0x341F6D, size: 0x8, addend: 0x0, symName: '__ZNSt3__110__function6__funcIZZN4onnxL31LpPoolOpSchemaGenerator_opset18EPKcENK3$_0clERNS2_8OpSchemaEEUlRNS2_16InferenceContextEE_NS_9allocatorISA_EEFvS9_EED0Ev', symObjAddr: 0x18D18, symBinAddr: 0xDBE4E0, symSize: 0x4 }
  - { offset: 0x342022, size: 0x8, addend: 0x0, symName: '__ZNKSt3__110__function6__funcIZZN4onnxL31LpPoolOpSchemaGenerator_opset18EPKcENK3$_0clERNS2_8OpSchemaEEUlRNS2_16InferenceContextEE_NS_9allocatorISA_EEFvS9_EE7__cloneEv', symObjAddr: 0x18D1C, symBinAddr: 0xDBE4E4, symSize: 0x24 }
  - { offset: 0x342165, size: 0x8, addend: 0x0, symName: '__ZNKSt3__110__function6__funcIZZN4onnxL31LpPoolOpSchemaGenerator_opset18EPKcENK3$_0clERNS2_8OpSchemaEEUlRNS2_16InferenceContextEE_NS_9allocatorISA_EEFvS9_EE7__cloneEPNS0_6__baseISD_EE', symObjAddr: 0x18D40, symBinAddr: 0xDBE508, symSize: 0x10 }
  - { offset: 0x342199, size: 0x8, addend: 0x0, symName: '__ZNKSt3__110__function6__funcIZZN4onnxL31LpPoolOpSchemaGenerator_opset18EPKcENK3$_0clERNS2_8OpSchemaEEUlRNS2_16InferenceContextEE_NS_9allocatorISA_EEFvS9_EE7__cloneEPNS0_6__baseISD_EE', symObjAddr: 0x18D40, symBinAddr: 0xDBE508, symSize: 0x10 }
  - { offset: 0x3421B5, size: 0x8, addend: 0x0, symName: '__ZNKSt3__110__function6__funcIZZN4onnxL31LpPoolOpSchemaGenerator_opset18EPKcENK3$_0clERNS2_8OpSchemaEEUlRNS2_16InferenceContextEE_NS_9allocatorISA_EEFvS9_EE7__cloneEPNS0_6__baseISD_EE', symObjAddr: 0x18D40, symBinAddr: 0xDBE508, symSize: 0x10 }
  - { offset: 0x3421D1, size: 0x8, addend: 0x0, symName: '__ZNSt3__110__function6__funcIZZN4onnxL31LpPoolOpSchemaGenerator_opset18EPKcENK3$_0clERNS2_8OpSchemaEEUlRNS2_16InferenceContextEE_NS_9allocatorISA_EEFvS9_EE7destroyEv', symObjAddr: 0x18D50, symBinAddr: 0xDBE518, symSize: 0x4 }
  - { offset: 0x342220, size: 0x8, addend: 0x0, symName: '__ZNSt3__110__function6__funcIZZN4onnxL31LpPoolOpSchemaGenerator_opset18EPKcENK3$_0clERNS2_8OpSchemaEEUlRNS2_16InferenceContextEE_NS_9allocatorISA_EEFvS9_EE18destroy_deallocateEv', symObjAddr: 0x18D54, symBinAddr: 0xDBE51C, symSize: 0x4 }
  - { offset: 0x342253, size: 0x8, addend: 0x0, symName: '__ZNSt3__110__function6__funcIZZN4onnxL31LpPoolOpSchemaGenerator_opset18EPKcENK3$_0clERNS2_8OpSchemaEEUlRNS2_16InferenceContextEE_NS_9allocatorISA_EEFvS9_EE18destroy_deallocateEv', symObjAddr: 0x18D54, symBinAddr: 0xDBE51C, symSize: 0x4 }
  - { offset: 0x342275, size: 0x8, addend: 0x0, symName: '__ZNSt3__110__function6__funcIZZN4onnxL31LpPoolOpSchemaGenerator_opset18EPKcENK3$_0clERNS2_8OpSchemaEEUlRNS2_16InferenceContextEE_NS_9allocatorISA_EEFvS9_EE18destroy_deallocateEv', symObjAddr: 0x18D54, symBinAddr: 0xDBE51C, symSize: 0x4 }
  - { offset: 0x3422A0, size: 0x8, addend: 0x0, symName: '__ZNSt3__110__function6__funcIZZN4onnxL31LpPoolOpSchemaGenerator_opset18EPKcENK3$_0clERNS2_8OpSchemaEEUlRNS2_16InferenceContextEE_NS_9allocatorISA_EEFvS9_EE18destroy_deallocateEv', symObjAddr: 0x18D54, symBinAddr: 0xDBE51C, symSize: 0x4 }
  - { offset: 0x3422C6, size: 0x8, addend: 0x0, symName: '__ZNSt3__110__function6__funcIZZN4onnxL31LpPoolOpSchemaGenerator_opset18EPKcENK3$_0clERNS2_8OpSchemaEEUlRNS2_16InferenceContextEE_NS_9allocatorISA_EEFvS9_EE18destroy_deallocateEv', symObjAddr: 0x18D54, symBinAddr: 0xDBE51C, symSize: 0x4 }
  - { offset: 0x342370, size: 0x8, addend: 0x0, symName: '__ZNSt3__110__function6__funcIZZN4onnxL31LpPoolOpSchemaGenerator_opset18EPKcENK3$_0clERNS2_8OpSchemaEEUlRNS2_16InferenceContextEE_NS_9allocatorISA_EEFvS9_EEclES9_', symObjAddr: 0x18D58, symBinAddr: 0xDBE520, symSize: 0x38 }
  - { offset: 0x342454, size: 0x8, addend: 0x0, symName: '__ZNKSt3__110__function6__funcIZZN4onnxL31LpPoolOpSchemaGenerator_opset18EPKcENK3$_0clERNS2_8OpSchemaEEUlRNS2_16InferenceContextEE_NS_9allocatorISA_EEFvS9_EE6targetERKSt9type_info', symObjAddr: 0x18D90, symBinAddr: 0xDBE558, symSize: 0x64 }
  - { offset: 0x342507, size: 0x8, addend: 0x0, symName: '__ZNKSt3__110__function6__funcIZZN4onnxL31LpPoolOpSchemaGenerator_opset18EPKcENK3$_0clERNS2_8OpSchemaEEUlRNS2_16InferenceContextEE_NS_9allocatorISA_EEFvS9_EE11target_typeEv', symObjAddr: 0x18DF4, symBinAddr: 0xDBE5BC, symSize: 0xC }
  - { offset: 0x34252A, size: 0x8, addend: 0x0, symName: '__ZNSt3__110__function6__funcIZN4onnxL29PoolOpSchemaGenerator_opset19EPKcS4_S4_bbE3$_0NS_9allocatorIS5_EEFvRNS2_8OpSchemaEEED1Ev', symObjAddr: 0x18E00, symBinAddr: 0xDBE5C8, symSize: 0x4 }
  - { offset: 0x342555, size: 0x8, addend: 0x0, symName: '__ZNSt3__110__function6__funcIZN4onnxL29PoolOpSchemaGenerator_opset19EPKcS4_S4_bbE3$_0NS_9allocatorIS5_EEFvRNS2_8OpSchemaEEED0Ev', symObjAddr: 0x18E04, symBinAddr: 0xDBE5CC, symSize: 0x4 }
  - { offset: 0x342733, size: 0x8, addend: 0x0, symName: '__ZNKSt3__110__function6__funcIZN4onnxL29PoolOpSchemaGenerator_opset19EPKcS4_S4_bbE3$_0NS_9allocatorIS5_EEFvRNS2_8OpSchemaEEE7__cloneEv', symObjAddr: 0x18E08, symBinAddr: 0xDBE5D0, symSize: 0x40 }
  - { offset: 0x342A52, size: 0x8, addend: 0x0, symName: '__ZNKSt3__110__function6__funcIZN4onnxL29PoolOpSchemaGenerator_opset19EPKcS4_S4_bbE3$_0NS_9allocatorIS5_EEFvRNS2_8OpSchemaEEE7__cloneEPNS0_6__baseISA_EE', symObjAddr: 0x18E48, symBinAddr: 0xDBE610, symSize: 0x20 }
  - { offset: 0x342A88, size: 0x8, addend: 0x0, symName: '__ZNKSt3__110__function6__funcIZN4onnxL29PoolOpSchemaGenerator_opset19EPKcS4_S4_bbE3$_0NS_9allocatorIS5_EEFvRNS2_8OpSchemaEEE7__cloneEPNS0_6__baseISA_EE', symObjAddr: 0x18E48, symBinAddr: 0xDBE610, symSize: 0x20 }
  - { offset: 0x342AAD, size: 0x8, addend: 0x0, symName: '__ZNKSt3__110__function6__funcIZN4onnxL29PoolOpSchemaGenerator_opset19EPKcS4_S4_bbE3$_0NS_9allocatorIS5_EEFvRNS2_8OpSchemaEEE7__cloneEPNS0_6__baseISA_EE', symObjAddr: 0x18E48, symBinAddr: 0xDBE610, symSize: 0x20 }
  - { offset: 0x342B96, size: 0x8, addend: 0x0, symName: '__ZNSt3__110__function6__funcIZN4onnxL29PoolOpSchemaGenerator_opset19EPKcS4_S4_bbE3$_0NS_9allocatorIS5_EEFvRNS2_8OpSchemaEEE7destroyEv', symObjAddr: 0x18E68, symBinAddr: 0xDBE630, symSize: 0x4 }
  - { offset: 0x342BE5, size: 0x8, addend: 0x0, symName: '__ZNSt3__110__function6__funcIZN4onnxL29PoolOpSchemaGenerator_opset19EPKcS4_S4_bbE3$_0NS_9allocatorIS5_EEFvRNS2_8OpSchemaEEE18destroy_deallocateEv', symObjAddr: 0x18E6C, symBinAddr: 0xDBE634, symSize: 0x4 }
  - { offset: 0x342C18, size: 0x8, addend: 0x0, symName: '__ZNSt3__110__function6__funcIZN4onnxL29PoolOpSchemaGenerator_opset19EPKcS4_S4_bbE3$_0NS_9allocatorIS5_EEFvRNS2_8OpSchemaEEE18destroy_deallocateEv', symObjAddr: 0x18E6C, symBinAddr: 0xDBE634, symSize: 0x4 }
  - { offset: 0x342C3A, size: 0x8, addend: 0x0, symName: '__ZNSt3__110__function6__funcIZN4onnxL29PoolOpSchemaGenerator_opset19EPKcS4_S4_bbE3$_0NS_9allocatorIS5_EEFvRNS2_8OpSchemaEEE18destroy_deallocateEv', symObjAddr: 0x18E6C, symBinAddr: 0xDBE634, symSize: 0x4 }
  - { offset: 0x342C66, size: 0x8, addend: 0x0, symName: '__ZNSt3__110__function6__funcIZN4onnxL29PoolOpSchemaGenerator_opset19EPKcS4_S4_bbE3$_0NS_9allocatorIS5_EEFvRNS2_8OpSchemaEEE18destroy_deallocateEv', symObjAddr: 0x18E6C, symBinAddr: 0xDBE634, symSize: 0x4 }
  - { offset: 0x342C8D, size: 0x8, addend: 0x0, symName: '__ZNSt3__110__function6__funcIZN4onnxL29PoolOpSchemaGenerator_opset19EPKcS4_S4_bbE3$_0NS_9allocatorIS5_EEFvRNS2_8OpSchemaEEE18destroy_deallocateEv', symObjAddr: 0x18E6C, symBinAddr: 0xDBE634, symSize: 0x4 }
  - { offset: 0x34303C, size: 0x8, addend: 0x0, symName: '__ZNSt3__110__function6__funcIZN4onnxL29PoolOpSchemaGenerator_opset19EPKcS4_S4_bbE3$_0NS_9allocatorIS5_EEFvRNS2_8OpSchemaEEEclES9_', symObjAddr: 0x18E70, symBinAddr: 0xDBE638, symSize: 0x6B8 }
  - { offset: 0x344E66, size: 0x8, addend: 0x0, symName: '__ZNKSt3__110__function6__funcIZN4onnxL29PoolOpSchemaGenerator_opset19EPKcS4_S4_bbE3$_0NS_9allocatorIS5_EEFvRNS2_8OpSchemaEEE6targetERKSt9type_info', symObjAddr: 0x19528, symBinAddr: 0xDBECF0, symSize: 0x64 }
  - { offset: 0x344F19, size: 0x8, addend: 0x0, symName: '__ZNKSt3__110__function6__funcIZN4onnxL29PoolOpSchemaGenerator_opset19EPKcS4_S4_bbE3$_0NS_9allocatorIS5_EEFvRNS2_8OpSchemaEEE11target_typeEv', symObjAddr: 0x1958C, symBinAddr: 0xDBED54, symSize: 0xC }
  - { offset: 0x344F3C, size: 0x8, addend: 0x0, symName: '__ZNSt3__110__function6__funcIZZN4onnxL29PoolOpSchemaGenerator_opset19EPKcS4_S4_bbENK3$_0clERNS2_8OpSchemaEEUlRNS2_16InferenceContextEE_NS_9allocatorISA_EEFvS9_EED1Ev', symObjAddr: 0x19598, symBinAddr: 0xDBED60, symSize: 0x4 }
  - { offset: 0x344F67, size: 0x8, addend: 0x0, symName: '__ZNSt3__110__function6__funcIZZN4onnxL29PoolOpSchemaGenerator_opset19EPKcS4_S4_bbENK3$_0clERNS2_8OpSchemaEEUlRNS2_16InferenceContextEE_NS_9allocatorISA_EEFvS9_EED0Ev', symObjAddr: 0x1959C, symBinAddr: 0xDBED64, symSize: 0x4 }
  - { offset: 0x34516B, size: 0x8, addend: 0x0, symName: '__ZNKSt3__110__function6__funcIZZN4onnxL29PoolOpSchemaGenerator_opset19EPKcS4_S4_bbENK3$_0clERNS2_8OpSchemaEEUlRNS2_16InferenceContextEE_NS_9allocatorISA_EEFvS9_EE7__cloneEv', symObjAddr: 0x195A0, symBinAddr: 0xDBED68, symSize: 0x38 }
  - { offset: 0x34544B, size: 0x8, addend: 0x0, symName: '__ZNKSt3__110__function6__funcIZZN4onnxL29PoolOpSchemaGenerator_opset19EPKcS4_S4_bbENK3$_0clERNS2_8OpSchemaEEUlRNS2_16InferenceContextEE_NS_9allocatorISA_EEFvS9_EE7__cloneEPNS0_6__baseISD_EE', symObjAddr: 0x195D8, symBinAddr: 0xDBEDA0, symSize: 0x18 }
  - { offset: 0x345550, size: 0x8, addend: 0x0, symName: '__ZNSt3__110__function6__funcIZZN4onnxL29PoolOpSchemaGenerator_opset19EPKcS4_S4_bbENK3$_0clERNS2_8OpSchemaEEUlRNS2_16InferenceContextEE_NS_9allocatorISA_EEFvS9_EE7destroyEv', symObjAddr: 0x195F0, symBinAddr: 0xDBEDB8, symSize: 0x4 }
  - { offset: 0x34559F, size: 0x8, addend: 0x0, symName: '__ZNSt3__110__function6__funcIZZN4onnxL29PoolOpSchemaGenerator_opset19EPKcS4_S4_bbENK3$_0clERNS2_8OpSchemaEEUlRNS2_16InferenceContextEE_NS_9allocatorISA_EEFvS9_EE18destroy_deallocateEv', symObjAddr: 0x195F4, symBinAddr: 0xDBEDBC, symSize: 0x4 }
  - { offset: 0x3455D2, size: 0x8, addend: 0x0, symName: '__ZNSt3__110__function6__funcIZZN4onnxL29PoolOpSchemaGenerator_opset19EPKcS4_S4_bbENK3$_0clERNS2_8OpSchemaEEUlRNS2_16InferenceContextEE_NS_9allocatorISA_EEFvS9_EE18destroy_deallocateEv', symObjAddr: 0x195F4, symBinAddr: 0xDBEDBC, symSize: 0x4 }
  - { offset: 0x3455F4, size: 0x8, addend: 0x0, symName: '__ZNSt3__110__function6__funcIZZN4onnxL29PoolOpSchemaGenerator_opset19EPKcS4_S4_bbENK3$_0clERNS2_8OpSchemaEEUlRNS2_16InferenceContextEE_NS_9allocatorISA_EEFvS9_EE18destroy_deallocateEv', symObjAddr: 0x195F4, symBinAddr: 0xDBEDBC, symSize: 0x4 }
  - { offset: 0x34561F, size: 0x8, addend: 0x0, symName: '__ZNSt3__110__function6__funcIZZN4onnxL29PoolOpSchemaGenerator_opset19EPKcS4_S4_bbENK3$_0clERNS2_8OpSchemaEEUlRNS2_16InferenceContextEE_NS_9allocatorISA_EEFvS9_EE18destroy_deallocateEv', symObjAddr: 0x195F4, symBinAddr: 0xDBEDBC, symSize: 0x4 }
  - { offset: 0x345645, size: 0x8, addend: 0x0, symName: '__ZNSt3__110__function6__funcIZZN4onnxL29PoolOpSchemaGenerator_opset19EPKcS4_S4_bbENK3$_0clERNS2_8OpSchemaEEUlRNS2_16InferenceContextEE_NS_9allocatorISA_EEFvS9_EE18destroy_deallocateEv', symObjAddr: 0x195F4, symBinAddr: 0xDBEDBC, symSize: 0x4 }
  - { offset: 0x345745, size: 0x8, addend: 0x0, symName: '__ZNSt3__110__function6__funcIZZN4onnxL29PoolOpSchemaGenerator_opset19EPKcS4_S4_bbENK3$_0clERNS2_8OpSchemaEEUlRNS2_16InferenceContextEE_NS_9allocatorISA_EEFvS9_EEclES9_', symObjAddr: 0x195F8, symBinAddr: 0xDBEDC0, symSize: 0xCC }
  - { offset: 0x3459C6, size: 0x8, addend: 0x0, symName: '__ZNKSt3__110__function6__funcIZZN4onnxL29PoolOpSchemaGenerator_opset19EPKcS4_S4_bbENK3$_0clERNS2_8OpSchemaEEUlRNS2_16InferenceContextEE_NS_9allocatorISA_EEFvS9_EE6targetERKSt9type_info', symObjAddr: 0x196C4, symBinAddr: 0xDBEE8C, symSize: 0x64 }
  - { offset: 0x345A79, size: 0x8, addend: 0x0, symName: '__ZNKSt3__110__function6__funcIZZN4onnxL29PoolOpSchemaGenerator_opset19EPKcS4_S4_bbENK3$_0clERNS2_8OpSchemaEEUlRNS2_16InferenceContextEE_NS_9allocatorISA_EEFvS9_EE11target_typeEv', symObjAddr: 0x19728, symBinAddr: 0xDBEEF0, symSize: 0xC }
  - { offset: 0x34621A, size: 0x8, addend: 0x0, symName: __ZNSt3__128__exception_guard_exceptionsINS_6vectorIN4onnx18FunctionBodyHelper7NodeDefENS_9allocatorIS4_EEE16__destroy_vectorEED1B8ne190102Ev, symObjAddr: 0x1A3B8, symBinAddr: 0xDBEEFC, symSize: 0x70 }
  - { offset: 0x346662, size: 0x8, addend: 0x0, symName: '__ZNSt3__110__function6__funcIZN4onnxL23PoolOpSchemaGenerator_9EPKcS4_S4_E3$_0NS_9allocatorIS5_EEFvRNS2_8OpSchemaEEED1Ev', symObjAddr: 0x1A7B0, symBinAddr: 0xDBF0C4, symSize: 0x4 }
  - { offset: 0x34668D, size: 0x8, addend: 0x0, symName: '__ZNSt3__110__function6__funcIZN4onnxL23PoolOpSchemaGenerator_9EPKcS4_S4_E3$_0NS_9allocatorIS5_EEFvRNS2_8OpSchemaEEED0Ev', symObjAddr: 0x1A7B4, symBinAddr: 0xDBF0C8, symSize: 0x4 }
  - { offset: 0x34686B, size: 0x8, addend: 0x0, symName: '__ZNKSt3__110__function6__funcIZN4onnxL23PoolOpSchemaGenerator_9EPKcS4_S4_E3$_0NS_9allocatorIS5_EEFvRNS2_8OpSchemaEEE7__cloneEv', symObjAddr: 0x1A7B8, symBinAddr: 0xDBF0CC, symSize: 0x40 }
  - { offset: 0x346B8A, size: 0x8, addend: 0x0, symName: '__ZNKSt3__110__function6__funcIZN4onnxL23PoolOpSchemaGenerator_9EPKcS4_S4_E3$_0NS_9allocatorIS5_EEFvRNS2_8OpSchemaEEE7__cloneEPNS0_6__baseISA_EE', symObjAddr: 0x1A7F8, symBinAddr: 0xDBF10C, symSize: 0x20 }
  - { offset: 0x346BC0, size: 0x8, addend: 0x0, symName: '__ZNKSt3__110__function6__funcIZN4onnxL23PoolOpSchemaGenerator_9EPKcS4_S4_E3$_0NS_9allocatorIS5_EEFvRNS2_8OpSchemaEEE7__cloneEPNS0_6__baseISA_EE', symObjAddr: 0x1A7F8, symBinAddr: 0xDBF10C, symSize: 0x20 }
  - { offset: 0x346BE5, size: 0x8, addend: 0x0, symName: '__ZNKSt3__110__function6__funcIZN4onnxL23PoolOpSchemaGenerator_9EPKcS4_S4_E3$_0NS_9allocatorIS5_EEFvRNS2_8OpSchemaEEE7__cloneEPNS0_6__baseISA_EE', symObjAddr: 0x1A7F8, symBinAddr: 0xDBF10C, symSize: 0x20 }
  - { offset: 0x346CCE, size: 0x8, addend: 0x0, symName: '__ZNSt3__110__function6__funcIZN4onnxL23PoolOpSchemaGenerator_9EPKcS4_S4_E3$_0NS_9allocatorIS5_EEFvRNS2_8OpSchemaEEE7destroyEv', symObjAddr: 0x1A818, symBinAddr: 0xDBF12C, symSize: 0x4 }
  - { offset: 0x346D1D, size: 0x8, addend: 0x0, symName: '__ZNSt3__110__function6__funcIZN4onnxL23PoolOpSchemaGenerator_9EPKcS4_S4_E3$_0NS_9allocatorIS5_EEFvRNS2_8OpSchemaEEE18destroy_deallocateEv', symObjAddr: 0x1A81C, symBinAddr: 0xDBF130, symSize: 0x4 }
  - { offset: 0x346D50, size: 0x8, addend: 0x0, symName: '__ZNSt3__110__function6__funcIZN4onnxL23PoolOpSchemaGenerator_9EPKcS4_S4_E3$_0NS_9allocatorIS5_EEFvRNS2_8OpSchemaEEE18destroy_deallocateEv', symObjAddr: 0x1A81C, symBinAddr: 0xDBF130, symSize: 0x4 }
  - { offset: 0x346D72, size: 0x8, addend: 0x0, symName: '__ZNSt3__110__function6__funcIZN4onnxL23PoolOpSchemaGenerator_9EPKcS4_S4_E3$_0NS_9allocatorIS5_EEFvRNS2_8OpSchemaEEE18destroy_deallocateEv', symObjAddr: 0x1A81C, symBinAddr: 0xDBF130, symSize: 0x4 }
  - { offset: 0x346D9D, size: 0x8, addend: 0x0, symName: '__ZNSt3__110__function6__funcIZN4onnxL23PoolOpSchemaGenerator_9EPKcS4_S4_E3$_0NS_9allocatorIS5_EEFvRNS2_8OpSchemaEEE18destroy_deallocateEv', symObjAddr: 0x1A81C, symBinAddr: 0xDBF130, symSize: 0x4 }
  - { offset: 0x346DC3, size: 0x8, addend: 0x0, symName: '__ZNSt3__110__function6__funcIZN4onnxL23PoolOpSchemaGenerator_9EPKcS4_S4_E3$_0NS_9allocatorIS5_EEFvRNS2_8OpSchemaEEE18destroy_deallocateEv', symObjAddr: 0x1A81C, symBinAddr: 0xDBF130, symSize: 0x4 }
  - { offset: 0x347023, size: 0x8, addend: 0x0, symName: '__ZNSt3__110__function6__funcIZN4onnxL23PoolOpSchemaGenerator_9EPKcS4_S4_E3$_0NS_9allocatorIS5_EEFvRNS2_8OpSchemaEEEclES9_', symObjAddr: 0x1A820, symBinAddr: 0xDBF134, symSize: 0x320 }
  - { offset: 0x347A93, size: 0x8, addend: 0x0, symName: '__ZNKSt3__110__function6__funcIZN4onnxL23PoolOpSchemaGenerator_9EPKcS4_S4_E3$_0NS_9allocatorIS5_EEFvRNS2_8OpSchemaEEE6targetERKSt9type_info', symObjAddr: 0x1AB40, symBinAddr: 0xDBF454, symSize: 0x64 }
  - { offset: 0x347B46, size: 0x8, addend: 0x0, symName: '__ZNKSt3__110__function6__funcIZN4onnxL23PoolOpSchemaGenerator_9EPKcS4_S4_E3$_0NS_9allocatorIS5_EEFvRNS2_8OpSchemaEEE11target_typeEv', symObjAddr: 0x1ABA4, symBinAddr: 0xDBF4B8, symSize: 0xC }
  - { offset: 0x347B69, size: 0x8, addend: 0x0, symName: '__ZNSt3__110__function6__funcIZZN4onnxL23PoolOpSchemaGenerator_9EPKcS4_S4_ENK3$_0clERNS2_8OpSchemaEEUlRNS2_16InferenceContextEE_NS_9allocatorISA_EEFvS9_EED1Ev', symObjAddr: 0x1ABB0, symBinAddr: 0xDBF4C4, symSize: 0x4 }
  - { offset: 0x347B94, size: 0x8, addend: 0x0, symName: '__ZNSt3__110__function6__funcIZZN4onnxL23PoolOpSchemaGenerator_9EPKcS4_S4_ENK3$_0clERNS2_8OpSchemaEEUlRNS2_16InferenceContextEE_NS_9allocatorISA_EEFvS9_EED0Ev', symObjAddr: 0x1ABB4, symBinAddr: 0xDBF4C8, symSize: 0x4 }
  - { offset: 0x347C49, size: 0x8, addend: 0x0, symName: '__ZNKSt3__110__function6__funcIZZN4onnxL23PoolOpSchemaGenerator_9EPKcS4_S4_ENK3$_0clERNS2_8OpSchemaEEUlRNS2_16InferenceContextEE_NS_9allocatorISA_EEFvS9_EE7__cloneEv', symObjAddr: 0x1ABB8, symBinAddr: 0xDBF4CC, symSize: 0x24 }
  - { offset: 0x347D8C, size: 0x8, addend: 0x0, symName: '__ZNKSt3__110__function6__funcIZZN4onnxL23PoolOpSchemaGenerator_9EPKcS4_S4_ENK3$_0clERNS2_8OpSchemaEEUlRNS2_16InferenceContextEE_NS_9allocatorISA_EEFvS9_EE7__cloneEPNS0_6__baseISD_EE', symObjAddr: 0x1ABDC, symBinAddr: 0xDBF4F0, symSize: 0x10 }
  - { offset: 0x347DC0, size: 0x8, addend: 0x0, symName: '__ZNKSt3__110__function6__funcIZZN4onnxL23PoolOpSchemaGenerator_9EPKcS4_S4_ENK3$_0clERNS2_8OpSchemaEEUlRNS2_16InferenceContextEE_NS_9allocatorISA_EEFvS9_EE7__cloneEPNS0_6__baseISD_EE', symObjAddr: 0x1ABDC, symBinAddr: 0xDBF4F0, symSize: 0x10 }
  - { offset: 0x347DDC, size: 0x8, addend: 0x0, symName: '__ZNKSt3__110__function6__funcIZZN4onnxL23PoolOpSchemaGenerator_9EPKcS4_S4_ENK3$_0clERNS2_8OpSchemaEEUlRNS2_16InferenceContextEE_NS_9allocatorISA_EEFvS9_EE7__cloneEPNS0_6__baseISD_EE', symObjAddr: 0x1ABDC, symBinAddr: 0xDBF4F0, symSize: 0x10 }
  - { offset: 0x347DF8, size: 0x8, addend: 0x0, symName: '__ZNSt3__110__function6__funcIZZN4onnxL23PoolOpSchemaGenerator_9EPKcS4_S4_ENK3$_0clERNS2_8OpSchemaEEUlRNS2_16InferenceContextEE_NS_9allocatorISA_EEFvS9_EE7destroyEv', symObjAddr: 0x1ABEC, symBinAddr: 0xDBF500, symSize: 0x4 }
  - { offset: 0x347E47, size: 0x8, addend: 0x0, symName: '__ZNSt3__110__function6__funcIZZN4onnxL23PoolOpSchemaGenerator_9EPKcS4_S4_ENK3$_0clERNS2_8OpSchemaEEUlRNS2_16InferenceContextEE_NS_9allocatorISA_EEFvS9_EE18destroy_deallocateEv', symObjAddr: 0x1ABF0, symBinAddr: 0xDBF504, symSize: 0x4 }
  - { offset: 0x347E7A, size: 0x8, addend: 0x0, symName: '__ZNSt3__110__function6__funcIZZN4onnxL23PoolOpSchemaGenerator_9EPKcS4_S4_ENK3$_0clERNS2_8OpSchemaEEUlRNS2_16InferenceContextEE_NS_9allocatorISA_EEFvS9_EE18destroy_deallocateEv', symObjAddr: 0x1ABF0, symBinAddr: 0xDBF504, symSize: 0x4 }
  - { offset: 0x347E9C, size: 0x8, addend: 0x0, symName: '__ZNSt3__110__function6__funcIZZN4onnxL23PoolOpSchemaGenerator_9EPKcS4_S4_ENK3$_0clERNS2_8OpSchemaEEUlRNS2_16InferenceContextEE_NS_9allocatorISA_EEFvS9_EE18destroy_deallocateEv', symObjAddr: 0x1ABF0, symBinAddr: 0xDBF504, symSize: 0x4 }
  - { offset: 0x347EC7, size: 0x8, addend: 0x0, symName: '__ZNSt3__110__function6__funcIZZN4onnxL23PoolOpSchemaGenerator_9EPKcS4_S4_ENK3$_0clERNS2_8OpSchemaEEUlRNS2_16InferenceContextEE_NS_9allocatorISA_EEFvS9_EE18destroy_deallocateEv', symObjAddr: 0x1ABF0, symBinAddr: 0xDBF504, symSize: 0x4 }
  - { offset: 0x347EED, size: 0x8, addend: 0x0, symName: '__ZNSt3__110__function6__funcIZZN4onnxL23PoolOpSchemaGenerator_9EPKcS4_S4_ENK3$_0clERNS2_8OpSchemaEEUlRNS2_16InferenceContextEE_NS_9allocatorISA_EEFvS9_EE18destroy_deallocateEv', symObjAddr: 0x1ABF0, symBinAddr: 0xDBF504, symSize: 0x4 }
  - { offset: 0x347FA5, size: 0x8, addend: 0x0, symName: '__ZNSt3__110__function6__funcIZZN4onnxL23PoolOpSchemaGenerator_9EPKcS4_S4_ENK3$_0clERNS2_8OpSchemaEEUlRNS2_16InferenceContextEE_NS_9allocatorISA_EEFvS9_EEclES9_', symObjAddr: 0x1ABF4, symBinAddr: 0xDBF508, symSize: 0xC8 }
  - { offset: 0x348203, size: 0x8, addend: 0x0, symName: '__ZNKSt3__110__function6__funcIZZN4onnxL23PoolOpSchemaGenerator_9EPKcS4_S4_ENK3$_0clERNS2_8OpSchemaEEUlRNS2_16InferenceContextEE_NS_9allocatorISA_EEFvS9_EE6targetERKSt9type_info', symObjAddr: 0x1ACBC, symBinAddr: 0xDBF5D0, symSize: 0x64 }
  - { offset: 0x3482B6, size: 0x8, addend: 0x0, symName: '__ZNKSt3__110__function6__funcIZZN4onnxL23PoolOpSchemaGenerator_9EPKcS4_S4_ENK3$_0clERNS2_8OpSchemaEEUlRNS2_16InferenceContextEE_NS_9allocatorISA_EEFvS9_EE11target_typeEv', symObjAddr: 0x1AD20, symBinAddr: 0xDBF634, symSize: 0xC }
  - { offset: 0x3482D9, size: 0x8, addend: 0x0, symName: '__ZNSt3__110__function6__funcIZN4onnxL24PoolOpSchemaGenerator_10EPKcS4_S4_biE3$_0NS_9allocatorIS5_EEFvRNS2_8OpSchemaEEED1Ev', symObjAddr: 0x1C32C, symBinAddr: 0xDC0C40, symSize: 0x4 }
  - { offset: 0x348304, size: 0x8, addend: 0x0, symName: '__ZNSt3__110__function6__funcIZN4onnxL24PoolOpSchemaGenerator_10EPKcS4_S4_biE3$_0NS_9allocatorIS5_EEFvRNS2_8OpSchemaEEED0Ev', symObjAddr: 0x1C330, symBinAddr: 0xDC0C44, symSize: 0x4 }
  - { offset: 0x3484E2, size: 0x8, addend: 0x0, symName: '__ZNKSt3__110__function6__funcIZN4onnxL24PoolOpSchemaGenerator_10EPKcS4_S4_biE3$_0NS_9allocatorIS5_EEFvRNS2_8OpSchemaEEE7__cloneEv', symObjAddr: 0x1C334, symBinAddr: 0xDC0C48, symSize: 0x40 }
  - { offset: 0x348801, size: 0x8, addend: 0x0, symName: '__ZNKSt3__110__function6__funcIZN4onnxL24PoolOpSchemaGenerator_10EPKcS4_S4_biE3$_0NS_9allocatorIS5_EEFvRNS2_8OpSchemaEEE7__cloneEPNS0_6__baseISA_EE', symObjAddr: 0x1C374, symBinAddr: 0xDC0C88, symSize: 0x20 }
  - { offset: 0x348837, size: 0x8, addend: 0x0, symName: '__ZNKSt3__110__function6__funcIZN4onnxL24PoolOpSchemaGenerator_10EPKcS4_S4_biE3$_0NS_9allocatorIS5_EEFvRNS2_8OpSchemaEEE7__cloneEPNS0_6__baseISA_EE', symObjAddr: 0x1C374, symBinAddr: 0xDC0C88, symSize: 0x20 }
  - { offset: 0x34885C, size: 0x8, addend: 0x0, symName: '__ZNKSt3__110__function6__funcIZN4onnxL24PoolOpSchemaGenerator_10EPKcS4_S4_biE3$_0NS_9allocatorIS5_EEFvRNS2_8OpSchemaEEE7__cloneEPNS0_6__baseISA_EE', symObjAddr: 0x1C374, symBinAddr: 0xDC0C88, symSize: 0x20 }
  - { offset: 0x348945, size: 0x8, addend: 0x0, symName: '__ZNSt3__110__function6__funcIZN4onnxL24PoolOpSchemaGenerator_10EPKcS4_S4_biE3$_0NS_9allocatorIS5_EEFvRNS2_8OpSchemaEEE7destroyEv', symObjAddr: 0x1C394, symBinAddr: 0xDC0CA8, symSize: 0x4 }
  - { offset: 0x348994, size: 0x8, addend: 0x0, symName: '__ZNSt3__110__function6__funcIZN4onnxL24PoolOpSchemaGenerator_10EPKcS4_S4_biE3$_0NS_9allocatorIS5_EEFvRNS2_8OpSchemaEEE18destroy_deallocateEv', symObjAddr: 0x1C398, symBinAddr: 0xDC0CAC, symSize: 0x4 }
  - { offset: 0x3489C7, size: 0x8, addend: 0x0, symName: '__ZNSt3__110__function6__funcIZN4onnxL24PoolOpSchemaGenerator_10EPKcS4_S4_biE3$_0NS_9allocatorIS5_EEFvRNS2_8OpSchemaEEE18destroy_deallocateEv', symObjAddr: 0x1C398, symBinAddr: 0xDC0CAC, symSize: 0x4 }
  - { offset: 0x3489E9, size: 0x8, addend: 0x0, symName: '__ZNSt3__110__function6__funcIZN4onnxL24PoolOpSchemaGenerator_10EPKcS4_S4_biE3$_0NS_9allocatorIS5_EEFvRNS2_8OpSchemaEEE18destroy_deallocateEv', symObjAddr: 0x1C398, symBinAddr: 0xDC0CAC, symSize: 0x4 }
  - { offset: 0x348A15, size: 0x8, addend: 0x0, symName: '__ZNSt3__110__function6__funcIZN4onnxL24PoolOpSchemaGenerator_10EPKcS4_S4_biE3$_0NS_9allocatorIS5_EEFvRNS2_8OpSchemaEEE18destroy_deallocateEv', symObjAddr: 0x1C398, symBinAddr: 0xDC0CAC, symSize: 0x4 }
  - { offset: 0x348A3C, size: 0x8, addend: 0x0, symName: '__ZNSt3__110__function6__funcIZN4onnxL24PoolOpSchemaGenerator_10EPKcS4_S4_biE3$_0NS_9allocatorIS5_EEFvRNS2_8OpSchemaEEE18destroy_deallocateEv', symObjAddr: 0x1C398, symBinAddr: 0xDC0CAC, symSize: 0x4 }
  - { offset: 0x348DEB, size: 0x8, addend: 0x0, symName: '__ZNSt3__110__function6__funcIZN4onnxL24PoolOpSchemaGenerator_10EPKcS4_S4_biE3$_0NS_9allocatorIS5_EEFvRNS2_8OpSchemaEEEclES9_', symObjAddr: 0x1C39C, symBinAddr: 0xDC0CB0, symSize: 0x398 }
  - { offset: 0x3498EC, size: 0x8, addend: 0x0, symName: '__ZNKSt3__110__function6__funcIZN4onnxL24PoolOpSchemaGenerator_10EPKcS4_S4_biE3$_0NS_9allocatorIS5_EEFvRNS2_8OpSchemaEEE6targetERKSt9type_info', symObjAddr: 0x1C734, symBinAddr: 0xDC1048, symSize: 0x64 }
  - { offset: 0x34999F, size: 0x8, addend: 0x0, symName: '__ZNKSt3__110__function6__funcIZN4onnxL24PoolOpSchemaGenerator_10EPKcS4_S4_biE3$_0NS_9allocatorIS5_EEFvRNS2_8OpSchemaEEE11target_typeEv', symObjAddr: 0x1C798, symBinAddr: 0xDC10AC, symSize: 0xC }
  - { offset: 0x3499C2, size: 0x8, addend: 0x0, symName: '__ZNSt3__110__function6__funcIZZN4onnxL24PoolOpSchemaGenerator_10EPKcS4_S4_biENK3$_0clERNS2_8OpSchemaEEUlRNS2_16InferenceContextEE_NS_9allocatorISA_EEFvS9_EED1Ev', symObjAddr: 0x1C7A4, symBinAddr: 0xDC10B8, symSize: 0x4 }
  - { offset: 0x3499ED, size: 0x8, addend: 0x0, symName: '__ZNSt3__110__function6__funcIZZN4onnxL24PoolOpSchemaGenerator_10EPKcS4_S4_biENK3$_0clERNS2_8OpSchemaEEUlRNS2_16InferenceContextEE_NS_9allocatorISA_EEFvS9_EED0Ev', symObjAddr: 0x1C7A8, symBinAddr: 0xDC10BC, symSize: 0x4 }
  - { offset: 0x349BF1, size: 0x8, addend: 0x0, symName: '__ZNKSt3__110__function6__funcIZZN4onnxL24PoolOpSchemaGenerator_10EPKcS4_S4_biENK3$_0clERNS2_8OpSchemaEEUlRNS2_16InferenceContextEE_NS_9allocatorISA_EEFvS9_EE7__cloneEv', symObjAddr: 0x1C7AC, symBinAddr: 0xDC10C0, symSize: 0x38 }
  - { offset: 0x349ED1, size: 0x8, addend: 0x0, symName: '__ZNKSt3__110__function6__funcIZZN4onnxL24PoolOpSchemaGenerator_10EPKcS4_S4_biENK3$_0clERNS2_8OpSchemaEEUlRNS2_16InferenceContextEE_NS_9allocatorISA_EEFvS9_EE7__cloneEPNS0_6__baseISD_EE', symObjAddr: 0x1C7E4, symBinAddr: 0xDC10F8, symSize: 0x18 }
  - { offset: 0x349FD6, size: 0x8, addend: 0x0, symName: '__ZNSt3__110__function6__funcIZZN4onnxL24PoolOpSchemaGenerator_10EPKcS4_S4_biENK3$_0clERNS2_8OpSchemaEEUlRNS2_16InferenceContextEE_NS_9allocatorISA_EEFvS9_EE7destroyEv', symObjAddr: 0x1C7FC, symBinAddr: 0xDC1110, symSize: 0x4 }
  - { offset: 0x34A025, size: 0x8, addend: 0x0, symName: '__ZNSt3__110__function6__funcIZZN4onnxL24PoolOpSchemaGenerator_10EPKcS4_S4_biENK3$_0clERNS2_8OpSchemaEEUlRNS2_16InferenceContextEE_NS_9allocatorISA_EEFvS9_EE18destroy_deallocateEv', symObjAddr: 0x1C800, symBinAddr: 0xDC1114, symSize: 0x4 }
  - { offset: 0x34A058, size: 0x8, addend: 0x0, symName: '__ZNSt3__110__function6__funcIZZN4onnxL24PoolOpSchemaGenerator_10EPKcS4_S4_biENK3$_0clERNS2_8OpSchemaEEUlRNS2_16InferenceContextEE_NS_9allocatorISA_EEFvS9_EE18destroy_deallocateEv', symObjAddr: 0x1C800, symBinAddr: 0xDC1114, symSize: 0x4 }
  - { offset: 0x34A07A, size: 0x8, addend: 0x0, symName: '__ZNSt3__110__function6__funcIZZN4onnxL24PoolOpSchemaGenerator_10EPKcS4_S4_biENK3$_0clERNS2_8OpSchemaEEUlRNS2_16InferenceContextEE_NS_9allocatorISA_EEFvS9_EE18destroy_deallocateEv', symObjAddr: 0x1C800, symBinAddr: 0xDC1114, symSize: 0x4 }
  - { offset: 0x34A0A5, size: 0x8, addend: 0x0, symName: '__ZNSt3__110__function6__funcIZZN4onnxL24PoolOpSchemaGenerator_10EPKcS4_S4_biENK3$_0clERNS2_8OpSchemaEEUlRNS2_16InferenceContextEE_NS_9allocatorISA_EEFvS9_EE18destroy_deallocateEv', symObjAddr: 0x1C800, symBinAddr: 0xDC1114, symSize: 0x4 }
  - { offset: 0x34A0CB, size: 0x8, addend: 0x0, symName: '__ZNSt3__110__function6__funcIZZN4onnxL24PoolOpSchemaGenerator_10EPKcS4_S4_biENK3$_0clERNS2_8OpSchemaEEUlRNS2_16InferenceContextEE_NS_9allocatorISA_EEFvS9_EE18destroy_deallocateEv', symObjAddr: 0x1C800, symBinAddr: 0xDC1114, symSize: 0x4 }
  - { offset: 0x34A183, size: 0x8, addend: 0x0, symName: '__ZNSt3__110__function6__funcIZZN4onnxL24PoolOpSchemaGenerator_10EPKcS4_S4_biENK3$_0clERNS2_8OpSchemaEEUlRNS2_16InferenceContextEE_NS_9allocatorISA_EEFvS9_EEclES9_', symObjAddr: 0x1C804, symBinAddr: 0xDC1118, symSize: 0xCC }
  - { offset: 0x34A404, size: 0x8, addend: 0x0, symName: '__ZNKSt3__110__function6__funcIZZN4onnxL24PoolOpSchemaGenerator_10EPKcS4_S4_biENK3$_0clERNS2_8OpSchemaEEUlRNS2_16InferenceContextEE_NS_9allocatorISA_EEFvS9_EE6targetERKSt9type_info', symObjAddr: 0x1C8D0, symBinAddr: 0xDC11E4, symSize: 0x64 }
  - { offset: 0x34A4B7, size: 0x8, addend: 0x0, symName: '__ZNKSt3__110__function6__funcIZZN4onnxL24PoolOpSchemaGenerator_10EPKcS4_S4_biENK3$_0clERNS2_8OpSchemaEEUlRNS2_16InferenceContextEE_NS_9allocatorISA_EEFvS9_EE11target_typeEv', symObjAddr: 0x1C934, symBinAddr: 0xDC1248, symSize: 0xC }
  - { offset: 0x34A4DA, size: 0x8, addend: 0x0, symName: '__ZNSt3__110__function6__funcIZN4onnxL24PoolOpSchemaGenerator_11EPKcS4_S4_bbE3$_0NS_9allocatorIS5_EEFvRNS2_8OpSchemaEEED1Ev', symObjAddr: 0x1C940, symBinAddr: 0xDC1254, symSize: 0x4 }
  - { offset: 0x34A505, size: 0x8, addend: 0x0, symName: '__ZNSt3__110__function6__funcIZN4onnxL24PoolOpSchemaGenerator_11EPKcS4_S4_bbE3$_0NS_9allocatorIS5_EEFvRNS2_8OpSchemaEEED0Ev', symObjAddr: 0x1C944, symBinAddr: 0xDC1258, symSize: 0x4 }
  - { offset: 0x34A6E3, size: 0x8, addend: 0x0, symName: '__ZNKSt3__110__function6__funcIZN4onnxL24PoolOpSchemaGenerator_11EPKcS4_S4_bbE3$_0NS_9allocatorIS5_EEFvRNS2_8OpSchemaEEE7__cloneEv', symObjAddr: 0x1C948, symBinAddr: 0xDC125C, symSize: 0x40 }
  - { offset: 0x34AA02, size: 0x8, addend: 0x0, symName: '__ZNKSt3__110__function6__funcIZN4onnxL24PoolOpSchemaGenerator_11EPKcS4_S4_bbE3$_0NS_9allocatorIS5_EEFvRNS2_8OpSchemaEEE7__cloneEPNS0_6__baseISA_EE', symObjAddr: 0x1C988, symBinAddr: 0xDC129C, symSize: 0x20 }
  - { offset: 0x34AA38, size: 0x8, addend: 0x0, symName: '__ZNKSt3__110__function6__funcIZN4onnxL24PoolOpSchemaGenerator_11EPKcS4_S4_bbE3$_0NS_9allocatorIS5_EEFvRNS2_8OpSchemaEEE7__cloneEPNS0_6__baseISA_EE', symObjAddr: 0x1C988, symBinAddr: 0xDC129C, symSize: 0x20 }
  - { offset: 0x34AA5D, size: 0x8, addend: 0x0, symName: '__ZNKSt3__110__function6__funcIZN4onnxL24PoolOpSchemaGenerator_11EPKcS4_S4_bbE3$_0NS_9allocatorIS5_EEFvRNS2_8OpSchemaEEE7__cloneEPNS0_6__baseISA_EE', symObjAddr: 0x1C988, symBinAddr: 0xDC129C, symSize: 0x20 }
  - { offset: 0x34AB46, size: 0x8, addend: 0x0, symName: '__ZNSt3__110__function6__funcIZN4onnxL24PoolOpSchemaGenerator_11EPKcS4_S4_bbE3$_0NS_9allocatorIS5_EEFvRNS2_8OpSchemaEEE7destroyEv', symObjAddr: 0x1C9A8, symBinAddr: 0xDC12BC, symSize: 0x4 }
  - { offset: 0x34AB95, size: 0x8, addend: 0x0, symName: '__ZNSt3__110__function6__funcIZN4onnxL24PoolOpSchemaGenerator_11EPKcS4_S4_bbE3$_0NS_9allocatorIS5_EEFvRNS2_8OpSchemaEEE18destroy_deallocateEv', symObjAddr: 0x1C9AC, symBinAddr: 0xDC12C0, symSize: 0x4 }
  - { offset: 0x34ABC8, size: 0x8, addend: 0x0, symName: '__ZNSt3__110__function6__funcIZN4onnxL24PoolOpSchemaGenerator_11EPKcS4_S4_bbE3$_0NS_9allocatorIS5_EEFvRNS2_8OpSchemaEEE18destroy_deallocateEv', symObjAddr: 0x1C9AC, symBinAddr: 0xDC12C0, symSize: 0x4 }
  - { offset: 0x34ABEA, size: 0x8, addend: 0x0, symName: '__ZNSt3__110__function6__funcIZN4onnxL24PoolOpSchemaGenerator_11EPKcS4_S4_bbE3$_0NS_9allocatorIS5_EEFvRNS2_8OpSchemaEEE18destroy_deallocateEv', symObjAddr: 0x1C9AC, symBinAddr: 0xDC12C0, symSize: 0x4 }
  - { offset: 0x34AC16, size: 0x8, addend: 0x0, symName: '__ZNSt3__110__function6__funcIZN4onnxL24PoolOpSchemaGenerator_11EPKcS4_S4_bbE3$_0NS_9allocatorIS5_EEFvRNS2_8OpSchemaEEE18destroy_deallocateEv', symObjAddr: 0x1C9AC, symBinAddr: 0xDC12C0, symSize: 0x4 }
  - { offset: 0x34AC3D, size: 0x8, addend: 0x0, symName: '__ZNSt3__110__function6__funcIZN4onnxL24PoolOpSchemaGenerator_11EPKcS4_S4_bbE3$_0NS_9allocatorIS5_EEFvRNS2_8OpSchemaEEE18destroy_deallocateEv', symObjAddr: 0x1C9AC, symBinAddr: 0xDC12C0, symSize: 0x4 }
  - { offset: 0x34AFEC, size: 0x8, addend: 0x0, symName: '__ZNSt3__110__function6__funcIZN4onnxL24PoolOpSchemaGenerator_11EPKcS4_S4_bbE3$_0NS_9allocatorIS5_EEFvRNS2_8OpSchemaEEEclES9_', symObjAddr: 0x1C9B0, symBinAddr: 0xDC12C4, symSize: 0x6B8 }
  - { offset: 0x34CE16, size: 0x8, addend: 0x0, symName: '__ZNKSt3__110__function6__funcIZN4onnxL24PoolOpSchemaGenerator_11EPKcS4_S4_bbE3$_0NS_9allocatorIS5_EEFvRNS2_8OpSchemaEEE6targetERKSt9type_info', symObjAddr: 0x1D068, symBinAddr: 0xDC197C, symSize: 0x64 }
  - { offset: 0x34CEC9, size: 0x8, addend: 0x0, symName: '__ZNKSt3__110__function6__funcIZN4onnxL24PoolOpSchemaGenerator_11EPKcS4_S4_bbE3$_0NS_9allocatorIS5_EEFvRNS2_8OpSchemaEEE11target_typeEv', symObjAddr: 0x1D0CC, symBinAddr: 0xDC19E0, symSize: 0xC }
  - { offset: 0x34CEEC, size: 0x8, addend: 0x0, symName: '__ZNSt3__110__function6__funcIZZN4onnxL24PoolOpSchemaGenerator_11EPKcS4_S4_bbENK3$_0clERNS2_8OpSchemaEEUlRNS2_16InferenceContextEE_NS_9allocatorISA_EEFvS9_EED1Ev', symObjAddr: 0x1D0D8, symBinAddr: 0xDC19EC, symSize: 0x4 }
  - { offset: 0x34CF17, size: 0x8, addend: 0x0, symName: '__ZNSt3__110__function6__funcIZZN4onnxL24PoolOpSchemaGenerator_11EPKcS4_S4_bbENK3$_0clERNS2_8OpSchemaEEUlRNS2_16InferenceContextEE_NS_9allocatorISA_EEFvS9_EED0Ev', symObjAddr: 0x1D0DC, symBinAddr: 0xDC19F0, symSize: 0x4 }
  - { offset: 0x34D11B, size: 0x8, addend: 0x0, symName: '__ZNKSt3__110__function6__funcIZZN4onnxL24PoolOpSchemaGenerator_11EPKcS4_S4_bbENK3$_0clERNS2_8OpSchemaEEUlRNS2_16InferenceContextEE_NS_9allocatorISA_EEFvS9_EE7__cloneEv', symObjAddr: 0x1D0E0, symBinAddr: 0xDC19F4, symSize: 0x38 }
  - { offset: 0x34D3FB, size: 0x8, addend: 0x0, symName: '__ZNKSt3__110__function6__funcIZZN4onnxL24PoolOpSchemaGenerator_11EPKcS4_S4_bbENK3$_0clERNS2_8OpSchemaEEUlRNS2_16InferenceContextEE_NS_9allocatorISA_EEFvS9_EE7__cloneEPNS0_6__baseISD_EE', symObjAddr: 0x1D118, symBinAddr: 0xDC1A2C, symSize: 0x18 }
  - { offset: 0x34D500, size: 0x8, addend: 0x0, symName: '__ZNSt3__110__function6__funcIZZN4onnxL24PoolOpSchemaGenerator_11EPKcS4_S4_bbENK3$_0clERNS2_8OpSchemaEEUlRNS2_16InferenceContextEE_NS_9allocatorISA_EEFvS9_EE7destroyEv', symObjAddr: 0x1D130, symBinAddr: 0xDC1A44, symSize: 0x4 }
  - { offset: 0x34D54F, size: 0x8, addend: 0x0, symName: '__ZNSt3__110__function6__funcIZZN4onnxL24PoolOpSchemaGenerator_11EPKcS4_S4_bbENK3$_0clERNS2_8OpSchemaEEUlRNS2_16InferenceContextEE_NS_9allocatorISA_EEFvS9_EE18destroy_deallocateEv', symObjAddr: 0x1D134, symBinAddr: 0xDC1A48, symSize: 0x4 }
  - { offset: 0x34D582, size: 0x8, addend: 0x0, symName: '__ZNSt3__110__function6__funcIZZN4onnxL24PoolOpSchemaGenerator_11EPKcS4_S4_bbENK3$_0clERNS2_8OpSchemaEEUlRNS2_16InferenceContextEE_NS_9allocatorISA_EEFvS9_EE18destroy_deallocateEv', symObjAddr: 0x1D134, symBinAddr: 0xDC1A48, symSize: 0x4 }
  - { offset: 0x34D5A4, size: 0x8, addend: 0x0, symName: '__ZNSt3__110__function6__funcIZZN4onnxL24PoolOpSchemaGenerator_11EPKcS4_S4_bbENK3$_0clERNS2_8OpSchemaEEUlRNS2_16InferenceContextEE_NS_9allocatorISA_EEFvS9_EE18destroy_deallocateEv', symObjAddr: 0x1D134, symBinAddr: 0xDC1A48, symSize: 0x4 }
  - { offset: 0x34D5CF, size: 0x8, addend: 0x0, symName: '__ZNSt3__110__function6__funcIZZN4onnxL24PoolOpSchemaGenerator_11EPKcS4_S4_bbENK3$_0clERNS2_8OpSchemaEEUlRNS2_16InferenceContextEE_NS_9allocatorISA_EEFvS9_EE18destroy_deallocateEv', symObjAddr: 0x1D134, symBinAddr: 0xDC1A48, symSize: 0x4 }
  - { offset: 0x34D5F5, size: 0x8, addend: 0x0, symName: '__ZNSt3__110__function6__funcIZZN4onnxL24PoolOpSchemaGenerator_11EPKcS4_S4_bbENK3$_0clERNS2_8OpSchemaEEUlRNS2_16InferenceContextEE_NS_9allocatorISA_EEFvS9_EE18destroy_deallocateEv', symObjAddr: 0x1D134, symBinAddr: 0xDC1A48, symSize: 0x4 }
  - { offset: 0x34D6AD, size: 0x8, addend: 0x0, symName: '__ZNSt3__110__function6__funcIZZN4onnxL24PoolOpSchemaGenerator_11EPKcS4_S4_bbENK3$_0clERNS2_8OpSchemaEEUlRNS2_16InferenceContextEE_NS_9allocatorISA_EEFvS9_EEclES9_', symObjAddr: 0x1D138, symBinAddr: 0xDC1A4C, symSize: 0xCC }
  - { offset: 0x34D92E, size: 0x8, addend: 0x0, symName: '__ZNKSt3__110__function6__funcIZZN4onnxL24PoolOpSchemaGenerator_11EPKcS4_S4_bbENK3$_0clERNS2_8OpSchemaEEUlRNS2_16InferenceContextEE_NS_9allocatorISA_EEFvS9_EE6targetERKSt9type_info', symObjAddr: 0x1D204, symBinAddr: 0xDC1B18, symSize: 0x64 }
  - { offset: 0x34D9E1, size: 0x8, addend: 0x0, symName: '__ZNKSt3__110__function6__funcIZZN4onnxL24PoolOpSchemaGenerator_11EPKcS4_S4_bbENK3$_0clERNS2_8OpSchemaEEUlRNS2_16InferenceContextEE_NS_9allocatorISA_EEFvS9_EE11target_typeEv', symObjAddr: 0x1D268, symBinAddr: 0xDC1B7C, symSize: 0xC }
  - { offset: 0x34DA04, size: 0x8, addend: 0x0, symName: '__ZNSt3__110__function6__funcIZN4onnxL26LpPoolOpSchemaGenerator_10EPKcE3$_0NS_9allocatorIS5_EEFvRNS2_8OpSchemaEEED1Ev', symObjAddr: 0x1D274, symBinAddr: 0xDC1B88, symSize: 0x4 }
  - { offset: 0x34DA2F, size: 0x8, addend: 0x0, symName: '__ZNSt3__110__function6__funcIZN4onnxL26LpPoolOpSchemaGenerator_10EPKcE3$_0NS_9allocatorIS5_EEFvRNS2_8OpSchemaEEED0Ev', symObjAddr: 0x1D278, symBinAddr: 0xDC1B8C, symSize: 0x4 }
  - { offset: 0x34DAE4, size: 0x8, addend: 0x0, symName: '__ZNKSt3__110__function6__funcIZN4onnxL26LpPoolOpSchemaGenerator_10EPKcE3$_0NS_9allocatorIS5_EEFvRNS2_8OpSchemaEEE7__cloneEv', symObjAddr: 0x1D27C, symBinAddr: 0xDC1B90, symSize: 0x34 }
  - { offset: 0x34DC2B, size: 0x8, addend: 0x0, symName: '__ZNKSt3__110__function6__funcIZN4onnxL26LpPoolOpSchemaGenerator_10EPKcE3$_0NS_9allocatorIS5_EEFvRNS2_8OpSchemaEEE7__cloneEPNS0_6__baseISA_EE', symObjAddr: 0x1D2B0, symBinAddr: 0xDC1BC4, symSize: 0x14 }
  - { offset: 0x34DC99, size: 0x8, addend: 0x0, symName: '__ZNSt3__110__function6__funcIZN4onnxL26LpPoolOpSchemaGenerator_10EPKcE3$_0NS_9allocatorIS5_EEFvRNS2_8OpSchemaEEE7destroyEv', symObjAddr: 0x1D2C4, symBinAddr: 0xDC1BD8, symSize: 0x4 }
  - { offset: 0x34DCE8, size: 0x8, addend: 0x0, symName: '__ZNSt3__110__function6__funcIZN4onnxL26LpPoolOpSchemaGenerator_10EPKcE3$_0NS_9allocatorIS5_EEFvRNS2_8OpSchemaEEE18destroy_deallocateEv', symObjAddr: 0x1D2C8, symBinAddr: 0xDC1BDC, symSize: 0x4 }
  - { offset: 0x34DD1B, size: 0x8, addend: 0x0, symName: '__ZNSt3__110__function6__funcIZN4onnxL26LpPoolOpSchemaGenerator_10EPKcE3$_0NS_9allocatorIS5_EEFvRNS2_8OpSchemaEEE18destroy_deallocateEv', symObjAddr: 0x1D2C8, symBinAddr: 0xDC1BDC, symSize: 0x4 }
  - { offset: 0x34DD3D, size: 0x8, addend: 0x0, symName: '__ZNSt3__110__function6__funcIZN4onnxL26LpPoolOpSchemaGenerator_10EPKcE3$_0NS_9allocatorIS5_EEFvRNS2_8OpSchemaEEE18destroy_deallocateEv', symObjAddr: 0x1D2C8, symBinAddr: 0xDC1BDC, symSize: 0x4 }
  - { offset: 0x34DD68, size: 0x8, addend: 0x0, symName: '__ZNSt3__110__function6__funcIZN4onnxL26LpPoolOpSchemaGenerator_10EPKcE3$_0NS_9allocatorIS5_EEFvRNS2_8OpSchemaEEE18destroy_deallocateEv', symObjAddr: 0x1D2C8, symBinAddr: 0xDC1BDC, symSize: 0x4 }
  - { offset: 0x34DD8E, size: 0x8, addend: 0x0, symName: '__ZNSt3__110__function6__funcIZN4onnxL26LpPoolOpSchemaGenerator_10EPKcE3$_0NS_9allocatorIS5_EEFvRNS2_8OpSchemaEEE18destroy_deallocateEv', symObjAddr: 0x1D2C8, symBinAddr: 0xDC1BDC, symSize: 0x4 }
  - { offset: 0x34DFEE, size: 0x8, addend: 0x0, symName: '__ZNSt3__110__function6__funcIZN4onnxL26LpPoolOpSchemaGenerator_10EPKcE3$_0NS_9allocatorIS5_EEFvRNS2_8OpSchemaEEEclES9_', symObjAddr: 0x1D2CC, symBinAddr: 0xDC1BE0, symSize: 0x324 }
  - { offset: 0x34EA36, size: 0x8, addend: 0x0, symName: '__ZNKSt3__110__function6__funcIZN4onnxL26LpPoolOpSchemaGenerator_10EPKcE3$_0NS_9allocatorIS5_EEFvRNS2_8OpSchemaEEE6targetERKSt9type_info', symObjAddr: 0x1D5F0, symBinAddr: 0xDC1F04, symSize: 0x64 }
  - { offset: 0x34EAE9, size: 0x8, addend: 0x0, symName: '__ZNKSt3__110__function6__funcIZN4onnxL26LpPoolOpSchemaGenerator_10EPKcE3$_0NS_9allocatorIS5_EEFvRNS2_8OpSchemaEEE11target_typeEv', symObjAddr: 0x1D654, symBinAddr: 0xDC1F68, symSize: 0xC }
  - { offset: 0x34EB0C, size: 0x8, addend: 0x0, symName: '__ZNSt3__110__function6__funcIZZN4onnxL26LpPoolOpSchemaGenerator_10EPKcENK3$_0clERNS2_8OpSchemaEEUlRNS2_16InferenceContextEE_NS_9allocatorISA_EEFvS9_EED1Ev', symObjAddr: 0x1D660, symBinAddr: 0xDC1F74, symSize: 0x4 }
  - { offset: 0x34EB37, size: 0x8, addend: 0x0, symName: '__ZNSt3__110__function6__funcIZZN4onnxL26LpPoolOpSchemaGenerator_10EPKcENK3$_0clERNS2_8OpSchemaEEUlRNS2_16InferenceContextEE_NS_9allocatorISA_EEFvS9_EED0Ev', symObjAddr: 0x1D664, symBinAddr: 0xDC1F78, symSize: 0x4 }
  - { offset: 0x34EBEC, size: 0x8, addend: 0x0, symName: '__ZNKSt3__110__function6__funcIZZN4onnxL26LpPoolOpSchemaGenerator_10EPKcENK3$_0clERNS2_8OpSchemaEEUlRNS2_16InferenceContextEE_NS_9allocatorISA_EEFvS9_EE7__cloneEv', symObjAddr: 0x1D668, symBinAddr: 0xDC1F7C, symSize: 0x24 }
  - { offset: 0x34ED2F, size: 0x8, addend: 0x0, symName: '__ZNKSt3__110__function6__funcIZZN4onnxL26LpPoolOpSchemaGenerator_10EPKcENK3$_0clERNS2_8OpSchemaEEUlRNS2_16InferenceContextEE_NS_9allocatorISA_EEFvS9_EE7__cloneEPNS0_6__baseISD_EE', symObjAddr: 0x1D68C, symBinAddr: 0xDC1FA0, symSize: 0x10 }
  - { offset: 0x34ED63, size: 0x8, addend: 0x0, symName: '__ZNKSt3__110__function6__funcIZZN4onnxL26LpPoolOpSchemaGenerator_10EPKcENK3$_0clERNS2_8OpSchemaEEUlRNS2_16InferenceContextEE_NS_9allocatorISA_EEFvS9_EE7__cloneEPNS0_6__baseISD_EE', symObjAddr: 0x1D68C, symBinAddr: 0xDC1FA0, symSize: 0x10 }
  - { offset: 0x34ED7F, size: 0x8, addend: 0x0, symName: '__ZNKSt3__110__function6__funcIZZN4onnxL26LpPoolOpSchemaGenerator_10EPKcENK3$_0clERNS2_8OpSchemaEEUlRNS2_16InferenceContextEE_NS_9allocatorISA_EEFvS9_EE7__cloneEPNS0_6__baseISD_EE', symObjAddr: 0x1D68C, symBinAddr: 0xDC1FA0, symSize: 0x10 }
  - { offset: 0x34ED9B, size: 0x8, addend: 0x0, symName: '__ZNSt3__110__function6__funcIZZN4onnxL26LpPoolOpSchemaGenerator_10EPKcENK3$_0clERNS2_8OpSchemaEEUlRNS2_16InferenceContextEE_NS_9allocatorISA_EEFvS9_EE7destroyEv', symObjAddr: 0x1D69C, symBinAddr: 0xDC1FB0, symSize: 0x4 }
  - { offset: 0x34EDEA, size: 0x8, addend: 0x0, symName: '__ZNSt3__110__function6__funcIZZN4onnxL26LpPoolOpSchemaGenerator_10EPKcENK3$_0clERNS2_8OpSchemaEEUlRNS2_16InferenceContextEE_NS_9allocatorISA_EEFvS9_EE18destroy_deallocateEv', symObjAddr: 0x1D6A0, symBinAddr: 0xDC1FB4, symSize: 0x4 }
  - { offset: 0x34EE1D, size: 0x8, addend: 0x0, symName: '__ZNSt3__110__function6__funcIZZN4onnxL26LpPoolOpSchemaGenerator_10EPKcENK3$_0clERNS2_8OpSchemaEEUlRNS2_16InferenceContextEE_NS_9allocatorISA_EEFvS9_EE18destroy_deallocateEv', symObjAddr: 0x1D6A0, symBinAddr: 0xDC1FB4, symSize: 0x4 }
  - { offset: 0x34EE3F, size: 0x8, addend: 0x0, symName: '__ZNSt3__110__function6__funcIZZN4onnxL26LpPoolOpSchemaGenerator_10EPKcENK3$_0clERNS2_8OpSchemaEEUlRNS2_16InferenceContextEE_NS_9allocatorISA_EEFvS9_EE18destroy_deallocateEv', symObjAddr: 0x1D6A0, symBinAddr: 0xDC1FB4, symSize: 0x4 }
  - { offset: 0x34EE6A, size: 0x8, addend: 0x0, symName: '__ZNSt3__110__function6__funcIZZN4onnxL26LpPoolOpSchemaGenerator_10EPKcENK3$_0clERNS2_8OpSchemaEEUlRNS2_16InferenceContextEE_NS_9allocatorISA_EEFvS9_EE18destroy_deallocateEv', symObjAddr: 0x1D6A0, symBinAddr: 0xDC1FB4, symSize: 0x4 }
  - { offset: 0x34EE90, size: 0x8, addend: 0x0, symName: '__ZNSt3__110__function6__funcIZZN4onnxL26LpPoolOpSchemaGenerator_10EPKcENK3$_0clERNS2_8OpSchemaEEUlRNS2_16InferenceContextEE_NS_9allocatorISA_EEFvS9_EE18destroy_deallocateEv', symObjAddr: 0x1D6A0, symBinAddr: 0xDC1FB4, symSize: 0x4 }
  - { offset: 0x34EF3A, size: 0x8, addend: 0x0, symName: '__ZNSt3__110__function6__funcIZZN4onnxL26LpPoolOpSchemaGenerator_10EPKcENK3$_0clERNS2_8OpSchemaEEUlRNS2_16InferenceContextEE_NS_9allocatorISA_EEFvS9_EEclES9_', symObjAddr: 0x1D6A4, symBinAddr: 0xDC1FB8, symSize: 0x38 }
  - { offset: 0x34F01E, size: 0x8, addend: 0x0, symName: '__ZNKSt3__110__function6__funcIZZN4onnxL26LpPoolOpSchemaGenerator_10EPKcENK3$_0clERNS2_8OpSchemaEEUlRNS2_16InferenceContextEE_NS_9allocatorISA_EEFvS9_EE6targetERKSt9type_info', symObjAddr: 0x1D6DC, symBinAddr: 0xDC1FF0, symSize: 0x64 }
  - { offset: 0x34F0D1, size: 0x8, addend: 0x0, symName: '__ZNKSt3__110__function6__funcIZZN4onnxL26LpPoolOpSchemaGenerator_10EPKcENK3$_0clERNS2_8OpSchemaEEUlRNS2_16InferenceContextEE_NS_9allocatorISA_EEFvS9_EE11target_typeEv', symObjAddr: 0x1D740, symBinAddr: 0xDC2054, symSize: 0xC }
  - { offset: 0x34F0F4, size: 0x8, addend: 0x0, symName: '__ZNSt3__110__function6__funcIZN4onnxL26LpPoolOpSchemaGenerator_11EPKcE3$_0NS_9allocatorIS5_EEFvRNS2_8OpSchemaEEED1Ev', symObjAddr: 0x1D74C, symBinAddr: 0xDC2060, symSize: 0x4 }
  - { offset: 0x34F11F, size: 0x8, addend: 0x0, symName: '__ZNSt3__110__function6__funcIZN4onnxL26LpPoolOpSchemaGenerator_11EPKcE3$_0NS_9allocatorIS5_EEFvRNS2_8OpSchemaEEED0Ev', symObjAddr: 0x1D750, symBinAddr: 0xDC2064, symSize: 0x4 }
  - { offset: 0x34F1D4, size: 0x8, addend: 0x0, symName: '__ZNKSt3__110__function6__funcIZN4onnxL26LpPoolOpSchemaGenerator_11EPKcE3$_0NS_9allocatorIS5_EEFvRNS2_8OpSchemaEEE7__cloneEv', symObjAddr: 0x1D754, symBinAddr: 0xDC2068, symSize: 0x34 }
  - { offset: 0x34F31B, size: 0x8, addend: 0x0, symName: '__ZNKSt3__110__function6__funcIZN4onnxL26LpPoolOpSchemaGenerator_11EPKcE3$_0NS_9allocatorIS5_EEFvRNS2_8OpSchemaEEE7__cloneEPNS0_6__baseISA_EE', symObjAddr: 0x1D788, symBinAddr: 0xDC209C, symSize: 0x14 }
  - { offset: 0x34F389, size: 0x8, addend: 0x0, symName: '__ZNSt3__110__function6__funcIZN4onnxL26LpPoolOpSchemaGenerator_11EPKcE3$_0NS_9allocatorIS5_EEFvRNS2_8OpSchemaEEE7destroyEv', symObjAddr: 0x1D79C, symBinAddr: 0xDC20B0, symSize: 0x4 }
  - { offset: 0x34F3D8, size: 0x8, addend: 0x0, symName: '__ZNSt3__110__function6__funcIZN4onnxL26LpPoolOpSchemaGenerator_11EPKcE3$_0NS_9allocatorIS5_EEFvRNS2_8OpSchemaEEE18destroy_deallocateEv', symObjAddr: 0x1D7A0, symBinAddr: 0xDC20B4, symSize: 0x4 }
  - { offset: 0x34F40B, size: 0x8, addend: 0x0, symName: '__ZNSt3__110__function6__funcIZN4onnxL26LpPoolOpSchemaGenerator_11EPKcE3$_0NS_9allocatorIS5_EEFvRNS2_8OpSchemaEEE18destroy_deallocateEv', symObjAddr: 0x1D7A0, symBinAddr: 0xDC20B4, symSize: 0x4 }
  - { offset: 0x34F42D, size: 0x8, addend: 0x0, symName: '__ZNSt3__110__function6__funcIZN4onnxL26LpPoolOpSchemaGenerator_11EPKcE3$_0NS_9allocatorIS5_EEFvRNS2_8OpSchemaEEE18destroy_deallocateEv', symObjAddr: 0x1D7A0, symBinAddr: 0xDC20B4, symSize: 0x4 }
  - { offset: 0x34F458, size: 0x8, addend: 0x0, symName: '__ZNSt3__110__function6__funcIZN4onnxL26LpPoolOpSchemaGenerator_11EPKcE3$_0NS_9allocatorIS5_EEFvRNS2_8OpSchemaEEE18destroy_deallocateEv', symObjAddr: 0x1D7A0, symBinAddr: 0xDC20B4, symSize: 0x4 }
  - { offset: 0x34F47E, size: 0x8, addend: 0x0, symName: '__ZNSt3__110__function6__funcIZN4onnxL26LpPoolOpSchemaGenerator_11EPKcE3$_0NS_9allocatorIS5_EEFvRNS2_8OpSchemaEEE18destroy_deallocateEv', symObjAddr: 0x1D7A0, symBinAddr: 0xDC20B4, symSize: 0x4 }
  - { offset: 0x34F6DE, size: 0x8, addend: 0x0, symName: '__ZNSt3__110__function6__funcIZN4onnxL26LpPoolOpSchemaGenerator_11EPKcE3$_0NS_9allocatorIS5_EEFvRNS2_8OpSchemaEEEclES9_', symObjAddr: 0x1D7A4, symBinAddr: 0xDC20B8, symSize: 0x328 }
  - { offset: 0x350126, size: 0x8, addend: 0x0, symName: '__ZNKSt3__110__function6__funcIZN4onnxL26LpPoolOpSchemaGenerator_11EPKcE3$_0NS_9allocatorIS5_EEFvRNS2_8OpSchemaEEE6targetERKSt9type_info', symObjAddr: 0x1DACC, symBinAddr: 0xDC23E0, symSize: 0x64 }
  - { offset: 0x3501D9, size: 0x8, addend: 0x0, symName: '__ZNKSt3__110__function6__funcIZN4onnxL26LpPoolOpSchemaGenerator_11EPKcE3$_0NS_9allocatorIS5_EEFvRNS2_8OpSchemaEEE11target_typeEv', symObjAddr: 0x1DB30, symBinAddr: 0xDC2444, symSize: 0xC }
  - { offset: 0x3501FC, size: 0x8, addend: 0x0, symName: '__ZNSt3__110__function6__funcIZZN4onnxL26LpPoolOpSchemaGenerator_11EPKcENK3$_0clERNS2_8OpSchemaEEUlRNS2_16InferenceContextEE_NS_9allocatorISA_EEFvS9_EED1Ev', symObjAddr: 0x1DB3C, symBinAddr: 0xDC2450, symSize: 0x4 }
  - { offset: 0x350227, size: 0x8, addend: 0x0, symName: '__ZNSt3__110__function6__funcIZZN4onnxL26LpPoolOpSchemaGenerator_11EPKcENK3$_0clERNS2_8OpSchemaEEUlRNS2_16InferenceContextEE_NS_9allocatorISA_EEFvS9_EED0Ev', symObjAddr: 0x1DB40, symBinAddr: 0xDC2454, symSize: 0x4 }
  - { offset: 0x3502DC, size: 0x8, addend: 0x0, symName: '__ZNKSt3__110__function6__funcIZZN4onnxL26LpPoolOpSchemaGenerator_11EPKcENK3$_0clERNS2_8OpSchemaEEUlRNS2_16InferenceContextEE_NS_9allocatorISA_EEFvS9_EE7__cloneEv', symObjAddr: 0x1DB44, symBinAddr: 0xDC2458, symSize: 0x24 }
  - { offset: 0x35041F, size: 0x8, addend: 0x0, symName: '__ZNKSt3__110__function6__funcIZZN4onnxL26LpPoolOpSchemaGenerator_11EPKcENK3$_0clERNS2_8OpSchemaEEUlRNS2_16InferenceContextEE_NS_9allocatorISA_EEFvS9_EE7__cloneEPNS0_6__baseISD_EE', symObjAddr: 0x1DB68, symBinAddr: 0xDC247C, symSize: 0x10 }
  - { offset: 0x350453, size: 0x8, addend: 0x0, symName: '__ZNKSt3__110__function6__funcIZZN4onnxL26LpPoolOpSchemaGenerator_11EPKcENK3$_0clERNS2_8OpSchemaEEUlRNS2_16InferenceContextEE_NS_9allocatorISA_EEFvS9_EE7__cloneEPNS0_6__baseISD_EE', symObjAddr: 0x1DB68, symBinAddr: 0xDC247C, symSize: 0x10 }
  - { offset: 0x35046F, size: 0x8, addend: 0x0, symName: '__ZNKSt3__110__function6__funcIZZN4onnxL26LpPoolOpSchemaGenerator_11EPKcENK3$_0clERNS2_8OpSchemaEEUlRNS2_16InferenceContextEE_NS_9allocatorISA_EEFvS9_EE7__cloneEPNS0_6__baseISD_EE', symObjAddr: 0x1DB68, symBinAddr: 0xDC247C, symSize: 0x10 }
  - { offset: 0x35048B, size: 0x8, addend: 0x0, symName: '__ZNSt3__110__function6__funcIZZN4onnxL26LpPoolOpSchemaGenerator_11EPKcENK3$_0clERNS2_8OpSchemaEEUlRNS2_16InferenceContextEE_NS_9allocatorISA_EEFvS9_EE7destroyEv', symObjAddr: 0x1DB78, symBinAddr: 0xDC248C, symSize: 0x4 }
  - { offset: 0x3504DA, size: 0x8, addend: 0x0, symName: '__ZNSt3__110__function6__funcIZZN4onnxL26LpPoolOpSchemaGenerator_11EPKcENK3$_0clERNS2_8OpSchemaEEUlRNS2_16InferenceContextEE_NS_9allocatorISA_EEFvS9_EE18destroy_deallocateEv', symObjAddr: 0x1DB7C, symBinAddr: 0xDC2490, symSize: 0x4 }
  - { offset: 0x35050D, size: 0x8, addend: 0x0, symName: '__ZNSt3__110__function6__funcIZZN4onnxL26LpPoolOpSchemaGenerator_11EPKcENK3$_0clERNS2_8OpSchemaEEUlRNS2_16InferenceContextEE_NS_9allocatorISA_EEFvS9_EE18destroy_deallocateEv', symObjAddr: 0x1DB7C, symBinAddr: 0xDC2490, symSize: 0x4 }
  - { offset: 0x35052F, size: 0x8, addend: 0x0, symName: '__ZNSt3__110__function6__funcIZZN4onnxL26LpPoolOpSchemaGenerator_11EPKcENK3$_0clERNS2_8OpSchemaEEUlRNS2_16InferenceContextEE_NS_9allocatorISA_EEFvS9_EE18destroy_deallocateEv', symObjAddr: 0x1DB7C, symBinAddr: 0xDC2490, symSize: 0x4 }
  - { offset: 0x35055A, size: 0x8, addend: 0x0, symName: '__ZNSt3__110__function6__funcIZZN4onnxL26LpPoolOpSchemaGenerator_11EPKcENK3$_0clERNS2_8OpSchemaEEUlRNS2_16InferenceContextEE_NS_9allocatorISA_EEFvS9_EE18destroy_deallocateEv', symObjAddr: 0x1DB7C, symBinAddr: 0xDC2490, symSize: 0x4 }
  - { offset: 0x350580, size: 0x8, addend: 0x0, symName: '__ZNSt3__110__function6__funcIZZN4onnxL26LpPoolOpSchemaGenerator_11EPKcENK3$_0clERNS2_8OpSchemaEEUlRNS2_16InferenceContextEE_NS_9allocatorISA_EEFvS9_EE18destroy_deallocateEv', symObjAddr: 0x1DB7C, symBinAddr: 0xDC2490, symSize: 0x4 }
  - { offset: 0x35062A, size: 0x8, addend: 0x0, symName: '__ZNSt3__110__function6__funcIZZN4onnxL26LpPoolOpSchemaGenerator_11EPKcENK3$_0clERNS2_8OpSchemaEEUlRNS2_16InferenceContextEE_NS_9allocatorISA_EEFvS9_EEclES9_', symObjAddr: 0x1DB80, symBinAddr: 0xDC2494, symSize: 0x38 }
  - { offset: 0x35070E, size: 0x8, addend: 0x0, symName: '__ZNKSt3__110__function6__funcIZZN4onnxL26LpPoolOpSchemaGenerator_11EPKcENK3$_0clERNS2_8OpSchemaEEUlRNS2_16InferenceContextEE_NS_9allocatorISA_EEFvS9_EE6targetERKSt9type_info', symObjAddr: 0x1DBB8, symBinAddr: 0xDC24CC, symSize: 0x64 }
  - { offset: 0x3507C1, size: 0x8, addend: 0x0, symName: '__ZNKSt3__110__function6__funcIZZN4onnxL26LpPoolOpSchemaGenerator_11EPKcENK3$_0clERNS2_8OpSchemaEEUlRNS2_16InferenceContextEE_NS_9allocatorISA_EEFvS9_EE11target_typeEv', symObjAddr: 0x1DC1C, symBinAddr: 0xDC2530, symSize: 0xC }
  - { offset: 0x3507E4, size: 0x8, addend: 0x0, symName: '__ZNSt3__110__function6__funcIZN4onnxL24ConvOpSchemaGenerator_10EPKcE3$_0NS_9allocatorIS5_EEFvRNS2_8OpSchemaEEED1Ev', symObjAddr: 0x1DC28, symBinAddr: 0xDC253C, symSize: 0x4 }
  - { offset: 0x35080F, size: 0x8, addend: 0x0, symName: '__ZNSt3__110__function6__funcIZN4onnxL24ConvOpSchemaGenerator_10EPKcE3$_0NS_9allocatorIS5_EEFvRNS2_8OpSchemaEEED0Ev', symObjAddr: 0x1DC2C, symBinAddr: 0xDC2540, symSize: 0x4 }
  - { offset: 0x3508C4, size: 0x8, addend: 0x0, symName: '__ZNKSt3__110__function6__funcIZN4onnxL24ConvOpSchemaGenerator_10EPKcE3$_0NS_9allocatorIS5_EEFvRNS2_8OpSchemaEEE7__cloneEv', symObjAddr: 0x1DC30, symBinAddr: 0xDC2544, symSize: 0x34 }
  - { offset: 0x350A0B, size: 0x8, addend: 0x0, symName: '__ZNKSt3__110__function6__funcIZN4onnxL24ConvOpSchemaGenerator_10EPKcE3$_0NS_9allocatorIS5_EEFvRNS2_8OpSchemaEEE7__cloneEPNS0_6__baseISA_EE', symObjAddr: 0x1DC64, symBinAddr: 0xDC2578, symSize: 0x14 }
  - { offset: 0x350A79, size: 0x8, addend: 0x0, symName: '__ZNSt3__110__function6__funcIZN4onnxL24ConvOpSchemaGenerator_10EPKcE3$_0NS_9allocatorIS5_EEFvRNS2_8OpSchemaEEE7destroyEv', symObjAddr: 0x1DC78, symBinAddr: 0xDC258C, symSize: 0x4 }
  - { offset: 0x350AC8, size: 0x8, addend: 0x0, symName: '__ZNSt3__110__function6__funcIZN4onnxL24ConvOpSchemaGenerator_10EPKcE3$_0NS_9allocatorIS5_EEFvRNS2_8OpSchemaEEE18destroy_deallocateEv', symObjAddr: 0x1DC7C, symBinAddr: 0xDC2590, symSize: 0x4 }
  - { offset: 0x350AFB, size: 0x8, addend: 0x0, symName: '__ZNSt3__110__function6__funcIZN4onnxL24ConvOpSchemaGenerator_10EPKcE3$_0NS_9allocatorIS5_EEFvRNS2_8OpSchemaEEE18destroy_deallocateEv', symObjAddr: 0x1DC7C, symBinAddr: 0xDC2590, symSize: 0x4 }
  - { offset: 0x350B1D, size: 0x8, addend: 0x0, symName: '__ZNSt3__110__function6__funcIZN4onnxL24ConvOpSchemaGenerator_10EPKcE3$_0NS_9allocatorIS5_EEFvRNS2_8OpSchemaEEE18destroy_deallocateEv', symObjAddr: 0x1DC7C, symBinAddr: 0xDC2590, symSize: 0x4 }
  - { offset: 0x350B48, size: 0x8, addend: 0x0, symName: '__ZNSt3__110__function6__funcIZN4onnxL24ConvOpSchemaGenerator_10EPKcE3$_0NS_9allocatorIS5_EEFvRNS2_8OpSchemaEEE18destroy_deallocateEv', symObjAddr: 0x1DC7C, symBinAddr: 0xDC2590, symSize: 0x4 }
  - { offset: 0x350B6E, size: 0x8, addend: 0x0, symName: '__ZNSt3__110__function6__funcIZN4onnxL24ConvOpSchemaGenerator_10EPKcE3$_0NS_9allocatorIS5_EEFvRNS2_8OpSchemaEEE18destroy_deallocateEv', symObjAddr: 0x1DC7C, symBinAddr: 0xDC2590, symSize: 0x4 }
  - { offset: 0x350DCE, size: 0x8, addend: 0x0, symName: '__ZNSt3__110__function6__funcIZN4onnxL24ConvOpSchemaGenerator_10EPKcE3$_0NS_9allocatorIS5_EEFvRNS2_8OpSchemaEEEclES9_', symObjAddr: 0x1DC80, symBinAddr: 0xDC2594, symSize: 0x3AC }
  - { offset: 0x351815, size: 0x8, addend: 0x0, symName: '__ZNKSt3__110__function6__funcIZN4onnxL24ConvOpSchemaGenerator_10EPKcE3$_0NS_9allocatorIS5_EEFvRNS2_8OpSchemaEEE6targetERKSt9type_info', symObjAddr: 0x1E02C, symBinAddr: 0xDC2940, symSize: 0x64 }
  - { offset: 0x3518C8, size: 0x8, addend: 0x0, symName: '__ZNKSt3__110__function6__funcIZN4onnxL24ConvOpSchemaGenerator_10EPKcE3$_0NS_9allocatorIS5_EEFvRNS2_8OpSchemaEEE11target_typeEv', symObjAddr: 0x1E090, symBinAddr: 0xDC29A4, symSize: 0xC }
  - { offset: 0x3518EB, size: 0x8, addend: 0x0, symName: '__ZNSt3__110__function6__funcIZZN4onnxL24ConvOpSchemaGenerator_10EPKcENK3$_0clERNS2_8OpSchemaEEUlRNS2_16InferenceContextEE_NS_9allocatorISA_EEFvS9_EED1Ev', symObjAddr: 0x1E09C, symBinAddr: 0xDC29B0, symSize: 0x4 }
  - { offset: 0x351916, size: 0x8, addend: 0x0, symName: '__ZNSt3__110__function6__funcIZZN4onnxL24ConvOpSchemaGenerator_10EPKcENK3$_0clERNS2_8OpSchemaEEUlRNS2_16InferenceContextEE_NS_9allocatorISA_EEFvS9_EED0Ev', symObjAddr: 0x1E0A0, symBinAddr: 0xDC29B4, symSize: 0x4 }
  - { offset: 0x3519CB, size: 0x8, addend: 0x0, symName: '__ZNKSt3__110__function6__funcIZZN4onnxL24ConvOpSchemaGenerator_10EPKcENK3$_0clERNS2_8OpSchemaEEUlRNS2_16InferenceContextEE_NS_9allocatorISA_EEFvS9_EE7__cloneEv', symObjAddr: 0x1E0A4, symBinAddr: 0xDC29B8, symSize: 0x24 }
  - { offset: 0x351B0E, size: 0x8, addend: 0x0, symName: '__ZNKSt3__110__function6__funcIZZN4onnxL24ConvOpSchemaGenerator_10EPKcENK3$_0clERNS2_8OpSchemaEEUlRNS2_16InferenceContextEE_NS_9allocatorISA_EEFvS9_EE7__cloneEPNS0_6__baseISD_EE', symObjAddr: 0x1E0C8, symBinAddr: 0xDC29DC, symSize: 0x10 }
  - { offset: 0x351B42, size: 0x8, addend: 0x0, symName: '__ZNKSt3__110__function6__funcIZZN4onnxL24ConvOpSchemaGenerator_10EPKcENK3$_0clERNS2_8OpSchemaEEUlRNS2_16InferenceContextEE_NS_9allocatorISA_EEFvS9_EE7__cloneEPNS0_6__baseISD_EE', symObjAddr: 0x1E0C8, symBinAddr: 0xDC29DC, symSize: 0x10 }
  - { offset: 0x351B5E, size: 0x8, addend: 0x0, symName: '__ZNKSt3__110__function6__funcIZZN4onnxL24ConvOpSchemaGenerator_10EPKcENK3$_0clERNS2_8OpSchemaEEUlRNS2_16InferenceContextEE_NS_9allocatorISA_EEFvS9_EE7__cloneEPNS0_6__baseISD_EE', symObjAddr: 0x1E0C8, symBinAddr: 0xDC29DC, symSize: 0x10 }
  - { offset: 0x351B7A, size: 0x8, addend: 0x0, symName: '__ZNSt3__110__function6__funcIZZN4onnxL24ConvOpSchemaGenerator_10EPKcENK3$_0clERNS2_8OpSchemaEEUlRNS2_16InferenceContextEE_NS_9allocatorISA_EEFvS9_EE7destroyEv', symObjAddr: 0x1E0D8, symBinAddr: 0xDC29EC, symSize: 0x4 }
  - { offset: 0x351BC9, size: 0x8, addend: 0x0, symName: '__ZNSt3__110__function6__funcIZZN4onnxL24ConvOpSchemaGenerator_10EPKcENK3$_0clERNS2_8OpSchemaEEUlRNS2_16InferenceContextEE_NS_9allocatorISA_EEFvS9_EE18destroy_deallocateEv', symObjAddr: 0x1E0DC, symBinAddr: 0xDC29F0, symSize: 0x4 }
  - { offset: 0x351BFC, size: 0x8, addend: 0x0, symName: '__ZNSt3__110__function6__funcIZZN4onnxL24ConvOpSchemaGenerator_10EPKcENK3$_0clERNS2_8OpSchemaEEUlRNS2_16InferenceContextEE_NS_9allocatorISA_EEFvS9_EE18destroy_deallocateEv', symObjAddr: 0x1E0DC, symBinAddr: 0xDC29F0, symSize: 0x4 }
  - { offset: 0x351C1E, size: 0x8, addend: 0x0, symName: '__ZNSt3__110__function6__funcIZZN4onnxL24ConvOpSchemaGenerator_10EPKcENK3$_0clERNS2_8OpSchemaEEUlRNS2_16InferenceContextEE_NS_9allocatorISA_EEFvS9_EE18destroy_deallocateEv', symObjAddr: 0x1E0DC, symBinAddr: 0xDC29F0, symSize: 0x4 }
  - { offset: 0x351C49, size: 0x8, addend: 0x0, symName: '__ZNSt3__110__function6__funcIZZN4onnxL24ConvOpSchemaGenerator_10EPKcENK3$_0clERNS2_8OpSchemaEEUlRNS2_16InferenceContextEE_NS_9allocatorISA_EEFvS9_EE18destroy_deallocateEv', symObjAddr: 0x1E0DC, symBinAddr: 0xDC29F0, symSize: 0x4 }
  - { offset: 0x351C6F, size: 0x8, addend: 0x0, symName: '__ZNSt3__110__function6__funcIZZN4onnxL24ConvOpSchemaGenerator_10EPKcENK3$_0clERNS2_8OpSchemaEEUlRNS2_16InferenceContextEE_NS_9allocatorISA_EEFvS9_EE18destroy_deallocateEv', symObjAddr: 0x1E0DC, symBinAddr: 0xDC29F0, symSize: 0x4 }
  - { offset: 0x351D19, size: 0x8, addend: 0x0, symName: '__ZNSt3__110__function6__funcIZZN4onnxL24ConvOpSchemaGenerator_10EPKcENK3$_0clERNS2_8OpSchemaEEUlRNS2_16InferenceContextEE_NS_9allocatorISA_EEFvS9_EEclES9_', symObjAddr: 0x1E0E0, symBinAddr: 0xDC29F4, symSize: 0x38 }
  - { offset: 0x351DFD, size: 0x8, addend: 0x0, symName: '__ZNKSt3__110__function6__funcIZZN4onnxL24ConvOpSchemaGenerator_10EPKcENK3$_0clERNS2_8OpSchemaEEUlRNS2_16InferenceContextEE_NS_9allocatorISA_EEFvS9_EE6targetERKSt9type_info', symObjAddr: 0x1E118, symBinAddr: 0xDC2A2C, symSize: 0x64 }
  - { offset: 0x351EB0, size: 0x8, addend: 0x0, symName: '__ZNKSt3__110__function6__funcIZZN4onnxL24ConvOpSchemaGenerator_10EPKcENK3$_0clERNS2_8OpSchemaEEUlRNS2_16InferenceContextEE_NS_9allocatorISA_EEFvS9_EE11target_typeEv', symObjAddr: 0x1E17C, symBinAddr: 0xDC2A90, symSize: 0xC }
  - { offset: 0x351ED3, size: 0x8, addend: 0x0, symName: '__ZNSt3__110__function6__funcIZN4onnxL33ConvTransposeOpSchemaGenerator_10EPKcE3$_0NS_9allocatorIS5_EEFvRNS2_8OpSchemaEEED1Ev', symObjAddr: 0x1E188, symBinAddr: 0xDC2A9C, symSize: 0x4 }
  - { offset: 0x351EFE, size: 0x8, addend: 0x0, symName: '__ZNSt3__110__function6__funcIZN4onnxL33ConvTransposeOpSchemaGenerator_10EPKcE3$_0NS_9allocatorIS5_EEFvRNS2_8OpSchemaEEED0Ev', symObjAddr: 0x1E18C, symBinAddr: 0xDC2AA0, symSize: 0x4 }
  - { offset: 0x351FB3, size: 0x8, addend: 0x0, symName: '__ZNKSt3__110__function6__funcIZN4onnxL33ConvTransposeOpSchemaGenerator_10EPKcE3$_0NS_9allocatorIS5_EEFvRNS2_8OpSchemaEEE7__cloneEv', symObjAddr: 0x1E190, symBinAddr: 0xDC2AA4, symSize: 0x34 }
  - { offset: 0x3520FA, size: 0x8, addend: 0x0, symName: '__ZNKSt3__110__function6__funcIZN4onnxL33ConvTransposeOpSchemaGenerator_10EPKcE3$_0NS_9allocatorIS5_EEFvRNS2_8OpSchemaEEE7__cloneEPNS0_6__baseISA_EE', symObjAddr: 0x1E1C4, symBinAddr: 0xDC2AD8, symSize: 0x14 }
  - { offset: 0x352168, size: 0x8, addend: 0x0, symName: '__ZNSt3__110__function6__funcIZN4onnxL33ConvTransposeOpSchemaGenerator_10EPKcE3$_0NS_9allocatorIS5_EEFvRNS2_8OpSchemaEEE7destroyEv', symObjAddr: 0x1E1D8, symBinAddr: 0xDC2AEC, symSize: 0x4 }
  - { offset: 0x3521B7, size: 0x8, addend: 0x0, symName: '__ZNSt3__110__function6__funcIZN4onnxL33ConvTransposeOpSchemaGenerator_10EPKcE3$_0NS_9allocatorIS5_EEFvRNS2_8OpSchemaEEE18destroy_deallocateEv', symObjAddr: 0x1E1DC, symBinAddr: 0xDC2AF0, symSize: 0x4 }
  - { offset: 0x3521EA, size: 0x8, addend: 0x0, symName: '__ZNSt3__110__function6__funcIZN4onnxL33ConvTransposeOpSchemaGenerator_10EPKcE3$_0NS_9allocatorIS5_EEFvRNS2_8OpSchemaEEE18destroy_deallocateEv', symObjAddr: 0x1E1DC, symBinAddr: 0xDC2AF0, symSize: 0x4 }
  - { offset: 0x35220C, size: 0x8, addend: 0x0, symName: '__ZNSt3__110__function6__funcIZN4onnxL33ConvTransposeOpSchemaGenerator_10EPKcE3$_0NS_9allocatorIS5_EEFvRNS2_8OpSchemaEEE18destroy_deallocateEv', symObjAddr: 0x1E1DC, symBinAddr: 0xDC2AF0, symSize: 0x4 }
  - { offset: 0x352237, size: 0x8, addend: 0x0, symName: '__ZNSt3__110__function6__funcIZN4onnxL33ConvTransposeOpSchemaGenerator_10EPKcE3$_0NS_9allocatorIS5_EEFvRNS2_8OpSchemaEEE18destroy_deallocateEv', symObjAddr: 0x1E1DC, symBinAddr: 0xDC2AF0, symSize: 0x4 }
  - { offset: 0x35225D, size: 0x8, addend: 0x0, symName: '__ZNSt3__110__function6__funcIZN4onnxL33ConvTransposeOpSchemaGenerator_10EPKcE3$_0NS_9allocatorIS5_EEFvRNS2_8OpSchemaEEE18destroy_deallocateEv', symObjAddr: 0x1E1DC, symBinAddr: 0xDC2AF0, symSize: 0x4 }
  - { offset: 0x3524BD, size: 0x8, addend: 0x0, symName: '__ZNSt3__110__function6__funcIZN4onnxL33ConvTransposeOpSchemaGenerator_10EPKcE3$_0NS_9allocatorIS5_EEFvRNS2_8OpSchemaEEEclES9_', symObjAddr: 0x1E1E0, symBinAddr: 0xDC2AF4, symSize: 0x3EC }
  - { offset: 0x352F05, size: 0x8, addend: 0x0, symName: '__ZNKSt3__110__function6__funcIZN4onnxL33ConvTransposeOpSchemaGenerator_10EPKcE3$_0NS_9allocatorIS5_EEFvRNS2_8OpSchemaEEE6targetERKSt9type_info', symObjAddr: 0x1E5CC, symBinAddr: 0xDC2EE0, symSize: 0x64 }
  - { offset: 0x352FB8, size: 0x8, addend: 0x0, symName: '__ZNKSt3__110__function6__funcIZN4onnxL33ConvTransposeOpSchemaGenerator_10EPKcE3$_0NS_9allocatorIS5_EEFvRNS2_8OpSchemaEEE11target_typeEv', symObjAddr: 0x1E630, symBinAddr: 0xDC2F44, symSize: 0xC }
  - { offset: 0x352FDB, size: 0x8, addend: 0x0, symName: '__ZNSt3__110__function6__funcIZZN4onnxL33ConvTransposeOpSchemaGenerator_10EPKcENK3$_0clERNS2_8OpSchemaEEUlRNS2_16InferenceContextEE_NS_9allocatorISA_EEFvS9_EED1Ev', symObjAddr: 0x1E63C, symBinAddr: 0xDC2F50, symSize: 0x4 }
  - { offset: 0x353006, size: 0x8, addend: 0x0, symName: '__ZNSt3__110__function6__funcIZZN4onnxL33ConvTransposeOpSchemaGenerator_10EPKcENK3$_0clERNS2_8OpSchemaEEUlRNS2_16InferenceContextEE_NS_9allocatorISA_EEFvS9_EED0Ev', symObjAddr: 0x1E640, symBinAddr: 0xDC2F54, symSize: 0x4 }
  - { offset: 0x3530BB, size: 0x8, addend: 0x0, symName: '__ZNKSt3__110__function6__funcIZZN4onnxL33ConvTransposeOpSchemaGenerator_10EPKcENK3$_0clERNS2_8OpSchemaEEUlRNS2_16InferenceContextEE_NS_9allocatorISA_EEFvS9_EE7__cloneEv', symObjAddr: 0x1E644, symBinAddr: 0xDC2F58, symSize: 0x24 }
  - { offset: 0x3531FE, size: 0x8, addend: 0x0, symName: '__ZNKSt3__110__function6__funcIZZN4onnxL33ConvTransposeOpSchemaGenerator_10EPKcENK3$_0clERNS2_8OpSchemaEEUlRNS2_16InferenceContextEE_NS_9allocatorISA_EEFvS9_EE7__cloneEPNS0_6__baseISD_EE', symObjAddr: 0x1E668, symBinAddr: 0xDC2F7C, symSize: 0x10 }
  - { offset: 0x353232, size: 0x8, addend: 0x0, symName: '__ZNKSt3__110__function6__funcIZZN4onnxL33ConvTransposeOpSchemaGenerator_10EPKcENK3$_0clERNS2_8OpSchemaEEUlRNS2_16InferenceContextEE_NS_9allocatorISA_EEFvS9_EE7__cloneEPNS0_6__baseISD_EE', symObjAddr: 0x1E668, symBinAddr: 0xDC2F7C, symSize: 0x10 }
  - { offset: 0x35324E, size: 0x8, addend: 0x0, symName: '__ZNKSt3__110__function6__funcIZZN4onnxL33ConvTransposeOpSchemaGenerator_10EPKcENK3$_0clERNS2_8OpSchemaEEUlRNS2_16InferenceContextEE_NS_9allocatorISA_EEFvS9_EE7__cloneEPNS0_6__baseISD_EE', symObjAddr: 0x1E668, symBinAddr: 0xDC2F7C, symSize: 0x10 }
  - { offset: 0x35326A, size: 0x8, addend: 0x0, symName: '__ZNSt3__110__function6__funcIZZN4onnxL33ConvTransposeOpSchemaGenerator_10EPKcENK3$_0clERNS2_8OpSchemaEEUlRNS2_16InferenceContextEE_NS_9allocatorISA_EEFvS9_EE7destroyEv', symObjAddr: 0x1E678, symBinAddr: 0xDC2F8C, symSize: 0x4 }
  - { offset: 0x3532B9, size: 0x8, addend: 0x0, symName: '__ZNSt3__110__function6__funcIZZN4onnxL33ConvTransposeOpSchemaGenerator_10EPKcENK3$_0clERNS2_8OpSchemaEEUlRNS2_16InferenceContextEE_NS_9allocatorISA_EEFvS9_EE18destroy_deallocateEv', symObjAddr: 0x1E67C, symBinAddr: 0xDC2F90, symSize: 0x4 }
  - { offset: 0x3532EC, size: 0x8, addend: 0x0, symName: '__ZNSt3__110__function6__funcIZZN4onnxL33ConvTransposeOpSchemaGenerator_10EPKcENK3$_0clERNS2_8OpSchemaEEUlRNS2_16InferenceContextEE_NS_9allocatorISA_EEFvS9_EE18destroy_deallocateEv', symObjAddr: 0x1E67C, symBinAddr: 0xDC2F90, symSize: 0x4 }
  - { offset: 0x35330E, size: 0x8, addend: 0x0, symName: '__ZNSt3__110__function6__funcIZZN4onnxL33ConvTransposeOpSchemaGenerator_10EPKcENK3$_0clERNS2_8OpSchemaEEUlRNS2_16InferenceContextEE_NS_9allocatorISA_EEFvS9_EE18destroy_deallocateEv', symObjAddr: 0x1E67C, symBinAddr: 0xDC2F90, symSize: 0x4 }
  - { offset: 0x353339, size: 0x8, addend: 0x0, symName: '__ZNSt3__110__function6__funcIZZN4onnxL33ConvTransposeOpSchemaGenerator_10EPKcENK3$_0clERNS2_8OpSchemaEEUlRNS2_16InferenceContextEE_NS_9allocatorISA_EEFvS9_EE18destroy_deallocateEv', symObjAddr: 0x1E67C, symBinAddr: 0xDC2F90, symSize: 0x4 }
  - { offset: 0x35335F, size: 0x8, addend: 0x0, symName: '__ZNSt3__110__function6__funcIZZN4onnxL33ConvTransposeOpSchemaGenerator_10EPKcENK3$_0clERNS2_8OpSchemaEEUlRNS2_16InferenceContextEE_NS_9allocatorISA_EEFvS9_EE18destroy_deallocateEv', symObjAddr: 0x1E67C, symBinAddr: 0xDC2F90, symSize: 0x4 }
  - { offset: 0x353409, size: 0x8, addend: 0x0, symName: '__ZNSt3__110__function6__funcIZZN4onnxL33ConvTransposeOpSchemaGenerator_10EPKcENK3$_0clERNS2_8OpSchemaEEUlRNS2_16InferenceContextEE_NS_9allocatorISA_EEFvS9_EEclES9_', symObjAddr: 0x1E680, symBinAddr: 0xDC2F94, symSize: 0x166C }
  - { offset: 0x359D8D, size: 0x8, addend: 0x0, symName: '__ZNKSt3__110__function6__funcIZZN4onnxL33ConvTransposeOpSchemaGenerator_10EPKcENK3$_0clERNS2_8OpSchemaEEUlRNS2_16InferenceContextEE_NS_9allocatorISA_EEFvS9_EE6targetERKSt9type_info', symObjAddr: 0x1FCEC, symBinAddr: 0xDC4600, symSize: 0x64 }
  - { offset: 0x359E40, size: 0x8, addend: 0x0, symName: '__ZNKSt3__110__function6__funcIZZN4onnxL33ConvTransposeOpSchemaGenerator_10EPKcENK3$_0clERNS2_8OpSchemaEEUlRNS2_16InferenceContextEE_NS_9allocatorISA_EEFvS9_EE11target_typeEv', symObjAddr: 0x1FD50, symBinAddr: 0xDC4664, symSize: 0xC }
  - { offset: 0x359E63, size: 0x8, addend: 0x0, symName: '__ZNSt3__110__function6__funcIZN4onnx11GetOpSchemaINS2_18Dropout_Onnx_ver13EEENS2_8OpSchemaEvE3$_0NS_9allocatorIS6_EEFvRNS2_16InferenceContextEEED1Ev', symObjAddr: 0x1FE30, symBinAddr: 0xDC4670, symSize: 0x4 }
  - { offset: 0x359E8E, size: 0x8, addend: 0x0, symName: '__ZNSt3__110__function6__funcIZN4onnx11GetOpSchemaINS2_18Dropout_Onnx_ver13EEENS2_8OpSchemaEvE3$_0NS_9allocatorIS6_EEFvRNS2_16InferenceContextEEED0Ev', symObjAddr: 0x1FE34, symBinAddr: 0xDC4674, symSize: 0x4 }
  - { offset: 0x359F43, size: 0x8, addend: 0x0, symName: '__ZNKSt3__110__function6__funcIZN4onnx11GetOpSchemaINS2_18Dropout_Onnx_ver13EEENS2_8OpSchemaEvE3$_0NS_9allocatorIS6_EEFvRNS2_16InferenceContextEEE7__cloneEv', symObjAddr: 0x1FE38, symBinAddr: 0xDC4678, symSize: 0x24 }
  - { offset: 0x35A086, size: 0x8, addend: 0x0, symName: '__ZNKSt3__110__function6__funcIZN4onnx11GetOpSchemaINS2_18Dropout_Onnx_ver13EEENS2_8OpSchemaEvE3$_0NS_9allocatorIS6_EEFvRNS2_16InferenceContextEEE7__cloneEPNS0_6__baseISB_EE', symObjAddr: 0x1FE5C, symBinAddr: 0xDC469C, symSize: 0x10 }
  - { offset: 0x35A0BA, size: 0x8, addend: 0x0, symName: '__ZNKSt3__110__function6__funcIZN4onnx11GetOpSchemaINS2_18Dropout_Onnx_ver13EEENS2_8OpSchemaEvE3$_0NS_9allocatorIS6_EEFvRNS2_16InferenceContextEEE7__cloneEPNS0_6__baseISB_EE', symObjAddr: 0x1FE5C, symBinAddr: 0xDC469C, symSize: 0x10 }
  - { offset: 0x35A0D6, size: 0x8, addend: 0x0, symName: '__ZNKSt3__110__function6__funcIZN4onnx11GetOpSchemaINS2_18Dropout_Onnx_ver13EEENS2_8OpSchemaEvE3$_0NS_9allocatorIS6_EEFvRNS2_16InferenceContextEEE7__cloneEPNS0_6__baseISB_EE', symObjAddr: 0x1FE5C, symBinAddr: 0xDC469C, symSize: 0x10 }
  - { offset: 0x35A0F2, size: 0x8, addend: 0x0, symName: '__ZNSt3__110__function6__funcIZN4onnx11GetOpSchemaINS2_18Dropout_Onnx_ver13EEENS2_8OpSchemaEvE3$_0NS_9allocatorIS6_EEFvRNS2_16InferenceContextEEE7destroyEv', symObjAddr: 0x1FE6C, symBinAddr: 0xDC46AC, symSize: 0x4 }
  - { offset: 0x35A141, size: 0x8, addend: 0x0, symName: '__ZNSt3__110__function6__funcIZN4onnx11GetOpSchemaINS2_18Dropout_Onnx_ver13EEENS2_8OpSchemaEvE3$_0NS_9allocatorIS6_EEFvRNS2_16InferenceContextEEE18destroy_deallocateEv', symObjAddr: 0x1FE70, symBinAddr: 0xDC46B0, symSize: 0x4 }
  - { offset: 0x35A174, size: 0x8, addend: 0x0, symName: '__ZNSt3__110__function6__funcIZN4onnx11GetOpSchemaINS2_18Dropout_Onnx_ver13EEENS2_8OpSchemaEvE3$_0NS_9allocatorIS6_EEFvRNS2_16InferenceContextEEE18destroy_deallocateEv', symObjAddr: 0x1FE70, symBinAddr: 0xDC46B0, symSize: 0x4 }
  - { offset: 0x35A196, size: 0x8, addend: 0x0, symName: '__ZNSt3__110__function6__funcIZN4onnx11GetOpSchemaINS2_18Dropout_Onnx_ver13EEENS2_8OpSchemaEvE3$_0NS_9allocatorIS6_EEFvRNS2_16InferenceContextEEE18destroy_deallocateEv', symObjAddr: 0x1FE70, symBinAddr: 0xDC46B0, symSize: 0x4 }
  - { offset: 0x35A1C1, size: 0x8, addend: 0x0, symName: '__ZNSt3__110__function6__funcIZN4onnx11GetOpSchemaINS2_18Dropout_Onnx_ver13EEENS2_8OpSchemaEvE3$_0NS_9allocatorIS6_EEFvRNS2_16InferenceContextEEE18destroy_deallocateEv', symObjAddr: 0x1FE70, symBinAddr: 0xDC46B0, symSize: 0x4 }
  - { offset: 0x35A1E7, size: 0x8, addend: 0x0, symName: '__ZNSt3__110__function6__funcIZN4onnx11GetOpSchemaINS2_18Dropout_Onnx_ver13EEENS2_8OpSchemaEvE3$_0NS_9allocatorIS6_EEFvRNS2_16InferenceContextEEE18destroy_deallocateEv', symObjAddr: 0x1FE70, symBinAddr: 0xDC46B0, symSize: 0x4 }
  - { offset: 0x35A2AD, size: 0x8, addend: 0x0, symName: '__ZNSt3__110__function6__funcIZN4onnx11GetOpSchemaINS2_18Dropout_Onnx_ver13EEENS2_8OpSchemaEvE3$_0NS_9allocatorIS6_EEFvRNS2_16InferenceContextEEEclESA_', symObjAddr: 0x1FE74, symBinAddr: 0xDC46B4, symSize: 0x518 }
  - { offset: 0x35AC9B, size: 0x8, addend: 0x0, symName: '__ZNKSt3__110__function6__funcIZN4onnx11GetOpSchemaINS2_18Dropout_Onnx_ver13EEENS2_8OpSchemaEvE3$_0NS_9allocatorIS6_EEFvRNS2_16InferenceContextEEE6targetERKSt9type_info', symObjAddr: 0x2038C, symBinAddr: 0xDC4BCC, symSize: 0x64 }
  - { offset: 0x35AD4E, size: 0x8, addend: 0x0, symName: '__ZNKSt3__110__function6__funcIZN4onnx11GetOpSchemaINS2_18Dropout_Onnx_ver13EEENS2_8OpSchemaEvE3$_0NS_9allocatorIS6_EEFvRNS2_16InferenceContextEEE11target_typeEv', symObjAddr: 0x203F0, symBinAddr: 0xDC4C30, symSize: 0xC }
  - { offset: 0x35ADEE, size: 0x8, addend: 0x0, symName: '__ZNSt3__110__function6__funcIZN4onnx11GetOpSchemaINS2_25LpNormalization_Onnx_ver1EEENS2_8OpSchemaEvE3$_0NS_9allocatorIS6_EEFvRNS2_16InferenceContextEEED1Ev', symObjAddr: 0x20D90, symBinAddr: 0xDC4C3C, symSize: 0x4 }
  - { offset: 0x35AE19, size: 0x8, addend: 0x0, symName: '__ZNSt3__110__function6__funcIZN4onnx11GetOpSchemaINS2_25LpNormalization_Onnx_ver1EEENS2_8OpSchemaEvE3$_0NS_9allocatorIS6_EEFvRNS2_16InferenceContextEEED0Ev', symObjAddr: 0x20D94, symBinAddr: 0xDC4C40, symSize: 0x4 }
  - { offset: 0x35AECE, size: 0x8, addend: 0x0, symName: '__ZNKSt3__110__function6__funcIZN4onnx11GetOpSchemaINS2_25LpNormalization_Onnx_ver1EEENS2_8OpSchemaEvE3$_0NS_9allocatorIS6_EEFvRNS2_16InferenceContextEEE7__cloneEv', symObjAddr: 0x20D98, symBinAddr: 0xDC4C44, symSize: 0x24 }
  - { offset: 0x35B011, size: 0x8, addend: 0x0, symName: '__ZNKSt3__110__function6__funcIZN4onnx11GetOpSchemaINS2_25LpNormalization_Onnx_ver1EEENS2_8OpSchemaEvE3$_0NS_9allocatorIS6_EEFvRNS2_16InferenceContextEEE7__cloneEPNS0_6__baseISB_EE', symObjAddr: 0x20DBC, symBinAddr: 0xDC4C68, symSize: 0x10 }
  - { offset: 0x35B045, size: 0x8, addend: 0x0, symName: '__ZNKSt3__110__function6__funcIZN4onnx11GetOpSchemaINS2_25LpNormalization_Onnx_ver1EEENS2_8OpSchemaEvE3$_0NS_9allocatorIS6_EEFvRNS2_16InferenceContextEEE7__cloneEPNS0_6__baseISB_EE', symObjAddr: 0x20DBC, symBinAddr: 0xDC4C68, symSize: 0x10 }
  - { offset: 0x35B061, size: 0x8, addend: 0x0, symName: '__ZNKSt3__110__function6__funcIZN4onnx11GetOpSchemaINS2_25LpNormalization_Onnx_ver1EEENS2_8OpSchemaEvE3$_0NS_9allocatorIS6_EEFvRNS2_16InferenceContextEEE7__cloneEPNS0_6__baseISB_EE', symObjAddr: 0x20DBC, symBinAddr: 0xDC4C68, symSize: 0x10 }
  - { offset: 0x35B07D, size: 0x8, addend: 0x0, symName: '__ZNSt3__110__function6__funcIZN4onnx11GetOpSchemaINS2_25LpNormalization_Onnx_ver1EEENS2_8OpSchemaEvE3$_0NS_9allocatorIS6_EEFvRNS2_16InferenceContextEEE7destroyEv', symObjAddr: 0x20DCC, symBinAddr: 0xDC4C78, symSize: 0x4 }
  - { offset: 0x35B0CC, size: 0x8, addend: 0x0, symName: '__ZNSt3__110__function6__funcIZN4onnx11GetOpSchemaINS2_25LpNormalization_Onnx_ver1EEENS2_8OpSchemaEvE3$_0NS_9allocatorIS6_EEFvRNS2_16InferenceContextEEE18destroy_deallocateEv', symObjAddr: 0x20DD0, symBinAddr: 0xDC4C7C, symSize: 0x4 }
  - { offset: 0x35B0FF, size: 0x8, addend: 0x0, symName: '__ZNSt3__110__function6__funcIZN4onnx11GetOpSchemaINS2_25LpNormalization_Onnx_ver1EEENS2_8OpSchemaEvE3$_0NS_9allocatorIS6_EEFvRNS2_16InferenceContextEEE18destroy_deallocateEv', symObjAddr: 0x20DD0, symBinAddr: 0xDC4C7C, symSize: 0x4 }
  - { offset: 0x35B121, size: 0x8, addend: 0x0, symName: '__ZNSt3__110__function6__funcIZN4onnx11GetOpSchemaINS2_25LpNormalization_Onnx_ver1EEENS2_8OpSchemaEvE3$_0NS_9allocatorIS6_EEFvRNS2_16InferenceContextEEE18destroy_deallocateEv', symObjAddr: 0x20DD0, symBinAddr: 0xDC4C7C, symSize: 0x4 }
  - { offset: 0x35B14C, size: 0x8, addend: 0x0, symName: '__ZNSt3__110__function6__funcIZN4onnx11GetOpSchemaINS2_25LpNormalization_Onnx_ver1EEENS2_8OpSchemaEvE3$_0NS_9allocatorIS6_EEFvRNS2_16InferenceContextEEE18destroy_deallocateEv', symObjAddr: 0x20DD0, symBinAddr: 0xDC4C7C, symSize: 0x4 }
  - { offset: 0x35B172, size: 0x8, addend: 0x0, symName: '__ZNSt3__110__function6__funcIZN4onnx11GetOpSchemaINS2_25LpNormalization_Onnx_ver1EEENS2_8OpSchemaEvE3$_0NS_9allocatorIS6_EEFvRNS2_16InferenceContextEEE18destroy_deallocateEv', symObjAddr: 0x20DD0, symBinAddr: 0xDC4C7C, symSize: 0x4 }
  - { offset: 0x35B21C, size: 0x8, addend: 0x0, symName: '__ZNSt3__110__function6__funcIZN4onnx11GetOpSchemaINS2_25LpNormalization_Onnx_ver1EEENS2_8OpSchemaEvE3$_0NS_9allocatorIS6_EEFvRNS2_16InferenceContextEEEclESA_', symObjAddr: 0x20DD4, symBinAddr: 0xDC4C80, symSize: 0x8 }
  - { offset: 0x35B2D6, size: 0x8, addend: 0x0, symName: '__ZNKSt3__110__function6__funcIZN4onnx11GetOpSchemaINS2_25LpNormalization_Onnx_ver1EEENS2_8OpSchemaEvE3$_0NS_9allocatorIS6_EEFvRNS2_16InferenceContextEEE6targetERKSt9type_info', symObjAddr: 0x20DDC, symBinAddr: 0xDC4C88, symSize: 0x64 }
  - { offset: 0x35B389, size: 0x8, addend: 0x0, symName: '__ZNKSt3__110__function6__funcIZN4onnx11GetOpSchemaINS2_25LpNormalization_Onnx_ver1EEENS2_8OpSchemaEvE3$_0NS_9allocatorIS6_EEFvRNS2_16InferenceContextEEE11target_typeEv', symObjAddr: 0x20E40, symBinAddr: 0xDC4CEC, symSize: 0xC }
  - { offset: 0x35B3AC, size: 0x8, addend: 0x0, symName: '__ZNSt3__110__function6__funcIZN4onnx11GetOpSchemaINS2_31InstanceNormalization_Onnx_ver6EEENS2_8OpSchemaEvE3$_0NS_9allocatorIS6_EEFvRNS2_16InferenceContextEEED1Ev', symObjAddr: 0x20E4C, symBinAddr: 0xDC4CF8, symSize: 0x4 }
  - { offset: 0x35B3D7, size: 0x8, addend: 0x0, symName: '__ZNSt3__110__function6__funcIZN4onnx11GetOpSchemaINS2_31InstanceNormalization_Onnx_ver6EEENS2_8OpSchemaEvE3$_0NS_9allocatorIS6_EEFvRNS2_16InferenceContextEEED0Ev', symObjAddr: 0x20E50, symBinAddr: 0xDC4CFC, symSize: 0x4 }
  - { offset: 0x35B48C, size: 0x8, addend: 0x0, symName: '__ZNKSt3__110__function6__funcIZN4onnx11GetOpSchemaINS2_31InstanceNormalization_Onnx_ver6EEENS2_8OpSchemaEvE3$_0NS_9allocatorIS6_EEFvRNS2_16InferenceContextEEE7__cloneEv', symObjAddr: 0x20E54, symBinAddr: 0xDC4D00, symSize: 0x24 }
  - { offset: 0x35B5CF, size: 0x8, addend: 0x0, symName: '__ZNKSt3__110__function6__funcIZN4onnx11GetOpSchemaINS2_31InstanceNormalization_Onnx_ver6EEENS2_8OpSchemaEvE3$_0NS_9allocatorIS6_EEFvRNS2_16InferenceContextEEE7__cloneEPNS0_6__baseISB_EE', symObjAddr: 0x20E78, symBinAddr: 0xDC4D24, symSize: 0x10 }
  - { offset: 0x35B603, size: 0x8, addend: 0x0, symName: '__ZNKSt3__110__function6__funcIZN4onnx11GetOpSchemaINS2_31InstanceNormalization_Onnx_ver6EEENS2_8OpSchemaEvE3$_0NS_9allocatorIS6_EEFvRNS2_16InferenceContextEEE7__cloneEPNS0_6__baseISB_EE', symObjAddr: 0x20E78, symBinAddr: 0xDC4D24, symSize: 0x10 }
  - { offset: 0x35B61F, size: 0x8, addend: 0x0, symName: '__ZNKSt3__110__function6__funcIZN4onnx11GetOpSchemaINS2_31InstanceNormalization_Onnx_ver6EEENS2_8OpSchemaEvE3$_0NS_9allocatorIS6_EEFvRNS2_16InferenceContextEEE7__cloneEPNS0_6__baseISB_EE', symObjAddr: 0x20E78, symBinAddr: 0xDC4D24, symSize: 0x10 }
  - { offset: 0x35B63B, size: 0x8, addend: 0x0, symName: '__ZNSt3__110__function6__funcIZN4onnx11GetOpSchemaINS2_31InstanceNormalization_Onnx_ver6EEENS2_8OpSchemaEvE3$_0NS_9allocatorIS6_EEFvRNS2_16InferenceContextEEE7destroyEv', symObjAddr: 0x20E88, symBinAddr: 0xDC4D34, symSize: 0x4 }
  - { offset: 0x35B68A, size: 0x8, addend: 0x0, symName: '__ZNSt3__110__function6__funcIZN4onnx11GetOpSchemaINS2_31InstanceNormalization_Onnx_ver6EEENS2_8OpSchemaEvE3$_0NS_9allocatorIS6_EEFvRNS2_16InferenceContextEEE18destroy_deallocateEv', symObjAddr: 0x20E8C, symBinAddr: 0xDC4D38, symSize: 0x4 }
  - { offset: 0x35B6BD, size: 0x8, addend: 0x0, symName: '__ZNSt3__110__function6__funcIZN4onnx11GetOpSchemaINS2_31InstanceNormalization_Onnx_ver6EEENS2_8OpSchemaEvE3$_0NS_9allocatorIS6_EEFvRNS2_16InferenceContextEEE18destroy_deallocateEv', symObjAddr: 0x20E8C, symBinAddr: 0xDC4D38, symSize: 0x4 }
  - { offset: 0x35B6DF, size: 0x8, addend: 0x0, symName: '__ZNSt3__110__function6__funcIZN4onnx11GetOpSchemaINS2_31InstanceNormalization_Onnx_ver6EEENS2_8OpSchemaEvE3$_0NS_9allocatorIS6_EEFvRNS2_16InferenceContextEEE18destroy_deallocateEv', symObjAddr: 0x20E8C, symBinAddr: 0xDC4D38, symSize: 0x4 }
  - { offset: 0x35B70A, size: 0x8, addend: 0x0, symName: '__ZNSt3__110__function6__funcIZN4onnx11GetOpSchemaINS2_31InstanceNormalization_Onnx_ver6EEENS2_8OpSchemaEvE3$_0NS_9allocatorIS6_EEFvRNS2_16InferenceContextEEE18destroy_deallocateEv', symObjAddr: 0x20E8C, symBinAddr: 0xDC4D38, symSize: 0x4 }
  - { offset: 0x35B730, size: 0x8, addend: 0x0, symName: '__ZNSt3__110__function6__funcIZN4onnx11GetOpSchemaINS2_31InstanceNormalization_Onnx_ver6EEENS2_8OpSchemaEvE3$_0NS_9allocatorIS6_EEFvRNS2_16InferenceContextEEE18destroy_deallocateEv', symObjAddr: 0x20E8C, symBinAddr: 0xDC4D38, symSize: 0x4 }
  - { offset: 0x35B7DA, size: 0x8, addend: 0x0, symName: '__ZNSt3__110__function6__funcIZN4onnx11GetOpSchemaINS2_31InstanceNormalization_Onnx_ver6EEENS2_8OpSchemaEvE3$_0NS_9allocatorIS6_EEFvRNS2_16InferenceContextEEEclESA_', symObjAddr: 0x20E90, symBinAddr: 0xDC4D3C, symSize: 0x8 }
  - { offset: 0x35B894, size: 0x8, addend: 0x0, symName: '__ZNKSt3__110__function6__funcIZN4onnx11GetOpSchemaINS2_31InstanceNormalization_Onnx_ver6EEENS2_8OpSchemaEvE3$_0NS_9allocatorIS6_EEFvRNS2_16InferenceContextEEE6targetERKSt9type_info', symObjAddr: 0x20E98, symBinAddr: 0xDC4D44, symSize: 0x64 }
  - { offset: 0x35B947, size: 0x8, addend: 0x0, symName: '__ZNKSt3__110__function6__funcIZN4onnx11GetOpSchemaINS2_31InstanceNormalization_Onnx_ver6EEENS2_8OpSchemaEvE3$_0NS_9allocatorIS6_EEFvRNS2_16InferenceContextEEE11target_typeEv', symObjAddr: 0x20EFC, symBinAddr: 0xDC4DA8, symSize: 0xC }
  - { offset: 0x35B96A, size: 0x8, addend: 0x0, symName: '__ZNSt3__110__function6__funcIZN4onnx11GetOpSchemaINS2_21DeformConv_Onnx_ver19EEENS2_8OpSchemaEvE3$_0NS_9allocatorIS6_EEFvRNS2_16InferenceContextEEED1Ev', symObjAddr: 0x20F08, symBinAddr: 0xDC4DB4, symSize: 0x4 }
  - { offset: 0x35B995, size: 0x8, addend: 0x0, symName: '__ZNSt3__110__function6__funcIZN4onnx11GetOpSchemaINS2_21DeformConv_Onnx_ver19EEENS2_8OpSchemaEvE3$_0NS_9allocatorIS6_EEFvRNS2_16InferenceContextEEED0Ev', symObjAddr: 0x20F0C, symBinAddr: 0xDC4DB8, symSize: 0x4 }
  - { offset: 0x35BA4A, size: 0x8, addend: 0x0, symName: '__ZNKSt3__110__function6__funcIZN4onnx11GetOpSchemaINS2_21DeformConv_Onnx_ver19EEENS2_8OpSchemaEvE3$_0NS_9allocatorIS6_EEFvRNS2_16InferenceContextEEE7__cloneEv', symObjAddr: 0x20F10, symBinAddr: 0xDC4DBC, symSize: 0x24 }
  - { offset: 0x35BB8D, size: 0x8, addend: 0x0, symName: '__ZNKSt3__110__function6__funcIZN4onnx11GetOpSchemaINS2_21DeformConv_Onnx_ver19EEENS2_8OpSchemaEvE3$_0NS_9allocatorIS6_EEFvRNS2_16InferenceContextEEE7__cloneEPNS0_6__baseISB_EE', symObjAddr: 0x20F34, symBinAddr: 0xDC4DE0, symSize: 0x10 }
  - { offset: 0x35BBC1, size: 0x8, addend: 0x0, symName: '__ZNKSt3__110__function6__funcIZN4onnx11GetOpSchemaINS2_21DeformConv_Onnx_ver19EEENS2_8OpSchemaEvE3$_0NS_9allocatorIS6_EEFvRNS2_16InferenceContextEEE7__cloneEPNS0_6__baseISB_EE', symObjAddr: 0x20F34, symBinAddr: 0xDC4DE0, symSize: 0x10 }
  - { offset: 0x35BBDD, size: 0x8, addend: 0x0, symName: '__ZNKSt3__110__function6__funcIZN4onnx11GetOpSchemaINS2_21DeformConv_Onnx_ver19EEENS2_8OpSchemaEvE3$_0NS_9allocatorIS6_EEFvRNS2_16InferenceContextEEE7__cloneEPNS0_6__baseISB_EE', symObjAddr: 0x20F34, symBinAddr: 0xDC4DE0, symSize: 0x10 }
  - { offset: 0x35BBF9, size: 0x8, addend: 0x0, symName: '__ZNSt3__110__function6__funcIZN4onnx11GetOpSchemaINS2_21DeformConv_Onnx_ver19EEENS2_8OpSchemaEvE3$_0NS_9allocatorIS6_EEFvRNS2_16InferenceContextEEE7destroyEv', symObjAddr: 0x20F44, symBinAddr: 0xDC4DF0, symSize: 0x4 }
  - { offset: 0x35BC48, size: 0x8, addend: 0x0, symName: '__ZNSt3__110__function6__funcIZN4onnx11GetOpSchemaINS2_21DeformConv_Onnx_ver19EEENS2_8OpSchemaEvE3$_0NS_9allocatorIS6_EEFvRNS2_16InferenceContextEEE18destroy_deallocateEv', symObjAddr: 0x20F48, symBinAddr: 0xDC4DF4, symSize: 0x4 }
  - { offset: 0x35BC7B, size: 0x8, addend: 0x0, symName: '__ZNSt3__110__function6__funcIZN4onnx11GetOpSchemaINS2_21DeformConv_Onnx_ver19EEENS2_8OpSchemaEvE3$_0NS_9allocatorIS6_EEFvRNS2_16InferenceContextEEE18destroy_deallocateEv', symObjAddr: 0x20F48, symBinAddr: 0xDC4DF4, symSize: 0x4 }
  - { offset: 0x35BC9D, size: 0x8, addend: 0x0, symName: '__ZNSt3__110__function6__funcIZN4onnx11GetOpSchemaINS2_21DeformConv_Onnx_ver19EEENS2_8OpSchemaEvE3$_0NS_9allocatorIS6_EEFvRNS2_16InferenceContextEEE18destroy_deallocateEv', symObjAddr: 0x20F48, symBinAddr: 0xDC4DF4, symSize: 0x4 }
  - { offset: 0x35BCC8, size: 0x8, addend: 0x0, symName: '__ZNSt3__110__function6__funcIZN4onnx11GetOpSchemaINS2_21DeformConv_Onnx_ver19EEENS2_8OpSchemaEvE3$_0NS_9allocatorIS6_EEFvRNS2_16InferenceContextEEE18destroy_deallocateEv', symObjAddr: 0x20F48, symBinAddr: 0xDC4DF4, symSize: 0x4 }
  - { offset: 0x35BCEE, size: 0x8, addend: 0x0, symName: '__ZNSt3__110__function6__funcIZN4onnx11GetOpSchemaINS2_21DeformConv_Onnx_ver19EEENS2_8OpSchemaEvE3$_0NS_9allocatorIS6_EEFvRNS2_16InferenceContextEEE18destroy_deallocateEv', symObjAddr: 0x20F48, symBinAddr: 0xDC4DF4, symSize: 0x4 }
  - { offset: 0x35BD98, size: 0x8, addend: 0x0, symName: '__ZNSt3__110__function6__funcIZN4onnx11GetOpSchemaINS2_21DeformConv_Onnx_ver19EEENS2_8OpSchemaEvE3$_0NS_9allocatorIS6_EEFvRNS2_16InferenceContextEEEclESA_', symObjAddr: 0x20F4C, symBinAddr: 0xDC4DF8, symSize: 0x38 }
  - { offset: 0x35BE7C, size: 0x8, addend: 0x0, symName: '__ZNKSt3__110__function6__funcIZN4onnx11GetOpSchemaINS2_21DeformConv_Onnx_ver19EEENS2_8OpSchemaEvE3$_0NS_9allocatorIS6_EEFvRNS2_16InferenceContextEEE6targetERKSt9type_info', symObjAddr: 0x20F84, symBinAddr: 0xDC4E30, symSize: 0x64 }
  - { offset: 0x35BF2F, size: 0x8, addend: 0x0, symName: '__ZNKSt3__110__function6__funcIZN4onnx11GetOpSchemaINS2_21DeformConv_Onnx_ver19EEENS2_8OpSchemaEvE3$_0NS_9allocatorIS6_EEFvRNS2_16InferenceContextEEE11target_typeEv', symObjAddr: 0x20FE8, symBinAddr: 0xDC4E94, symSize: 0xC }
  - { offset: 0x35BF52, size: 0x8, addend: 0x0, symName: '__ZNSt3__110__function6__funcIZN4onnx11GetOpSchemaINS2_20MaxUnpool_Onnx_ver11EEENS2_8OpSchemaEvE3$_0NS_9allocatorIS6_EEFvRNS2_16InferenceContextEEED1Ev', symObjAddr: 0x20FF4, symBinAddr: 0xDC4EA0, symSize: 0x4 }
  - { offset: 0x35BF7D, size: 0x8, addend: 0x0, symName: '__ZNSt3__110__function6__funcIZN4onnx11GetOpSchemaINS2_20MaxUnpool_Onnx_ver11EEENS2_8OpSchemaEvE3$_0NS_9allocatorIS6_EEFvRNS2_16InferenceContextEEED0Ev', symObjAddr: 0x20FF8, symBinAddr: 0xDC4EA4, symSize: 0x4 }
  - { offset: 0x35C032, size: 0x8, addend: 0x0, symName: '__ZNKSt3__110__function6__funcIZN4onnx11GetOpSchemaINS2_20MaxUnpool_Onnx_ver11EEENS2_8OpSchemaEvE3$_0NS_9allocatorIS6_EEFvRNS2_16InferenceContextEEE7__cloneEv', symObjAddr: 0x20FFC, symBinAddr: 0xDC4EA8, symSize: 0x24 }
  - { offset: 0x35C175, size: 0x8, addend: 0x0, symName: '__ZNKSt3__110__function6__funcIZN4onnx11GetOpSchemaINS2_20MaxUnpool_Onnx_ver11EEENS2_8OpSchemaEvE3$_0NS_9allocatorIS6_EEFvRNS2_16InferenceContextEEE7__cloneEPNS0_6__baseISB_EE', symObjAddr: 0x21020, symBinAddr: 0xDC4ECC, symSize: 0x10 }
  - { offset: 0x35C1A9, size: 0x8, addend: 0x0, symName: '__ZNKSt3__110__function6__funcIZN4onnx11GetOpSchemaINS2_20MaxUnpool_Onnx_ver11EEENS2_8OpSchemaEvE3$_0NS_9allocatorIS6_EEFvRNS2_16InferenceContextEEE7__cloneEPNS0_6__baseISB_EE', symObjAddr: 0x21020, symBinAddr: 0xDC4ECC, symSize: 0x10 }
  - { offset: 0x35C1C5, size: 0x8, addend: 0x0, symName: '__ZNKSt3__110__function6__funcIZN4onnx11GetOpSchemaINS2_20MaxUnpool_Onnx_ver11EEENS2_8OpSchemaEvE3$_0NS_9allocatorIS6_EEFvRNS2_16InferenceContextEEE7__cloneEPNS0_6__baseISB_EE', symObjAddr: 0x21020, symBinAddr: 0xDC4ECC, symSize: 0x10 }
  - { offset: 0x35C1E1, size: 0x8, addend: 0x0, symName: '__ZNSt3__110__function6__funcIZN4onnx11GetOpSchemaINS2_20MaxUnpool_Onnx_ver11EEENS2_8OpSchemaEvE3$_0NS_9allocatorIS6_EEFvRNS2_16InferenceContextEEE7destroyEv', symObjAddr: 0x21030, symBinAddr: 0xDC4EDC, symSize: 0x4 }
  - { offset: 0x35C230, size: 0x8, addend: 0x0, symName: '__ZNSt3__110__function6__funcIZN4onnx11GetOpSchemaINS2_20MaxUnpool_Onnx_ver11EEENS2_8OpSchemaEvE3$_0NS_9allocatorIS6_EEFvRNS2_16InferenceContextEEE18destroy_deallocateEv', symObjAddr: 0x21034, symBinAddr: 0xDC4EE0, symSize: 0x4 }
  - { offset: 0x35C263, size: 0x8, addend: 0x0, symName: '__ZNSt3__110__function6__funcIZN4onnx11GetOpSchemaINS2_20MaxUnpool_Onnx_ver11EEENS2_8OpSchemaEvE3$_0NS_9allocatorIS6_EEFvRNS2_16InferenceContextEEE18destroy_deallocateEv', symObjAddr: 0x21034, symBinAddr: 0xDC4EE0, symSize: 0x4 }
  - { offset: 0x35C285, size: 0x8, addend: 0x0, symName: '__ZNSt3__110__function6__funcIZN4onnx11GetOpSchemaINS2_20MaxUnpool_Onnx_ver11EEENS2_8OpSchemaEvE3$_0NS_9allocatorIS6_EEFvRNS2_16InferenceContextEEE18destroy_deallocateEv', symObjAddr: 0x21034, symBinAddr: 0xDC4EE0, symSize: 0x4 }
  - { offset: 0x35C2B0, size: 0x8, addend: 0x0, symName: '__ZNSt3__110__function6__funcIZN4onnx11GetOpSchemaINS2_20MaxUnpool_Onnx_ver11EEENS2_8OpSchemaEvE3$_0NS_9allocatorIS6_EEFvRNS2_16InferenceContextEEE18destroy_deallocateEv', symObjAddr: 0x21034, symBinAddr: 0xDC4EE0, symSize: 0x4 }
  - { offset: 0x35C2D6, size: 0x8, addend: 0x0, symName: '__ZNSt3__110__function6__funcIZN4onnx11GetOpSchemaINS2_20MaxUnpool_Onnx_ver11EEENS2_8OpSchemaEvE3$_0NS_9allocatorIS6_EEFvRNS2_16InferenceContextEEE18destroy_deallocateEv', symObjAddr: 0x21034, symBinAddr: 0xDC4EE0, symSize: 0x4 }
  - { offset: 0x35C380, size: 0x8, addend: 0x0, symName: '__ZNSt3__110__function6__funcIZN4onnx11GetOpSchemaINS2_20MaxUnpool_Onnx_ver11EEENS2_8OpSchemaEvE3$_0NS_9allocatorIS6_EEFvRNS2_16InferenceContextEEEclESA_', symObjAddr: 0x21038, symBinAddr: 0xDC4EE4, symSize: 0xE88 }
  - { offset: 0x35FCF5, size: 0x8, addend: 0x0, symName: '__ZNKSt3__110__function6__funcIZN4onnx11GetOpSchemaINS2_20MaxUnpool_Onnx_ver11EEENS2_8OpSchemaEvE3$_0NS_9allocatorIS6_EEFvRNS2_16InferenceContextEEE6targetERKSt9type_info', symObjAddr: 0x21EC0, symBinAddr: 0xDC5D6C, symSize: 0x64 }
  - { offset: 0x35FDA8, size: 0x8, addend: 0x0, symName: '__ZNKSt3__110__function6__funcIZN4onnx11GetOpSchemaINS2_20MaxUnpool_Onnx_ver11EEENS2_8OpSchemaEvE3$_0NS_9allocatorIS6_EEFvRNS2_16InferenceContextEEE11target_typeEv', symObjAddr: 0x21F24, symBinAddr: 0xDC5DD0, symSize: 0xC }
  - { offset: 0x35FE2F, size: 0x8, addend: 0x0, symName: '__ZNSt3__110__function6__funcIZN4onnx11GetOpSchemaINS2_18Dropout_Onnx_ver12EEENS2_8OpSchemaEvE3$_0NS_9allocatorIS6_EEFvRNS2_16InferenceContextEEED1Ev', symObjAddr: 0x2287C, symBinAddr: 0xDC5DDC, symSize: 0x4 }
  - { offset: 0x35FE5A, size: 0x8, addend: 0x0, symName: '__ZNSt3__110__function6__funcIZN4onnx11GetOpSchemaINS2_18Dropout_Onnx_ver12EEENS2_8OpSchemaEvE3$_0NS_9allocatorIS6_EEFvRNS2_16InferenceContextEEED0Ev', symObjAddr: 0x22880, symBinAddr: 0xDC5DE0, symSize: 0x4 }
  - { offset: 0x35FF0F, size: 0x8, addend: 0x0, symName: '__ZNKSt3__110__function6__funcIZN4onnx11GetOpSchemaINS2_18Dropout_Onnx_ver12EEENS2_8OpSchemaEvE3$_0NS_9allocatorIS6_EEFvRNS2_16InferenceContextEEE7__cloneEv', symObjAddr: 0x22884, symBinAddr: 0xDC5DE4, symSize: 0x24 }
  - { offset: 0x360052, size: 0x8, addend: 0x0, symName: '__ZNKSt3__110__function6__funcIZN4onnx11GetOpSchemaINS2_18Dropout_Onnx_ver12EEENS2_8OpSchemaEvE3$_0NS_9allocatorIS6_EEFvRNS2_16InferenceContextEEE7__cloneEPNS0_6__baseISB_EE', symObjAddr: 0x228A8, symBinAddr: 0xDC5E08, symSize: 0x10 }
  - { offset: 0x360086, size: 0x8, addend: 0x0, symName: '__ZNKSt3__110__function6__funcIZN4onnx11GetOpSchemaINS2_18Dropout_Onnx_ver12EEENS2_8OpSchemaEvE3$_0NS_9allocatorIS6_EEFvRNS2_16InferenceContextEEE7__cloneEPNS0_6__baseISB_EE', symObjAddr: 0x228A8, symBinAddr: 0xDC5E08, symSize: 0x10 }
  - { offset: 0x3600A2, size: 0x8, addend: 0x0, symName: '__ZNKSt3__110__function6__funcIZN4onnx11GetOpSchemaINS2_18Dropout_Onnx_ver12EEENS2_8OpSchemaEvE3$_0NS_9allocatorIS6_EEFvRNS2_16InferenceContextEEE7__cloneEPNS0_6__baseISB_EE', symObjAddr: 0x228A8, symBinAddr: 0xDC5E08, symSize: 0x10 }
  - { offset: 0x3600BE, size: 0x8, addend: 0x0, symName: '__ZNSt3__110__function6__funcIZN4onnx11GetOpSchemaINS2_18Dropout_Onnx_ver12EEENS2_8OpSchemaEvE3$_0NS_9allocatorIS6_EEFvRNS2_16InferenceContextEEE7destroyEv', symObjAddr: 0x228B8, symBinAddr: 0xDC5E18, symSize: 0x4 }
  - { offset: 0x36010D, size: 0x8, addend: 0x0, symName: '__ZNSt3__110__function6__funcIZN4onnx11GetOpSchemaINS2_18Dropout_Onnx_ver12EEENS2_8OpSchemaEvE3$_0NS_9allocatorIS6_EEFvRNS2_16InferenceContextEEE18destroy_deallocateEv', symObjAddr: 0x228BC, symBinAddr: 0xDC5E1C, symSize: 0x4 }
  - { offset: 0x360140, size: 0x8, addend: 0x0, symName: '__ZNSt3__110__function6__funcIZN4onnx11GetOpSchemaINS2_18Dropout_Onnx_ver12EEENS2_8OpSchemaEvE3$_0NS_9allocatorIS6_EEFvRNS2_16InferenceContextEEE18destroy_deallocateEv', symObjAddr: 0x228BC, symBinAddr: 0xDC5E1C, symSize: 0x4 }
  - { offset: 0x360162, size: 0x8, addend: 0x0, symName: '__ZNSt3__110__function6__funcIZN4onnx11GetOpSchemaINS2_18Dropout_Onnx_ver12EEENS2_8OpSchemaEvE3$_0NS_9allocatorIS6_EEFvRNS2_16InferenceContextEEE18destroy_deallocateEv', symObjAddr: 0x228BC, symBinAddr: 0xDC5E1C, symSize: 0x4 }
  - { offset: 0x36018D, size: 0x8, addend: 0x0, symName: '__ZNSt3__110__function6__funcIZN4onnx11GetOpSchemaINS2_18Dropout_Onnx_ver12EEENS2_8OpSchemaEvE3$_0NS_9allocatorIS6_EEFvRNS2_16InferenceContextEEE18destroy_deallocateEv', symObjAddr: 0x228BC, symBinAddr: 0xDC5E1C, symSize: 0x4 }
  - { offset: 0x3601B3, size: 0x8, addend: 0x0, symName: '__ZNSt3__110__function6__funcIZN4onnx11GetOpSchemaINS2_18Dropout_Onnx_ver12EEENS2_8OpSchemaEvE3$_0NS_9allocatorIS6_EEFvRNS2_16InferenceContextEEE18destroy_deallocateEv', symObjAddr: 0x228BC, symBinAddr: 0xDC5E1C, symSize: 0x4 }
  - { offset: 0x360279, size: 0x8, addend: 0x0, symName: '__ZNSt3__110__function6__funcIZN4onnx11GetOpSchemaINS2_18Dropout_Onnx_ver12EEENS2_8OpSchemaEvE3$_0NS_9allocatorIS6_EEFvRNS2_16InferenceContextEEEclESA_', symObjAddr: 0x228C0, symBinAddr: 0xDC5E20, symSize: 0x518 }
  - { offset: 0x360C67, size: 0x8, addend: 0x0, symName: '__ZNKSt3__110__function6__funcIZN4onnx11GetOpSchemaINS2_18Dropout_Onnx_ver12EEENS2_8OpSchemaEvE3$_0NS_9allocatorIS6_EEFvRNS2_16InferenceContextEEE6targetERKSt9type_info', symObjAddr: 0x22DD8, symBinAddr: 0xDC6338, symSize: 0x64 }
  - { offset: 0x360D1A, size: 0x8, addend: 0x0, symName: '__ZNKSt3__110__function6__funcIZN4onnx11GetOpSchemaINS2_18Dropout_Onnx_ver12EEENS2_8OpSchemaEvE3$_0NS_9allocatorIS6_EEFvRNS2_16InferenceContextEEE11target_typeEv', symObjAddr: 0x22E3C, symBinAddr: 0xDC639C, symSize: 0xC }
  - { offset: 0x360D3D, size: 0x8, addend: 0x0, symName: '__ZNSt3__110__function6__funcIZN4onnx11GetOpSchemaINS2_18Flatten_Onnx_ver24EEENS2_8OpSchemaEvE3$_0NS_9allocatorIS6_EEFvRNS2_16InferenceContextEEED1Ev', symObjAddr: 0x22E48, symBinAddr: 0xDC63A8, symSize: 0x4 }
  - { offset: 0x360D68, size: 0x8, addend: 0x0, symName: '__ZNSt3__110__function6__funcIZN4onnx11GetOpSchemaINS2_18Flatten_Onnx_ver24EEENS2_8OpSchemaEvE3$_0NS_9allocatorIS6_EEFvRNS2_16InferenceContextEEED0Ev', symObjAddr: 0x22E4C, symBinAddr: 0xDC63AC, symSize: 0x4 }
  - { offset: 0x360E1D, size: 0x8, addend: 0x0, symName: '__ZNKSt3__110__function6__funcIZN4onnx11GetOpSchemaINS2_18Flatten_Onnx_ver24EEENS2_8OpSchemaEvE3$_0NS_9allocatorIS6_EEFvRNS2_16InferenceContextEEE7__cloneEv', symObjAddr: 0x22E50, symBinAddr: 0xDC63B0, symSize: 0x24 }
  - { offset: 0x360F60, size: 0x8, addend: 0x0, symName: '__ZNKSt3__110__function6__funcIZN4onnx11GetOpSchemaINS2_18Flatten_Onnx_ver24EEENS2_8OpSchemaEvE3$_0NS_9allocatorIS6_EEFvRNS2_16InferenceContextEEE7__cloneEPNS0_6__baseISB_EE', symObjAddr: 0x22E74, symBinAddr: 0xDC63D4, symSize: 0x10 }
  - { offset: 0x360F94, size: 0x8, addend: 0x0, symName: '__ZNKSt3__110__function6__funcIZN4onnx11GetOpSchemaINS2_18Flatten_Onnx_ver24EEENS2_8OpSchemaEvE3$_0NS_9allocatorIS6_EEFvRNS2_16InferenceContextEEE7__cloneEPNS0_6__baseISB_EE', symObjAddr: 0x22E74, symBinAddr: 0xDC63D4, symSize: 0x10 }
  - { offset: 0x360FB0, size: 0x8, addend: 0x0, symName: '__ZNKSt3__110__function6__funcIZN4onnx11GetOpSchemaINS2_18Flatten_Onnx_ver24EEENS2_8OpSchemaEvE3$_0NS_9allocatorIS6_EEFvRNS2_16InferenceContextEEE7__cloneEPNS0_6__baseISB_EE', symObjAddr: 0x22E74, symBinAddr: 0xDC63D4, symSize: 0x10 }
  - { offset: 0x360FCC, size: 0x8, addend: 0x0, symName: '__ZNSt3__110__function6__funcIZN4onnx11GetOpSchemaINS2_18Flatten_Onnx_ver24EEENS2_8OpSchemaEvE3$_0NS_9allocatorIS6_EEFvRNS2_16InferenceContextEEE7destroyEv', symObjAddr: 0x22E84, symBinAddr: 0xDC63E4, symSize: 0x4 }
  - { offset: 0x36101B, size: 0x8, addend: 0x0, symName: '__ZNSt3__110__function6__funcIZN4onnx11GetOpSchemaINS2_18Flatten_Onnx_ver24EEENS2_8OpSchemaEvE3$_0NS_9allocatorIS6_EEFvRNS2_16InferenceContextEEE18destroy_deallocateEv', symObjAddr: 0x22E88, symBinAddr: 0xDC63E8, symSize: 0x4 }
  - { offset: 0x36104E, size: 0x8, addend: 0x0, symName: '__ZNSt3__110__function6__funcIZN4onnx11GetOpSchemaINS2_18Flatten_Onnx_ver24EEENS2_8OpSchemaEvE3$_0NS_9allocatorIS6_EEFvRNS2_16InferenceContextEEE18destroy_deallocateEv', symObjAddr: 0x22E88, symBinAddr: 0xDC63E8, symSize: 0x4 }
  - { offset: 0x361070, size: 0x8, addend: 0x0, symName: '__ZNSt3__110__function6__funcIZN4onnx11GetOpSchemaINS2_18Flatten_Onnx_ver24EEENS2_8OpSchemaEvE3$_0NS_9allocatorIS6_EEFvRNS2_16InferenceContextEEE18destroy_deallocateEv', symObjAddr: 0x22E88, symBinAddr: 0xDC63E8, symSize: 0x4 }
  - { offset: 0x36109B, size: 0x8, addend: 0x0, symName: '__ZNSt3__110__function6__funcIZN4onnx11GetOpSchemaINS2_18Flatten_Onnx_ver24EEENS2_8OpSchemaEvE3$_0NS_9allocatorIS6_EEFvRNS2_16InferenceContextEEE18destroy_deallocateEv', symObjAddr: 0x22E88, symBinAddr: 0xDC63E8, symSize: 0x4 }
  - { offset: 0x3610C1, size: 0x8, addend: 0x0, symName: '__ZNSt3__110__function6__funcIZN4onnx11GetOpSchemaINS2_18Flatten_Onnx_ver24EEENS2_8OpSchemaEvE3$_0NS_9allocatorIS6_EEFvRNS2_16InferenceContextEEE18destroy_deallocateEv', symObjAddr: 0x22E88, symBinAddr: 0xDC63E8, symSize: 0x4 }
  - { offset: 0x3611A4, size: 0x8, addend: 0x0, symName: '__ZNSt3__110__function6__funcIZN4onnx11GetOpSchemaINS2_18Flatten_Onnx_ver24EEENS2_8OpSchemaEvE3$_0NS_9allocatorIS6_EEFvRNS2_16InferenceContextEEEclESA_', symObjAddr: 0x22E8C, symBinAddr: 0xDC63EC, symSize: 0x37C }
  - { offset: 0x361B35, size: 0x8, addend: 0x0, symName: '__ZNKSt3__110__function6__funcIZN4onnx11GetOpSchemaINS2_18Flatten_Onnx_ver24EEENS2_8OpSchemaEvE3$_0NS_9allocatorIS6_EEFvRNS2_16InferenceContextEEE6targetERKSt9type_info', symObjAddr: 0x23208, symBinAddr: 0xDC6768, symSize: 0x64 }
  - { offset: 0x361BE8, size: 0x8, addend: 0x0, symName: '__ZNKSt3__110__function6__funcIZN4onnx11GetOpSchemaINS2_18Flatten_Onnx_ver24EEENS2_8OpSchemaEvE3$_0NS_9allocatorIS6_EEFvRNS2_16InferenceContextEEE11target_typeEv', symObjAddr: 0x2326C, symBinAddr: 0xDC67CC, symSize: 0xC }
  - { offset: 0x361C24, size: 0x8, addend: 0x0, symName: '__ZNSt3__110__function6__funcIZN4onnx11GetOpSchemaINS2_18Flatten_Onnx_ver23EEENS2_8OpSchemaEvE3$_0NS_9allocatorIS6_EEFvRNS2_16InferenceContextEEED1Ev', symObjAddr: 0x240A4, symBinAddr: 0xDC67D8, symSize: 0x4 }
  - { offset: 0x361C4F, size: 0x8, addend: 0x0, symName: '__ZNSt3__110__function6__funcIZN4onnx11GetOpSchemaINS2_18Flatten_Onnx_ver23EEENS2_8OpSchemaEvE3$_0NS_9allocatorIS6_EEFvRNS2_16InferenceContextEEED0Ev', symObjAddr: 0x240A8, symBinAddr: 0xDC67DC, symSize: 0x4 }
  - { offset: 0x361D04, size: 0x8, addend: 0x0, symName: '__ZNKSt3__110__function6__funcIZN4onnx11GetOpSchemaINS2_18Flatten_Onnx_ver23EEENS2_8OpSchemaEvE3$_0NS_9allocatorIS6_EEFvRNS2_16InferenceContextEEE7__cloneEv', symObjAddr: 0x240AC, symBinAddr: 0xDC67E0, symSize: 0x24 }
  - { offset: 0x361E47, size: 0x8, addend: 0x0, symName: '__ZNKSt3__110__function6__funcIZN4onnx11GetOpSchemaINS2_18Flatten_Onnx_ver23EEENS2_8OpSchemaEvE3$_0NS_9allocatorIS6_EEFvRNS2_16InferenceContextEEE7__cloneEPNS0_6__baseISB_EE', symObjAddr: 0x240D0, symBinAddr: 0xDC6804, symSize: 0x10 }
  - { offset: 0x361E7B, size: 0x8, addend: 0x0, symName: '__ZNKSt3__110__function6__funcIZN4onnx11GetOpSchemaINS2_18Flatten_Onnx_ver23EEENS2_8OpSchemaEvE3$_0NS_9allocatorIS6_EEFvRNS2_16InferenceContextEEE7__cloneEPNS0_6__baseISB_EE', symObjAddr: 0x240D0, symBinAddr: 0xDC6804, symSize: 0x10 }
  - { offset: 0x361E97, size: 0x8, addend: 0x0, symName: '__ZNKSt3__110__function6__funcIZN4onnx11GetOpSchemaINS2_18Flatten_Onnx_ver23EEENS2_8OpSchemaEvE3$_0NS_9allocatorIS6_EEFvRNS2_16InferenceContextEEE7__cloneEPNS0_6__baseISB_EE', symObjAddr: 0x240D0, symBinAddr: 0xDC6804, symSize: 0x10 }
  - { offset: 0x361EB3, size: 0x8, addend: 0x0, symName: '__ZNSt3__110__function6__funcIZN4onnx11GetOpSchemaINS2_18Flatten_Onnx_ver23EEENS2_8OpSchemaEvE3$_0NS_9allocatorIS6_EEFvRNS2_16InferenceContextEEE7destroyEv', symObjAddr: 0x240E0, symBinAddr: 0xDC6814, symSize: 0x4 }
  - { offset: 0x361F02, size: 0x8, addend: 0x0, symName: '__ZNSt3__110__function6__funcIZN4onnx11GetOpSchemaINS2_18Flatten_Onnx_ver23EEENS2_8OpSchemaEvE3$_0NS_9allocatorIS6_EEFvRNS2_16InferenceContextEEE18destroy_deallocateEv', symObjAddr: 0x240E4, symBinAddr: 0xDC6818, symSize: 0x4 }
  - { offset: 0x361F35, size: 0x8, addend: 0x0, symName: '__ZNSt3__110__function6__funcIZN4onnx11GetOpSchemaINS2_18Flatten_Onnx_ver23EEENS2_8OpSchemaEvE3$_0NS_9allocatorIS6_EEFvRNS2_16InferenceContextEEE18destroy_deallocateEv', symObjAddr: 0x240E4, symBinAddr: 0xDC6818, symSize: 0x4 }
  - { offset: 0x361F57, size: 0x8, addend: 0x0, symName: '__ZNSt3__110__function6__funcIZN4onnx11GetOpSchemaINS2_18Flatten_Onnx_ver23EEENS2_8OpSchemaEvE3$_0NS_9allocatorIS6_EEFvRNS2_16InferenceContextEEE18destroy_deallocateEv', symObjAddr: 0x240E4, symBinAddr: 0xDC6818, symSize: 0x4 }
  - { offset: 0x361F82, size: 0x8, addend: 0x0, symName: '__ZNSt3__110__function6__funcIZN4onnx11GetOpSchemaINS2_18Flatten_Onnx_ver23EEENS2_8OpSchemaEvE3$_0NS_9allocatorIS6_EEFvRNS2_16InferenceContextEEE18destroy_deallocateEv', symObjAddr: 0x240E4, symBinAddr: 0xDC6818, symSize: 0x4 }
  - { offset: 0x361FA8, size: 0x8, addend: 0x0, symName: '__ZNSt3__110__function6__funcIZN4onnx11GetOpSchemaINS2_18Flatten_Onnx_ver23EEENS2_8OpSchemaEvE3$_0NS_9allocatorIS6_EEFvRNS2_16InferenceContextEEE18destroy_deallocateEv', symObjAddr: 0x240E4, symBinAddr: 0xDC6818, symSize: 0x4 }
  - { offset: 0x362076, size: 0x8, addend: 0x0, symName: '__ZNSt3__110__function6__funcIZN4onnx11GetOpSchemaINS2_18Flatten_Onnx_ver23EEENS2_8OpSchemaEvE3$_0NS_9allocatorIS6_EEFvRNS2_16InferenceContextEEEclESA_', symObjAddr: 0x240E8, symBinAddr: 0xDC681C, symSize: 0x37C }
  - { offset: 0x362A07, size: 0x8, addend: 0x0, symName: '__ZNKSt3__110__function6__funcIZN4onnx11GetOpSchemaINS2_18Flatten_Onnx_ver23EEENS2_8OpSchemaEvE3$_0NS_9allocatorIS6_EEFvRNS2_16InferenceContextEEE6targetERKSt9type_info', symObjAddr: 0x24464, symBinAddr: 0xDC6B98, symSize: 0x64 }
  - { offset: 0x362ABA, size: 0x8, addend: 0x0, symName: '__ZNKSt3__110__function6__funcIZN4onnx11GetOpSchemaINS2_18Flatten_Onnx_ver23EEENS2_8OpSchemaEvE3$_0NS_9allocatorIS6_EEFvRNS2_16InferenceContextEEE11target_typeEv', symObjAddr: 0x244C8, symBinAddr: 0xDC6BFC, symSize: 0xC }
  - { offset: 0x362ADD, size: 0x8, addend: 0x0, symName: '__ZNSt3__110__function6__funcIZN4onnx11GetOpSchemaINS2_18Flatten_Onnx_ver21EEENS2_8OpSchemaEvE3$_0NS_9allocatorIS6_EEFvRNS2_16InferenceContextEEED1Ev', symObjAddr: 0x244D4, symBinAddr: 0xDC6C08, symSize: 0x4 }
  - { offset: 0x362B08, size: 0x8, addend: 0x0, symName: '__ZNSt3__110__function6__funcIZN4onnx11GetOpSchemaINS2_18Flatten_Onnx_ver21EEENS2_8OpSchemaEvE3$_0NS_9allocatorIS6_EEFvRNS2_16InferenceContextEEED0Ev', symObjAddr: 0x244D8, symBinAddr: 0xDC6C0C, symSize: 0x4 }
  - { offset: 0x362BBD, size: 0x8, addend: 0x0, symName: '__ZNKSt3__110__function6__funcIZN4onnx11GetOpSchemaINS2_18Flatten_Onnx_ver21EEENS2_8OpSchemaEvE3$_0NS_9allocatorIS6_EEFvRNS2_16InferenceContextEEE7__cloneEv', symObjAddr: 0x244DC, symBinAddr: 0xDC6C10, symSize: 0x24 }
  - { offset: 0x362D00, size: 0x8, addend: 0x0, symName: '__ZNKSt3__110__function6__funcIZN4onnx11GetOpSchemaINS2_18Flatten_Onnx_ver21EEENS2_8OpSchemaEvE3$_0NS_9allocatorIS6_EEFvRNS2_16InferenceContextEEE7__cloneEPNS0_6__baseISB_EE', symObjAddr: 0x24500, symBinAddr: 0xDC6C34, symSize: 0x10 }
  - { offset: 0x362D34, size: 0x8, addend: 0x0, symName: '__ZNKSt3__110__function6__funcIZN4onnx11GetOpSchemaINS2_18Flatten_Onnx_ver21EEENS2_8OpSchemaEvE3$_0NS_9allocatorIS6_EEFvRNS2_16InferenceContextEEE7__cloneEPNS0_6__baseISB_EE', symObjAddr: 0x24500, symBinAddr: 0xDC6C34, symSize: 0x10 }
  - { offset: 0x362D50, size: 0x8, addend: 0x0, symName: '__ZNKSt3__110__function6__funcIZN4onnx11GetOpSchemaINS2_18Flatten_Onnx_ver21EEENS2_8OpSchemaEvE3$_0NS_9allocatorIS6_EEFvRNS2_16InferenceContextEEE7__cloneEPNS0_6__baseISB_EE', symObjAddr: 0x24500, symBinAddr: 0xDC6C34, symSize: 0x10 }
  - { offset: 0x362D6C, size: 0x8, addend: 0x0, symName: '__ZNSt3__110__function6__funcIZN4onnx11GetOpSchemaINS2_18Flatten_Onnx_ver21EEENS2_8OpSchemaEvE3$_0NS_9allocatorIS6_EEFvRNS2_16InferenceContextEEE7destroyEv', symObjAddr: 0x24510, symBinAddr: 0xDC6C44, symSize: 0x4 }
  - { offset: 0x362DBB, size: 0x8, addend: 0x0, symName: '__ZNSt3__110__function6__funcIZN4onnx11GetOpSchemaINS2_18Flatten_Onnx_ver21EEENS2_8OpSchemaEvE3$_0NS_9allocatorIS6_EEFvRNS2_16InferenceContextEEE18destroy_deallocateEv', symObjAddr: 0x24514, symBinAddr: 0xDC6C48, symSize: 0x4 }
  - { offset: 0x362DEE, size: 0x8, addend: 0x0, symName: '__ZNSt3__110__function6__funcIZN4onnx11GetOpSchemaINS2_18Flatten_Onnx_ver21EEENS2_8OpSchemaEvE3$_0NS_9allocatorIS6_EEFvRNS2_16InferenceContextEEE18destroy_deallocateEv', symObjAddr: 0x24514, symBinAddr: 0xDC6C48, symSize: 0x4 }
  - { offset: 0x362E10, size: 0x8, addend: 0x0, symName: '__ZNSt3__110__function6__funcIZN4onnx11GetOpSchemaINS2_18Flatten_Onnx_ver21EEENS2_8OpSchemaEvE3$_0NS_9allocatorIS6_EEFvRNS2_16InferenceContextEEE18destroy_deallocateEv', symObjAddr: 0x24514, symBinAddr: 0xDC6C48, symSize: 0x4 }
  - { offset: 0x362E3B, size: 0x8, addend: 0x0, symName: '__ZNSt3__110__function6__funcIZN4onnx11GetOpSchemaINS2_18Flatten_Onnx_ver21EEENS2_8OpSchemaEvE3$_0NS_9allocatorIS6_EEFvRNS2_16InferenceContextEEE18destroy_deallocateEv', symObjAddr: 0x24514, symBinAddr: 0xDC6C48, symSize: 0x4 }
  - { offset: 0x362E61, size: 0x8, addend: 0x0, symName: '__ZNSt3__110__function6__funcIZN4onnx11GetOpSchemaINS2_18Flatten_Onnx_ver21EEENS2_8OpSchemaEvE3$_0NS_9allocatorIS6_EEFvRNS2_16InferenceContextEEE18destroy_deallocateEv', symObjAddr: 0x24514, symBinAddr: 0xDC6C48, symSize: 0x4 }
  - { offset: 0x362F2F, size: 0x8, addend: 0x0, symName: '__ZNSt3__110__function6__funcIZN4onnx11GetOpSchemaINS2_18Flatten_Onnx_ver21EEENS2_8OpSchemaEvE3$_0NS_9allocatorIS6_EEFvRNS2_16InferenceContextEEEclESA_', symObjAddr: 0x24518, symBinAddr: 0xDC6C4C, symSize: 0x37C }
  - { offset: 0x3638C0, size: 0x8, addend: 0x0, symName: '__ZNKSt3__110__function6__funcIZN4onnx11GetOpSchemaINS2_18Flatten_Onnx_ver21EEENS2_8OpSchemaEvE3$_0NS_9allocatorIS6_EEFvRNS2_16InferenceContextEEE6targetERKSt9type_info', symObjAddr: 0x24894, symBinAddr: 0xDC6FC8, symSize: 0x64 }
  - { offset: 0x363973, size: 0x8, addend: 0x0, symName: '__ZNKSt3__110__function6__funcIZN4onnx11GetOpSchemaINS2_18Flatten_Onnx_ver21EEENS2_8OpSchemaEvE3$_0NS_9allocatorIS6_EEFvRNS2_16InferenceContextEEE11target_typeEv', symObjAddr: 0x248F8, symBinAddr: 0xDC702C, symSize: 0xC }
  - { offset: 0x363996, size: 0x8, addend: 0x0, symName: '__ZNSt3__110__function6__funcIZN4onnx11GetOpSchemaINS2_18Flatten_Onnx_ver13EEENS2_8OpSchemaEvE3$_0NS_9allocatorIS6_EEFvRNS2_16InferenceContextEEED1Ev', symObjAddr: 0x24904, symBinAddr: 0xDC7038, symSize: 0x4 }
  - { offset: 0x3639C1, size: 0x8, addend: 0x0, symName: '__ZNSt3__110__function6__funcIZN4onnx11GetOpSchemaINS2_18Flatten_Onnx_ver13EEENS2_8OpSchemaEvE3$_0NS_9allocatorIS6_EEFvRNS2_16InferenceContextEEED0Ev', symObjAddr: 0x24908, symBinAddr: 0xDC703C, symSize: 0x4 }
  - { offset: 0x363A76, size: 0x8, addend: 0x0, symName: '__ZNKSt3__110__function6__funcIZN4onnx11GetOpSchemaINS2_18Flatten_Onnx_ver13EEENS2_8OpSchemaEvE3$_0NS_9allocatorIS6_EEFvRNS2_16InferenceContextEEE7__cloneEv', symObjAddr: 0x2490C, symBinAddr: 0xDC7040, symSize: 0x24 }
  - { offset: 0x363BB9, size: 0x8, addend: 0x0, symName: '__ZNKSt3__110__function6__funcIZN4onnx11GetOpSchemaINS2_18Flatten_Onnx_ver13EEENS2_8OpSchemaEvE3$_0NS_9allocatorIS6_EEFvRNS2_16InferenceContextEEE7__cloneEPNS0_6__baseISB_EE', symObjAddr: 0x24930, symBinAddr: 0xDC7064, symSize: 0x10 }
  - { offset: 0x363BED, size: 0x8, addend: 0x0, symName: '__ZNKSt3__110__function6__funcIZN4onnx11GetOpSchemaINS2_18Flatten_Onnx_ver13EEENS2_8OpSchemaEvE3$_0NS_9allocatorIS6_EEFvRNS2_16InferenceContextEEE7__cloneEPNS0_6__baseISB_EE', symObjAddr: 0x24930, symBinAddr: 0xDC7064, symSize: 0x10 }
  - { offset: 0x363C09, size: 0x8, addend: 0x0, symName: '__ZNKSt3__110__function6__funcIZN4onnx11GetOpSchemaINS2_18Flatten_Onnx_ver13EEENS2_8OpSchemaEvE3$_0NS_9allocatorIS6_EEFvRNS2_16InferenceContextEEE7__cloneEPNS0_6__baseISB_EE', symObjAddr: 0x24930, symBinAddr: 0xDC7064, symSize: 0x10 }
  - { offset: 0x363C25, size: 0x8, addend: 0x0, symName: '__ZNSt3__110__function6__funcIZN4onnx11GetOpSchemaINS2_18Flatten_Onnx_ver13EEENS2_8OpSchemaEvE3$_0NS_9allocatorIS6_EEFvRNS2_16InferenceContextEEE7destroyEv', symObjAddr: 0x24940, symBinAddr: 0xDC7074, symSize: 0x4 }
  - { offset: 0x363C74, size: 0x8, addend: 0x0, symName: '__ZNSt3__110__function6__funcIZN4onnx11GetOpSchemaINS2_18Flatten_Onnx_ver13EEENS2_8OpSchemaEvE3$_0NS_9allocatorIS6_EEFvRNS2_16InferenceContextEEE18destroy_deallocateEv', symObjAddr: 0x24944, symBinAddr: 0xDC7078, symSize: 0x4 }
  - { offset: 0x363CA7, size: 0x8, addend: 0x0, symName: '__ZNSt3__110__function6__funcIZN4onnx11GetOpSchemaINS2_18Flatten_Onnx_ver13EEENS2_8OpSchemaEvE3$_0NS_9allocatorIS6_EEFvRNS2_16InferenceContextEEE18destroy_deallocateEv', symObjAddr: 0x24944, symBinAddr: 0xDC7078, symSize: 0x4 }
  - { offset: 0x363CC9, size: 0x8, addend: 0x0, symName: '__ZNSt3__110__function6__funcIZN4onnx11GetOpSchemaINS2_18Flatten_Onnx_ver13EEENS2_8OpSchemaEvE3$_0NS_9allocatorIS6_EEFvRNS2_16InferenceContextEEE18destroy_deallocateEv', symObjAddr: 0x24944, symBinAddr: 0xDC7078, symSize: 0x4 }
  - { offset: 0x363CF4, size: 0x8, addend: 0x0, symName: '__ZNSt3__110__function6__funcIZN4onnx11GetOpSchemaINS2_18Flatten_Onnx_ver13EEENS2_8OpSchemaEvE3$_0NS_9allocatorIS6_EEFvRNS2_16InferenceContextEEE18destroy_deallocateEv', symObjAddr: 0x24944, symBinAddr: 0xDC7078, symSize: 0x4 }
  - { offset: 0x363D1A, size: 0x8, addend: 0x0, symName: '__ZNSt3__110__function6__funcIZN4onnx11GetOpSchemaINS2_18Flatten_Onnx_ver13EEENS2_8OpSchemaEvE3$_0NS_9allocatorIS6_EEFvRNS2_16InferenceContextEEE18destroy_deallocateEv', symObjAddr: 0x24944, symBinAddr: 0xDC7078, symSize: 0x4 }
  - { offset: 0x363DE8, size: 0x8, addend: 0x0, symName: '__ZNSt3__110__function6__funcIZN4onnx11GetOpSchemaINS2_18Flatten_Onnx_ver13EEENS2_8OpSchemaEvE3$_0NS_9allocatorIS6_EEFvRNS2_16InferenceContextEEEclESA_', symObjAddr: 0x24948, symBinAddr: 0xDC707C, symSize: 0x37C }
  - { offset: 0x364779, size: 0x8, addend: 0x0, symName: '__ZNKSt3__110__function6__funcIZN4onnx11GetOpSchemaINS2_18Flatten_Onnx_ver13EEENS2_8OpSchemaEvE3$_0NS_9allocatorIS6_EEFvRNS2_16InferenceContextEEE6targetERKSt9type_info', symObjAddr: 0x24CC4, symBinAddr: 0xDC73F8, symSize: 0x64 }
  - { offset: 0x36482C, size: 0x8, addend: 0x0, symName: '__ZNKSt3__110__function6__funcIZN4onnx11GetOpSchemaINS2_18Flatten_Onnx_ver13EEENS2_8OpSchemaEvE3$_0NS_9allocatorIS6_EEFvRNS2_16InferenceContextEEE11target_typeEv', symObjAddr: 0x24D28, symBinAddr: 0xDC745C, symSize: 0xC }
  - { offset: 0x36484F, size: 0x8, addend: 0x0, symName: '__ZNSt3__110__function6__funcIZN4onnx11GetOpSchemaINS2_18Flatten_Onnx_ver11EEENS2_8OpSchemaEvE3$_0NS_9allocatorIS6_EEFvRNS2_16InferenceContextEEED1Ev', symObjAddr: 0x24D34, symBinAddr: 0xDC7468, symSize: 0x4 }
  - { offset: 0x36487A, size: 0x8, addend: 0x0, symName: '__ZNSt3__110__function6__funcIZN4onnx11GetOpSchemaINS2_18Flatten_Onnx_ver11EEENS2_8OpSchemaEvE3$_0NS_9allocatorIS6_EEFvRNS2_16InferenceContextEEED0Ev', symObjAddr: 0x24D38, symBinAddr: 0xDC746C, symSize: 0x4 }
  - { offset: 0x36492F, size: 0x8, addend: 0x0, symName: '__ZNKSt3__110__function6__funcIZN4onnx11GetOpSchemaINS2_18Flatten_Onnx_ver11EEENS2_8OpSchemaEvE3$_0NS_9allocatorIS6_EEFvRNS2_16InferenceContextEEE7__cloneEv', symObjAddr: 0x24D3C, symBinAddr: 0xDC7470, symSize: 0x24 }
  - { offset: 0x364A72, size: 0x8, addend: 0x0, symName: '__ZNKSt3__110__function6__funcIZN4onnx11GetOpSchemaINS2_18Flatten_Onnx_ver11EEENS2_8OpSchemaEvE3$_0NS_9allocatorIS6_EEFvRNS2_16InferenceContextEEE7__cloneEPNS0_6__baseISB_EE', symObjAddr: 0x24D60, symBinAddr: 0xDC7494, symSize: 0x10 }
  - { offset: 0x364AA6, size: 0x8, addend: 0x0, symName: '__ZNKSt3__110__function6__funcIZN4onnx11GetOpSchemaINS2_18Flatten_Onnx_ver11EEENS2_8OpSchemaEvE3$_0NS_9allocatorIS6_EEFvRNS2_16InferenceContextEEE7__cloneEPNS0_6__baseISB_EE', symObjAddr: 0x24D60, symBinAddr: 0xDC7494, symSize: 0x10 }
  - { offset: 0x364AC2, size: 0x8, addend: 0x0, symName: '__ZNKSt3__110__function6__funcIZN4onnx11GetOpSchemaINS2_18Flatten_Onnx_ver11EEENS2_8OpSchemaEvE3$_0NS_9allocatorIS6_EEFvRNS2_16InferenceContextEEE7__cloneEPNS0_6__baseISB_EE', symObjAddr: 0x24D60, symBinAddr: 0xDC7494, symSize: 0x10 }
  - { offset: 0x364ADE, size: 0x8, addend: 0x0, symName: '__ZNSt3__110__function6__funcIZN4onnx11GetOpSchemaINS2_18Flatten_Onnx_ver11EEENS2_8OpSchemaEvE3$_0NS_9allocatorIS6_EEFvRNS2_16InferenceContextEEE7destroyEv', symObjAddr: 0x24D70, symBinAddr: 0xDC74A4, symSize: 0x4 }
  - { offset: 0x364B2D, size: 0x8, addend: 0x0, symName: '__ZNSt3__110__function6__funcIZN4onnx11GetOpSchemaINS2_18Flatten_Onnx_ver11EEENS2_8OpSchemaEvE3$_0NS_9allocatorIS6_EEFvRNS2_16InferenceContextEEE18destroy_deallocateEv', symObjAddr: 0x24D74, symBinAddr: 0xDC74A8, symSize: 0x4 }
  - { offset: 0x364B60, size: 0x8, addend: 0x0, symName: '__ZNSt3__110__function6__funcIZN4onnx11GetOpSchemaINS2_18Flatten_Onnx_ver11EEENS2_8OpSchemaEvE3$_0NS_9allocatorIS6_EEFvRNS2_16InferenceContextEEE18destroy_deallocateEv', symObjAddr: 0x24D74, symBinAddr: 0xDC74A8, symSize: 0x4 }
  - { offset: 0x364B82, size: 0x8, addend: 0x0, symName: '__ZNSt3__110__function6__funcIZN4onnx11GetOpSchemaINS2_18Flatten_Onnx_ver11EEENS2_8OpSchemaEvE3$_0NS_9allocatorIS6_EEFvRNS2_16InferenceContextEEE18destroy_deallocateEv', symObjAddr: 0x24D74, symBinAddr: 0xDC74A8, symSize: 0x4 }
  - { offset: 0x364BAD, size: 0x8, addend: 0x0, symName: '__ZNSt3__110__function6__funcIZN4onnx11GetOpSchemaINS2_18Flatten_Onnx_ver11EEENS2_8OpSchemaEvE3$_0NS_9allocatorIS6_EEFvRNS2_16InferenceContextEEE18destroy_deallocateEv', symObjAddr: 0x24D74, symBinAddr: 0xDC74A8, symSize: 0x4 }
  - { offset: 0x364BD3, size: 0x8, addend: 0x0, symName: '__ZNSt3__110__function6__funcIZN4onnx11GetOpSchemaINS2_18Flatten_Onnx_ver11EEENS2_8OpSchemaEvE3$_0NS_9allocatorIS6_EEFvRNS2_16InferenceContextEEE18destroy_deallocateEv', symObjAddr: 0x24D74, symBinAddr: 0xDC74A8, symSize: 0x4 }
  - { offset: 0x364CA1, size: 0x8, addend: 0x0, symName: '__ZNSt3__110__function6__funcIZN4onnx11GetOpSchemaINS2_18Flatten_Onnx_ver11EEENS2_8OpSchemaEvE3$_0NS_9allocatorIS6_EEFvRNS2_16InferenceContextEEEclESA_', symObjAddr: 0x24D78, symBinAddr: 0xDC74AC, symSize: 0x37C }
  - { offset: 0x365632, size: 0x8, addend: 0x0, symName: '__ZNKSt3__110__function6__funcIZN4onnx11GetOpSchemaINS2_18Flatten_Onnx_ver11EEENS2_8OpSchemaEvE3$_0NS_9allocatorIS6_EEFvRNS2_16InferenceContextEEE6targetERKSt9type_info', symObjAddr: 0x250F4, symBinAddr: 0xDC7828, symSize: 0x64 }
  - { offset: 0x3656E5, size: 0x8, addend: 0x0, symName: '__ZNKSt3__110__function6__funcIZN4onnx11GetOpSchemaINS2_18Flatten_Onnx_ver11EEENS2_8OpSchemaEvE3$_0NS_9allocatorIS6_EEFvRNS2_16InferenceContextEEE11target_typeEv', symObjAddr: 0x25158, symBinAddr: 0xDC788C, symSize: 0xC }
  - { offset: 0x365708, size: 0x8, addend: 0x0, symName: '__ZNSt3__110__function6__funcIZN4onnx11GetOpSchemaINS2_19MaxUnpool_Onnx_ver9EEENS2_8OpSchemaEvE3$_0NS_9allocatorIS6_EEFvRNS2_16InferenceContextEEED1Ev', symObjAddr: 0x25258, symBinAddr: 0xDC798C, symSize: 0x4 }
  - { offset: 0x365733, size: 0x8, addend: 0x0, symName: '__ZNSt3__110__function6__funcIZN4onnx11GetOpSchemaINS2_19MaxUnpool_Onnx_ver9EEENS2_8OpSchemaEvE3$_0NS_9allocatorIS6_EEFvRNS2_16InferenceContextEEED0Ev', symObjAddr: 0x2525C, symBinAddr: 0xDC7990, symSize: 0x4 }
  - { offset: 0x3657E8, size: 0x8, addend: 0x0, symName: '__ZNKSt3__110__function6__funcIZN4onnx11GetOpSchemaINS2_19MaxUnpool_Onnx_ver9EEENS2_8OpSchemaEvE3$_0NS_9allocatorIS6_EEFvRNS2_16InferenceContextEEE7__cloneEv', symObjAddr: 0x25260, symBinAddr: 0xDC7994, symSize: 0x24 }
  - { offset: 0x36592B, size: 0x8, addend: 0x0, symName: '__ZNKSt3__110__function6__funcIZN4onnx11GetOpSchemaINS2_19MaxUnpool_Onnx_ver9EEENS2_8OpSchemaEvE3$_0NS_9allocatorIS6_EEFvRNS2_16InferenceContextEEE7__cloneEPNS0_6__baseISB_EE', symObjAddr: 0x25284, symBinAddr: 0xDC79B8, symSize: 0x10 }
  - { offset: 0x36595F, size: 0x8, addend: 0x0, symName: '__ZNKSt3__110__function6__funcIZN4onnx11GetOpSchemaINS2_19MaxUnpool_Onnx_ver9EEENS2_8OpSchemaEvE3$_0NS_9allocatorIS6_EEFvRNS2_16InferenceContextEEE7__cloneEPNS0_6__baseISB_EE', symObjAddr: 0x25284, symBinAddr: 0xDC79B8, symSize: 0x10 }
  - { offset: 0x36597B, size: 0x8, addend: 0x0, symName: '__ZNKSt3__110__function6__funcIZN4onnx11GetOpSchemaINS2_19MaxUnpool_Onnx_ver9EEENS2_8OpSchemaEvE3$_0NS_9allocatorIS6_EEFvRNS2_16InferenceContextEEE7__cloneEPNS0_6__baseISB_EE', symObjAddr: 0x25284, symBinAddr: 0xDC79B8, symSize: 0x10 }
  - { offset: 0x365997, size: 0x8, addend: 0x0, symName: '__ZNSt3__110__function6__funcIZN4onnx11GetOpSchemaINS2_19MaxUnpool_Onnx_ver9EEENS2_8OpSchemaEvE3$_0NS_9allocatorIS6_EEFvRNS2_16InferenceContextEEE7destroyEv', symObjAddr: 0x25294, symBinAddr: 0xDC79C8, symSize: 0x4 }
  - { offset: 0x3659E6, size: 0x8, addend: 0x0, symName: '__ZNSt3__110__function6__funcIZN4onnx11GetOpSchemaINS2_19MaxUnpool_Onnx_ver9EEENS2_8OpSchemaEvE3$_0NS_9allocatorIS6_EEFvRNS2_16InferenceContextEEE18destroy_deallocateEv', symObjAddr: 0x25298, symBinAddr: 0xDC79CC, symSize: 0x4 }
  - { offset: 0x365A19, size: 0x8, addend: 0x0, symName: '__ZNSt3__110__function6__funcIZN4onnx11GetOpSchemaINS2_19MaxUnpool_Onnx_ver9EEENS2_8OpSchemaEvE3$_0NS_9allocatorIS6_EEFvRNS2_16InferenceContextEEE18destroy_deallocateEv', symObjAddr: 0x25298, symBinAddr: 0xDC79CC, symSize: 0x4 }
  - { offset: 0x365A3B, size: 0x8, addend: 0x0, symName: '__ZNSt3__110__function6__funcIZN4onnx11GetOpSchemaINS2_19MaxUnpool_Onnx_ver9EEENS2_8OpSchemaEvE3$_0NS_9allocatorIS6_EEFvRNS2_16InferenceContextEEE18destroy_deallocateEv', symObjAddr: 0x25298, symBinAddr: 0xDC79CC, symSize: 0x4 }
  - { offset: 0x365A66, size: 0x8, addend: 0x0, symName: '__ZNSt3__110__function6__funcIZN4onnx11GetOpSchemaINS2_19MaxUnpool_Onnx_ver9EEENS2_8OpSchemaEvE3$_0NS_9allocatorIS6_EEFvRNS2_16InferenceContextEEE18destroy_deallocateEv', symObjAddr: 0x25298, symBinAddr: 0xDC79CC, symSize: 0x4 }
  - { offset: 0x365A8C, size: 0x8, addend: 0x0, symName: '__ZNSt3__110__function6__funcIZN4onnx11GetOpSchemaINS2_19MaxUnpool_Onnx_ver9EEENS2_8OpSchemaEvE3$_0NS_9allocatorIS6_EEFvRNS2_16InferenceContextEEE18destroy_deallocateEv', symObjAddr: 0x25298, symBinAddr: 0xDC79CC, symSize: 0x4 }
  - { offset: 0x365B36, size: 0x8, addend: 0x0, symName: '__ZNSt3__110__function6__funcIZN4onnx11GetOpSchemaINS2_19MaxUnpool_Onnx_ver9EEENS2_8OpSchemaEvE3$_0NS_9allocatorIS6_EEFvRNS2_16InferenceContextEEEclESA_', symObjAddr: 0x2529C, symBinAddr: 0xDC79D0, symSize: 0xE88 }
  - { offset: 0x3694AB, size: 0x8, addend: 0x0, symName: '__ZNKSt3__110__function6__funcIZN4onnx11GetOpSchemaINS2_19MaxUnpool_Onnx_ver9EEENS2_8OpSchemaEvE3$_0NS_9allocatorIS6_EEFvRNS2_16InferenceContextEEE6targetERKSt9type_info', symObjAddr: 0x26124, symBinAddr: 0xDC8858, symSize: 0x64 }
  - { offset: 0x36955E, size: 0x8, addend: 0x0, symName: '__ZNKSt3__110__function6__funcIZN4onnx11GetOpSchemaINS2_19MaxUnpool_Onnx_ver9EEENS2_8OpSchemaEvE3$_0NS_9allocatorIS6_EEFvRNS2_16InferenceContextEEE11target_typeEv', symObjAddr: 0x26188, symBinAddr: 0xDC88BC, symSize: 0xC }
  - { offset: 0x369AF9, size: 0x8, addend: 0x0, symName: '__ZNSt3__110__function6__funcIZN4onnx11GetOpSchemaINS2_28BatchNormalization_Onnx_ver9EEENS2_8OpSchemaEvE3$_0NS_9allocatorIS6_EEFvRNS2_16InferenceContextEEED1Ev', symObjAddr: 0x2669C, symBinAddr: 0xDC88C8, symSize: 0x4 }
  - { offset: 0x369B8E, size: 0x8, addend: 0x0, symName: '__ZNSt3__110__function6__funcIZN4onnx11GetOpSchemaINS2_28BatchNormalization_Onnx_ver9EEENS2_8OpSchemaEvE3$_0NS_9allocatorIS6_EEFvRNS2_16InferenceContextEEED1Ev', symObjAddr: 0x2669C, symBinAddr: 0xDC88C8, symSize: 0x4 }
  - { offset: 0x369BB9, size: 0x8, addend: 0x0, symName: '__ZNSt3__110__function6__funcIZN4onnx11GetOpSchemaINS2_28BatchNormalization_Onnx_ver9EEENS2_8OpSchemaEvE3$_0NS_9allocatorIS6_EEFvRNS2_16InferenceContextEEED0Ev', symObjAddr: 0x266A0, symBinAddr: 0xDC88CC, symSize: 0x4 }
  - { offset: 0x369C6E, size: 0x8, addend: 0x0, symName: '__ZNKSt3__110__function6__funcIZN4onnx11GetOpSchemaINS2_28BatchNormalization_Onnx_ver9EEENS2_8OpSchemaEvE3$_0NS_9allocatorIS6_EEFvRNS2_16InferenceContextEEE7__cloneEv', symObjAddr: 0x266A4, symBinAddr: 0xDC88D0, symSize: 0x24 }
  - { offset: 0x369DB1, size: 0x8, addend: 0x0, symName: '__ZNKSt3__110__function6__funcIZN4onnx11GetOpSchemaINS2_28BatchNormalization_Onnx_ver9EEENS2_8OpSchemaEvE3$_0NS_9allocatorIS6_EEFvRNS2_16InferenceContextEEE7__cloneEPNS0_6__baseISB_EE', symObjAddr: 0x266C8, symBinAddr: 0xDC88F4, symSize: 0x10 }
  - { offset: 0x369DE5, size: 0x8, addend: 0x0, symName: '__ZNKSt3__110__function6__funcIZN4onnx11GetOpSchemaINS2_28BatchNormalization_Onnx_ver9EEENS2_8OpSchemaEvE3$_0NS_9allocatorIS6_EEFvRNS2_16InferenceContextEEE7__cloneEPNS0_6__baseISB_EE', symObjAddr: 0x266C8, symBinAddr: 0xDC88F4, symSize: 0x10 }
  - { offset: 0x369E01, size: 0x8, addend: 0x0, symName: '__ZNKSt3__110__function6__funcIZN4onnx11GetOpSchemaINS2_28BatchNormalization_Onnx_ver9EEENS2_8OpSchemaEvE3$_0NS_9allocatorIS6_EEFvRNS2_16InferenceContextEEE7__cloneEPNS0_6__baseISB_EE', symObjAddr: 0x266C8, symBinAddr: 0xDC88F4, symSize: 0x10 }
  - { offset: 0x369E1D, size: 0x8, addend: 0x0, symName: '__ZNSt3__110__function6__funcIZN4onnx11GetOpSchemaINS2_28BatchNormalization_Onnx_ver9EEENS2_8OpSchemaEvE3$_0NS_9allocatorIS6_EEFvRNS2_16InferenceContextEEE7destroyEv', symObjAddr: 0x266D8, symBinAddr: 0xDC8904, symSize: 0x4 }
  - { offset: 0x369E6C, size: 0x8, addend: 0x0, symName: '__ZNSt3__110__function6__funcIZN4onnx11GetOpSchemaINS2_28BatchNormalization_Onnx_ver9EEENS2_8OpSchemaEvE3$_0NS_9allocatorIS6_EEFvRNS2_16InferenceContextEEE18destroy_deallocateEv', symObjAddr: 0x266DC, symBinAddr: 0xDC8908, symSize: 0x4 }
  - { offset: 0x369E9F, size: 0x8, addend: 0x0, symName: '__ZNSt3__110__function6__funcIZN4onnx11GetOpSchemaINS2_28BatchNormalization_Onnx_ver9EEENS2_8OpSchemaEvE3$_0NS_9allocatorIS6_EEFvRNS2_16InferenceContextEEE18destroy_deallocateEv', symObjAddr: 0x266DC, symBinAddr: 0xDC8908, symSize: 0x4 }
  - { offset: 0x369EC1, size: 0x8, addend: 0x0, symName: '__ZNSt3__110__function6__funcIZN4onnx11GetOpSchemaINS2_28BatchNormalization_Onnx_ver9EEENS2_8OpSchemaEvE3$_0NS_9allocatorIS6_EEFvRNS2_16InferenceContextEEE18destroy_deallocateEv', symObjAddr: 0x266DC, symBinAddr: 0xDC8908, symSize: 0x4 }
  - { offset: 0x369EEC, size: 0x8, addend: 0x0, symName: '__ZNSt3__110__function6__funcIZN4onnx11GetOpSchemaINS2_28BatchNormalization_Onnx_ver9EEENS2_8OpSchemaEvE3$_0NS_9allocatorIS6_EEFvRNS2_16InferenceContextEEE18destroy_deallocateEv', symObjAddr: 0x266DC, symBinAddr: 0xDC8908, symSize: 0x4 }
  - { offset: 0x369F12, size: 0x8, addend: 0x0, symName: '__ZNSt3__110__function6__funcIZN4onnx11GetOpSchemaINS2_28BatchNormalization_Onnx_ver9EEENS2_8OpSchemaEvE3$_0NS_9allocatorIS6_EEFvRNS2_16InferenceContextEEE18destroy_deallocateEv', symObjAddr: 0x266DC, symBinAddr: 0xDC8908, symSize: 0x4 }
  - { offset: 0x369FBC, size: 0x8, addend: 0x0, symName: '__ZNSt3__110__function6__funcIZN4onnx11GetOpSchemaINS2_28BatchNormalization_Onnx_ver9EEENS2_8OpSchemaEvE3$_0NS_9allocatorIS6_EEFvRNS2_16InferenceContextEEEclESA_', symObjAddr: 0x266E0, symBinAddr: 0xDC890C, symSize: 0x8 }
  - { offset: 0x36A076, size: 0x8, addend: 0x0, symName: '__ZNKSt3__110__function6__funcIZN4onnx11GetOpSchemaINS2_28BatchNormalization_Onnx_ver9EEENS2_8OpSchemaEvE3$_0NS_9allocatorIS6_EEFvRNS2_16InferenceContextEEE6targetERKSt9type_info', symObjAddr: 0x266E8, symBinAddr: 0xDC8914, symSize: 0x64 }
  - { offset: 0x36A129, size: 0x8, addend: 0x0, symName: '__ZNKSt3__110__function6__funcIZN4onnx11GetOpSchemaINS2_28BatchNormalization_Onnx_ver9EEENS2_8OpSchemaEvE3$_0NS_9allocatorIS6_EEFvRNS2_16InferenceContextEEE11target_typeEv', symObjAddr: 0x2674C, symBinAddr: 0xDC8978, symSize: 0xC }
  - { offset: 0x36A14C, size: 0x8, addend: 0x0, symName: '__ZNSt3__110__function6__funcIZN4onnx11GetOpSchemaINS2_29BatchNormalization_Onnx_ver14EEENS2_8OpSchemaEvE3$_0NS_9allocatorIS6_EEFvRNS2_16InferenceContextEEED1Ev', symObjAddr: 0x26758, symBinAddr: 0xDC8984, symSize: 0x4 }
  - { offset: 0x36A177, size: 0x8, addend: 0x0, symName: '__ZNSt3__110__function6__funcIZN4onnx11GetOpSchemaINS2_29BatchNormalization_Onnx_ver14EEENS2_8OpSchemaEvE3$_0NS_9allocatorIS6_EEFvRNS2_16InferenceContextEEED0Ev', symObjAddr: 0x2675C, symBinAddr: 0xDC8988, symSize: 0x4 }
  - { offset: 0x36A22C, size: 0x8, addend: 0x0, symName: '__ZNKSt3__110__function6__funcIZN4onnx11GetOpSchemaINS2_29BatchNormalization_Onnx_ver14EEENS2_8OpSchemaEvE3$_0NS_9allocatorIS6_EEFvRNS2_16InferenceContextEEE7__cloneEv', symObjAddr: 0x26760, symBinAddr: 0xDC898C, symSize: 0x24 }
  - { offset: 0x36A36F, size: 0x8, addend: 0x0, symName: '__ZNKSt3__110__function6__funcIZN4onnx11GetOpSchemaINS2_29BatchNormalization_Onnx_ver14EEENS2_8OpSchemaEvE3$_0NS_9allocatorIS6_EEFvRNS2_16InferenceContextEEE7__cloneEPNS0_6__baseISB_EE', symObjAddr: 0x26784, symBinAddr: 0xDC89B0, symSize: 0x10 }
  - { offset: 0x36A3A3, size: 0x8, addend: 0x0, symName: '__ZNKSt3__110__function6__funcIZN4onnx11GetOpSchemaINS2_29BatchNormalization_Onnx_ver14EEENS2_8OpSchemaEvE3$_0NS_9allocatorIS6_EEFvRNS2_16InferenceContextEEE7__cloneEPNS0_6__baseISB_EE', symObjAddr: 0x26784, symBinAddr: 0xDC89B0, symSize: 0x10 }
  - { offset: 0x36A3BF, size: 0x8, addend: 0x0, symName: '__ZNKSt3__110__function6__funcIZN4onnx11GetOpSchemaINS2_29BatchNormalization_Onnx_ver14EEENS2_8OpSchemaEvE3$_0NS_9allocatorIS6_EEFvRNS2_16InferenceContextEEE7__cloneEPNS0_6__baseISB_EE', symObjAddr: 0x26784, symBinAddr: 0xDC89B0, symSize: 0x10 }
  - { offset: 0x36A3DB, size: 0x8, addend: 0x0, symName: '__ZNSt3__110__function6__funcIZN4onnx11GetOpSchemaINS2_29BatchNormalization_Onnx_ver14EEENS2_8OpSchemaEvE3$_0NS_9allocatorIS6_EEFvRNS2_16InferenceContextEEE7destroyEv', symObjAddr: 0x26794, symBinAddr: 0xDC89C0, symSize: 0x4 }
  - { offset: 0x36A42A, size: 0x8, addend: 0x0, symName: '__ZNSt3__110__function6__funcIZN4onnx11GetOpSchemaINS2_29BatchNormalization_Onnx_ver14EEENS2_8OpSchemaEvE3$_0NS_9allocatorIS6_EEFvRNS2_16InferenceContextEEE18destroy_deallocateEv', symObjAddr: 0x26798, symBinAddr: 0xDC89C4, symSize: 0x4 }
  - { offset: 0x36A45D, size: 0x8, addend: 0x0, symName: '__ZNSt3__110__function6__funcIZN4onnx11GetOpSchemaINS2_29BatchNormalization_Onnx_ver14EEENS2_8OpSchemaEvE3$_0NS_9allocatorIS6_EEFvRNS2_16InferenceContextEEE18destroy_deallocateEv', symObjAddr: 0x26798, symBinAddr: 0xDC89C4, symSize: 0x4 }
  - { offset: 0x36A47F, size: 0x8, addend: 0x0, symName: '__ZNSt3__110__function6__funcIZN4onnx11GetOpSchemaINS2_29BatchNormalization_Onnx_ver14EEENS2_8OpSchemaEvE3$_0NS_9allocatorIS6_EEFvRNS2_16InferenceContextEEE18destroy_deallocateEv', symObjAddr: 0x26798, symBinAddr: 0xDC89C4, symSize: 0x4 }
  - { offset: 0x36A4AA, size: 0x8, addend: 0x0, symName: '__ZNSt3__110__function6__funcIZN4onnx11GetOpSchemaINS2_29BatchNormalization_Onnx_ver14EEENS2_8OpSchemaEvE3$_0NS_9allocatorIS6_EEFvRNS2_16InferenceContextEEE18destroy_deallocateEv', symObjAddr: 0x26798, symBinAddr: 0xDC89C4, symSize: 0x4 }
  - { offset: 0x36A4D0, size: 0x8, addend: 0x0, symName: '__ZNSt3__110__function6__funcIZN4onnx11GetOpSchemaINS2_29BatchNormalization_Onnx_ver14EEENS2_8OpSchemaEvE3$_0NS_9allocatorIS6_EEFvRNS2_16InferenceContextEEE18destroy_deallocateEv', symObjAddr: 0x26798, symBinAddr: 0xDC89C4, symSize: 0x4 }
  - { offset: 0x36A5AE, size: 0x8, addend: 0x0, symName: '__ZNSt3__110__function6__funcIZN4onnx11GetOpSchemaINS2_29BatchNormalization_Onnx_ver14EEENS2_8OpSchemaEvE3$_0NS_9allocatorIS6_EEFvRNS2_16InferenceContextEEEclESA_', symObjAddr: 0x2679C, symBinAddr: 0xDC89C8, symSize: 0x570 }
  - { offset: 0x36B655, size: 0x8, addend: 0x0, symName: '__ZNKSt3__110__function6__funcIZN4onnx11GetOpSchemaINS2_29BatchNormalization_Onnx_ver14EEENS2_8OpSchemaEvE3$_0NS_9allocatorIS6_EEFvRNS2_16InferenceContextEEE6targetERKSt9type_info', symObjAddr: 0x26D0C, symBinAddr: 0xDC8F38, symSize: 0x64 }
  - { offset: 0x36B708, size: 0x8, addend: 0x0, symName: '__ZNKSt3__110__function6__funcIZN4onnx11GetOpSchemaINS2_29BatchNormalization_Onnx_ver14EEENS2_8OpSchemaEvE3$_0NS_9allocatorIS6_EEFvRNS2_16InferenceContextEEE11target_typeEv', symObjAddr: 0x26D70, symBinAddr: 0xDC8F9C, symSize: 0xC }
  - { offset: 0x36B812, size: 0x8, addend: 0x0, symName: '__ZNSt3__110__function6__funcIZN4onnx11GetOpSchemaINS2_18Dropout_Onnx_ver10EEENS2_8OpSchemaEvE3$_0NS_9allocatorIS6_EEFvRNS2_16InferenceContextEEED1Ev', symObjAddr: 0x27F94, symBinAddr: 0xDC8FA8, symSize: 0x4 }
  - { offset: 0x36B83D, size: 0x8, addend: 0x0, symName: '__ZNSt3__110__function6__funcIZN4onnx11GetOpSchemaINS2_18Dropout_Onnx_ver10EEENS2_8OpSchemaEvE3$_0NS_9allocatorIS6_EEFvRNS2_16InferenceContextEEED0Ev', symObjAddr: 0x27F98, symBinAddr: 0xDC8FAC, symSize: 0x4 }
  - { offset: 0x36B8F2, size: 0x8, addend: 0x0, symName: '__ZNKSt3__110__function6__funcIZN4onnx11GetOpSchemaINS2_18Dropout_Onnx_ver10EEENS2_8OpSchemaEvE3$_0NS_9allocatorIS6_EEFvRNS2_16InferenceContextEEE7__cloneEv', symObjAddr: 0x27F9C, symBinAddr: 0xDC8FB0, symSize: 0x24 }
  - { offset: 0x36BA35, size: 0x8, addend: 0x0, symName: '__ZNKSt3__110__function6__funcIZN4onnx11GetOpSchemaINS2_18Dropout_Onnx_ver10EEENS2_8OpSchemaEvE3$_0NS_9allocatorIS6_EEFvRNS2_16InferenceContextEEE7__cloneEPNS0_6__baseISB_EE', symObjAddr: 0x27FC0, symBinAddr: 0xDC8FD4, symSize: 0x10 }
  - { offset: 0x36BA69, size: 0x8, addend: 0x0, symName: '__ZNKSt3__110__function6__funcIZN4onnx11GetOpSchemaINS2_18Dropout_Onnx_ver10EEENS2_8OpSchemaEvE3$_0NS_9allocatorIS6_EEFvRNS2_16InferenceContextEEE7__cloneEPNS0_6__baseISB_EE', symObjAddr: 0x27FC0, symBinAddr: 0xDC8FD4, symSize: 0x10 }
  - { offset: 0x36BA85, size: 0x8, addend: 0x0, symName: '__ZNKSt3__110__function6__funcIZN4onnx11GetOpSchemaINS2_18Dropout_Onnx_ver10EEENS2_8OpSchemaEvE3$_0NS_9allocatorIS6_EEFvRNS2_16InferenceContextEEE7__cloneEPNS0_6__baseISB_EE', symObjAddr: 0x27FC0, symBinAddr: 0xDC8FD4, symSize: 0x10 }
  - { offset: 0x36BAA1, size: 0x8, addend: 0x0, symName: '__ZNSt3__110__function6__funcIZN4onnx11GetOpSchemaINS2_18Dropout_Onnx_ver10EEENS2_8OpSchemaEvE3$_0NS_9allocatorIS6_EEFvRNS2_16InferenceContextEEE7destroyEv', symObjAddr: 0x27FD0, symBinAddr: 0xDC8FE4, symSize: 0x4 }
  - { offset: 0x36BAF0, size: 0x8, addend: 0x0, symName: '__ZNSt3__110__function6__funcIZN4onnx11GetOpSchemaINS2_18Dropout_Onnx_ver10EEENS2_8OpSchemaEvE3$_0NS_9allocatorIS6_EEFvRNS2_16InferenceContextEEE18destroy_deallocateEv', symObjAddr: 0x27FD4, symBinAddr: 0xDC8FE8, symSize: 0x4 }
  - { offset: 0x36BB23, size: 0x8, addend: 0x0, symName: '__ZNSt3__110__function6__funcIZN4onnx11GetOpSchemaINS2_18Dropout_Onnx_ver10EEENS2_8OpSchemaEvE3$_0NS_9allocatorIS6_EEFvRNS2_16InferenceContextEEE18destroy_deallocateEv', symObjAddr: 0x27FD4, symBinAddr: 0xDC8FE8, symSize: 0x4 }
  - { offset: 0x36BB45, size: 0x8, addend: 0x0, symName: '__ZNSt3__110__function6__funcIZN4onnx11GetOpSchemaINS2_18Dropout_Onnx_ver10EEENS2_8OpSchemaEvE3$_0NS_9allocatorIS6_EEFvRNS2_16InferenceContextEEE18destroy_deallocateEv', symObjAddr: 0x27FD4, symBinAddr: 0xDC8FE8, symSize: 0x4 }
  - { offset: 0x36BB70, size: 0x8, addend: 0x0, symName: '__ZNSt3__110__function6__funcIZN4onnx11GetOpSchemaINS2_18Dropout_Onnx_ver10EEENS2_8OpSchemaEvE3$_0NS_9allocatorIS6_EEFvRNS2_16InferenceContextEEE18destroy_deallocateEv', symObjAddr: 0x27FD4, symBinAddr: 0xDC8FE8, symSize: 0x4 }
  - { offset: 0x36BB96, size: 0x8, addend: 0x0, symName: '__ZNSt3__110__function6__funcIZN4onnx11GetOpSchemaINS2_18Dropout_Onnx_ver10EEENS2_8OpSchemaEvE3$_0NS_9allocatorIS6_EEFvRNS2_16InferenceContextEEE18destroy_deallocateEv', symObjAddr: 0x27FD4, symBinAddr: 0xDC8FE8, symSize: 0x4 }
  - { offset: 0x36BC40, size: 0x8, addend: 0x0, symName: '__ZNSt3__110__function6__funcIZN4onnx11GetOpSchemaINS2_18Dropout_Onnx_ver10EEENS2_8OpSchemaEvE3$_0NS_9allocatorIS6_EEFvRNS2_16InferenceContextEEEclESA_', symObjAddr: 0x27FD8, symBinAddr: 0xDC8FEC, symSize: 0x12C }
  - { offset: 0x36BEB3, size: 0x8, addend: 0x0, symName: '__ZNKSt3__110__function6__funcIZN4onnx11GetOpSchemaINS2_18Dropout_Onnx_ver10EEENS2_8OpSchemaEvE3$_0NS_9allocatorIS6_EEFvRNS2_16InferenceContextEEE6targetERKSt9type_info', symObjAddr: 0x28104, symBinAddr: 0xDC9118, symSize: 0x64 }
  - { offset: 0x36BF66, size: 0x8, addend: 0x0, symName: '__ZNKSt3__110__function6__funcIZN4onnx11GetOpSchemaINS2_18Dropout_Onnx_ver10EEENS2_8OpSchemaEvE3$_0NS_9allocatorIS6_EEFvRNS2_16InferenceContextEEE11target_typeEv', symObjAddr: 0x28168, symBinAddr: 0xDC917C, symSize: 0xC }
  - { offset: 0x36BF89, size: 0x8, addend: 0x0, symName: '__ZNSt3__110__function6__funcIZN4onnx11GetOpSchemaINS2_28BatchNormalization_Onnx_ver6EEENS2_8OpSchemaEvE3$_0NS_9allocatorIS6_EEFvRNS2_16InferenceContextEEED1Ev', symObjAddr: 0x28174, symBinAddr: 0xDC9188, symSize: 0x4 }
  - { offset: 0x36BFB4, size: 0x8, addend: 0x0, symName: '__ZNSt3__110__function6__funcIZN4onnx11GetOpSchemaINS2_28BatchNormalization_Onnx_ver6EEENS2_8OpSchemaEvE3$_0NS_9allocatorIS6_EEFvRNS2_16InferenceContextEEED0Ev', symObjAddr: 0x28178, symBinAddr: 0xDC918C, symSize: 0x4 }
  - { offset: 0x36C069, size: 0x8, addend: 0x0, symName: '__ZNKSt3__110__function6__funcIZN4onnx11GetOpSchemaINS2_28BatchNormalization_Onnx_ver6EEENS2_8OpSchemaEvE3$_0NS_9allocatorIS6_EEFvRNS2_16InferenceContextEEE7__cloneEv', symObjAddr: 0x2817C, symBinAddr: 0xDC9190, symSize: 0x24 }
  - { offset: 0x36C1AC, size: 0x8, addend: 0x0, symName: '__ZNKSt3__110__function6__funcIZN4onnx11GetOpSchemaINS2_28BatchNormalization_Onnx_ver6EEENS2_8OpSchemaEvE3$_0NS_9allocatorIS6_EEFvRNS2_16InferenceContextEEE7__cloneEPNS0_6__baseISB_EE', symObjAddr: 0x281A0, symBinAddr: 0xDC91B4, symSize: 0x10 }
  - { offset: 0x36C1E0, size: 0x8, addend: 0x0, symName: '__ZNKSt3__110__function6__funcIZN4onnx11GetOpSchemaINS2_28BatchNormalization_Onnx_ver6EEENS2_8OpSchemaEvE3$_0NS_9allocatorIS6_EEFvRNS2_16InferenceContextEEE7__cloneEPNS0_6__baseISB_EE', symObjAddr: 0x281A0, symBinAddr: 0xDC91B4, symSize: 0x10 }
  - { offset: 0x36C1FC, size: 0x8, addend: 0x0, symName: '__ZNKSt3__110__function6__funcIZN4onnx11GetOpSchemaINS2_28BatchNormalization_Onnx_ver6EEENS2_8OpSchemaEvE3$_0NS_9allocatorIS6_EEFvRNS2_16InferenceContextEEE7__cloneEPNS0_6__baseISB_EE', symObjAddr: 0x281A0, symBinAddr: 0xDC91B4, symSize: 0x10 }
  - { offset: 0x36C218, size: 0x8, addend: 0x0, symName: '__ZNSt3__110__function6__funcIZN4onnx11GetOpSchemaINS2_28BatchNormalization_Onnx_ver6EEENS2_8OpSchemaEvE3$_0NS_9allocatorIS6_EEFvRNS2_16InferenceContextEEE7destroyEv', symObjAddr: 0x281B0, symBinAddr: 0xDC91C4, symSize: 0x4 }
  - { offset: 0x36C267, size: 0x8, addend: 0x0, symName: '__ZNSt3__110__function6__funcIZN4onnx11GetOpSchemaINS2_28BatchNormalization_Onnx_ver6EEENS2_8OpSchemaEvE3$_0NS_9allocatorIS6_EEFvRNS2_16InferenceContextEEE18destroy_deallocateEv', symObjAddr: 0x281B4, symBinAddr: 0xDC91C8, symSize: 0x4 }
  - { offset: 0x36C29A, size: 0x8, addend: 0x0, symName: '__ZNSt3__110__function6__funcIZN4onnx11GetOpSchemaINS2_28BatchNormalization_Onnx_ver6EEENS2_8OpSchemaEvE3$_0NS_9allocatorIS6_EEFvRNS2_16InferenceContextEEE18destroy_deallocateEv', symObjAddr: 0x281B4, symBinAddr: 0xDC91C8, symSize: 0x4 }
  - { offset: 0x36C2BC, size: 0x8, addend: 0x0, symName: '__ZNSt3__110__function6__funcIZN4onnx11GetOpSchemaINS2_28BatchNormalization_Onnx_ver6EEENS2_8OpSchemaEvE3$_0NS_9allocatorIS6_EEFvRNS2_16InferenceContextEEE18destroy_deallocateEv', symObjAddr: 0x281B4, symBinAddr: 0xDC91C8, symSize: 0x4 }
  - { offset: 0x36C2E7, size: 0x8, addend: 0x0, symName: '__ZNSt3__110__function6__funcIZN4onnx11GetOpSchemaINS2_28BatchNormalization_Onnx_ver6EEENS2_8OpSchemaEvE3$_0NS_9allocatorIS6_EEFvRNS2_16InferenceContextEEE18destroy_deallocateEv', symObjAddr: 0x281B4, symBinAddr: 0xDC91C8, symSize: 0x4 }
  - { offset: 0x36C30D, size: 0x8, addend: 0x0, symName: '__ZNSt3__110__function6__funcIZN4onnx11GetOpSchemaINS2_28BatchNormalization_Onnx_ver6EEENS2_8OpSchemaEvE3$_0NS_9allocatorIS6_EEFvRNS2_16InferenceContextEEE18destroy_deallocateEv', symObjAddr: 0x281B4, symBinAddr: 0xDC91C8, symSize: 0x4 }
  - { offset: 0x36C3B7, size: 0x8, addend: 0x0, symName: '__ZNSt3__110__function6__funcIZN4onnx11GetOpSchemaINS2_28BatchNormalization_Onnx_ver6EEENS2_8OpSchemaEvE3$_0NS_9allocatorIS6_EEFvRNS2_16InferenceContextEEEclESA_', symObjAddr: 0x281B8, symBinAddr: 0xDC91CC, symSize: 0x8 }
  - { offset: 0x36C471, size: 0x8, addend: 0x0, symName: '__ZNKSt3__110__function6__funcIZN4onnx11GetOpSchemaINS2_28BatchNormalization_Onnx_ver6EEENS2_8OpSchemaEvE3$_0NS_9allocatorIS6_EEFvRNS2_16InferenceContextEEE6targetERKSt9type_info', symObjAddr: 0x281C0, symBinAddr: 0xDC91D4, symSize: 0x64 }
  - { offset: 0x36C524, size: 0x8, addend: 0x0, symName: '__ZNKSt3__110__function6__funcIZN4onnx11GetOpSchemaINS2_28BatchNormalization_Onnx_ver6EEENS2_8OpSchemaEvE3$_0NS_9allocatorIS6_EEFvRNS2_16InferenceContextEEE11target_typeEv', symObjAddr: 0x28224, symBinAddr: 0xDC9238, symSize: 0xC }
  - { offset: 0x36C547, size: 0x8, addend: 0x0, symName: '__ZNSt3__110__function6__funcIZN4onnx11GetOpSchemaINS2_17Flatten_Onnx_ver1EEENS2_8OpSchemaEvE3$_0NS_9allocatorIS6_EEFvRNS2_16InferenceContextEEED1Ev', symObjAddr: 0x28230, symBinAddr: 0xDC9244, symSize: 0x4 }
  - { offset: 0x36C572, size: 0x8, addend: 0x0, symName: '__ZNSt3__110__function6__funcIZN4onnx11GetOpSchemaINS2_17Flatten_Onnx_ver1EEENS2_8OpSchemaEvE3$_0NS_9allocatorIS6_EEFvRNS2_16InferenceContextEEED0Ev', symObjAddr: 0x28234, symBinAddr: 0xDC9248, symSize: 0x4 }
  - { offset: 0x36C627, size: 0x8, addend: 0x0, symName: '__ZNKSt3__110__function6__funcIZN4onnx11GetOpSchemaINS2_17Flatten_Onnx_ver1EEENS2_8OpSchemaEvE3$_0NS_9allocatorIS6_EEFvRNS2_16InferenceContextEEE7__cloneEv', symObjAddr: 0x28238, symBinAddr: 0xDC924C, symSize: 0x24 }
  - { offset: 0x36C76A, size: 0x8, addend: 0x0, symName: '__ZNKSt3__110__function6__funcIZN4onnx11GetOpSchemaINS2_17Flatten_Onnx_ver1EEENS2_8OpSchemaEvE3$_0NS_9allocatorIS6_EEFvRNS2_16InferenceContextEEE7__cloneEPNS0_6__baseISB_EE', symObjAddr: 0x2825C, symBinAddr: 0xDC9270, symSize: 0x10 }
  - { offset: 0x36C79E, size: 0x8, addend: 0x0, symName: '__ZNKSt3__110__function6__funcIZN4onnx11GetOpSchemaINS2_17Flatten_Onnx_ver1EEENS2_8OpSchemaEvE3$_0NS_9allocatorIS6_EEFvRNS2_16InferenceContextEEE7__cloneEPNS0_6__baseISB_EE', symObjAddr: 0x2825C, symBinAddr: 0xDC9270, symSize: 0x10 }
  - { offset: 0x36C7BA, size: 0x8, addend: 0x0, symName: '__ZNKSt3__110__function6__funcIZN4onnx11GetOpSchemaINS2_17Flatten_Onnx_ver1EEENS2_8OpSchemaEvE3$_0NS_9allocatorIS6_EEFvRNS2_16InferenceContextEEE7__cloneEPNS0_6__baseISB_EE', symObjAddr: 0x2825C, symBinAddr: 0xDC9270, symSize: 0x10 }
  - { offset: 0x36C7D6, size: 0x8, addend: 0x0, symName: '__ZNSt3__110__function6__funcIZN4onnx11GetOpSchemaINS2_17Flatten_Onnx_ver1EEENS2_8OpSchemaEvE3$_0NS_9allocatorIS6_EEFvRNS2_16InferenceContextEEE7destroyEv', symObjAddr: 0x2826C, symBinAddr: 0xDC9280, symSize: 0x4 }
  - { offset: 0x36C825, size: 0x8, addend: 0x0, symName: '__ZNSt3__110__function6__funcIZN4onnx11GetOpSchemaINS2_17Flatten_Onnx_ver1EEENS2_8OpSchemaEvE3$_0NS_9allocatorIS6_EEFvRNS2_16InferenceContextEEE18destroy_deallocateEv', symObjAddr: 0x28270, symBinAddr: 0xDC9284, symSize: 0x4 }
  - { offset: 0x36C858, size: 0x8, addend: 0x0, symName: '__ZNSt3__110__function6__funcIZN4onnx11GetOpSchemaINS2_17Flatten_Onnx_ver1EEENS2_8OpSchemaEvE3$_0NS_9allocatorIS6_EEFvRNS2_16InferenceContextEEE18destroy_deallocateEv', symObjAddr: 0x28270, symBinAddr: 0xDC9284, symSize: 0x4 }
  - { offset: 0x36C87A, size: 0x8, addend: 0x0, symName: '__ZNSt3__110__function6__funcIZN4onnx11GetOpSchemaINS2_17Flatten_Onnx_ver1EEENS2_8OpSchemaEvE3$_0NS_9allocatorIS6_EEFvRNS2_16InferenceContextEEE18destroy_deallocateEv', symObjAddr: 0x28270, symBinAddr: 0xDC9284, symSize: 0x4 }
  - { offset: 0x36C8A5, size: 0x8, addend: 0x0, symName: '__ZNSt3__110__function6__funcIZN4onnx11GetOpSchemaINS2_17Flatten_Onnx_ver1EEENS2_8OpSchemaEvE3$_0NS_9allocatorIS6_EEFvRNS2_16InferenceContextEEE18destroy_deallocateEv', symObjAddr: 0x28270, symBinAddr: 0xDC9284, symSize: 0x4 }
  - { offset: 0x36C8CB, size: 0x8, addend: 0x0, symName: '__ZNSt3__110__function6__funcIZN4onnx11GetOpSchemaINS2_17Flatten_Onnx_ver1EEENS2_8OpSchemaEvE3$_0NS_9allocatorIS6_EEFvRNS2_16InferenceContextEEE18destroy_deallocateEv', symObjAddr: 0x28270, symBinAddr: 0xDC9284, symSize: 0x4 }
  - { offset: 0x36C999, size: 0x8, addend: 0x0, symName: '__ZNSt3__110__function6__funcIZN4onnx11GetOpSchemaINS2_17Flatten_Onnx_ver1EEENS2_8OpSchemaEvE3$_0NS_9allocatorIS6_EEFvRNS2_16InferenceContextEEEclESA_', symObjAddr: 0x28274, symBinAddr: 0xDC9288, symSize: 0x374 }
  - { offset: 0x36D32A, size: 0x8, addend: 0x0, symName: '__ZNKSt3__110__function6__funcIZN4onnx11GetOpSchemaINS2_17Flatten_Onnx_ver1EEENS2_8OpSchemaEvE3$_0NS_9allocatorIS6_EEFvRNS2_16InferenceContextEEE6targetERKSt9type_info', symObjAddr: 0x285E8, symBinAddr: 0xDC95FC, symSize: 0x64 }
  - { offset: 0x36D3DD, size: 0x8, addend: 0x0, symName: '__ZNKSt3__110__function6__funcIZN4onnx11GetOpSchemaINS2_17Flatten_Onnx_ver1EEENS2_8OpSchemaEvE3$_0NS_9allocatorIS6_EEFvRNS2_16InferenceContextEEE11target_typeEv', symObjAddr: 0x2864C, symBinAddr: 0xDC9660, symSize: 0xC }
  - { offset: 0x36D400, size: 0x8, addend: 0x0, symName: '__ZNSt3__110__function6__funcIZN4onnx11GetOpSchemaINS2_17Flatten_Onnx_ver9EEENS2_8OpSchemaEvE3$_0NS_9allocatorIS6_EEFvRNS2_16InferenceContextEEED1Ev', symObjAddr: 0x28658, symBinAddr: 0xDC966C, symSize: 0x4 }
  - { offset: 0x36D42B, size: 0x8, addend: 0x0, symName: '__ZNSt3__110__function6__funcIZN4onnx11GetOpSchemaINS2_17Flatten_Onnx_ver9EEENS2_8OpSchemaEvE3$_0NS_9allocatorIS6_EEFvRNS2_16InferenceContextEEED0Ev', symObjAddr: 0x2865C, symBinAddr: 0xDC9670, symSize: 0x4 }
  - { offset: 0x36D4E0, size: 0x8, addend: 0x0, symName: '__ZNKSt3__110__function6__funcIZN4onnx11GetOpSchemaINS2_17Flatten_Onnx_ver9EEENS2_8OpSchemaEvE3$_0NS_9allocatorIS6_EEFvRNS2_16InferenceContextEEE7__cloneEv', symObjAddr: 0x28660, symBinAddr: 0xDC9674, symSize: 0x24 }
  - { offset: 0x36D623, size: 0x8, addend: 0x0, symName: '__ZNKSt3__110__function6__funcIZN4onnx11GetOpSchemaINS2_17Flatten_Onnx_ver9EEENS2_8OpSchemaEvE3$_0NS_9allocatorIS6_EEFvRNS2_16InferenceContextEEE7__cloneEPNS0_6__baseISB_EE', symObjAddr: 0x28684, symBinAddr: 0xDC9698, symSize: 0x10 }
  - { offset: 0x36D657, size: 0x8, addend: 0x0, symName: '__ZNKSt3__110__function6__funcIZN4onnx11GetOpSchemaINS2_17Flatten_Onnx_ver9EEENS2_8OpSchemaEvE3$_0NS_9allocatorIS6_EEFvRNS2_16InferenceContextEEE7__cloneEPNS0_6__baseISB_EE', symObjAddr: 0x28684, symBinAddr: 0xDC9698, symSize: 0x10 }
  - { offset: 0x36D673, size: 0x8, addend: 0x0, symName: '__ZNKSt3__110__function6__funcIZN4onnx11GetOpSchemaINS2_17Flatten_Onnx_ver9EEENS2_8OpSchemaEvE3$_0NS_9allocatorIS6_EEFvRNS2_16InferenceContextEEE7__cloneEPNS0_6__baseISB_EE', symObjAddr: 0x28684, symBinAddr: 0xDC9698, symSize: 0x10 }
  - { offset: 0x36D68F, size: 0x8, addend: 0x0, symName: '__ZNSt3__110__function6__funcIZN4onnx11GetOpSchemaINS2_17Flatten_Onnx_ver9EEENS2_8OpSchemaEvE3$_0NS_9allocatorIS6_EEFvRNS2_16InferenceContextEEE7destroyEv', symObjAddr: 0x28694, symBinAddr: 0xDC96A8, symSize: 0x4 }
  - { offset: 0x36D6DE, size: 0x8, addend: 0x0, symName: '__ZNSt3__110__function6__funcIZN4onnx11GetOpSchemaINS2_17Flatten_Onnx_ver9EEENS2_8OpSchemaEvE3$_0NS_9allocatorIS6_EEFvRNS2_16InferenceContextEEE18destroy_deallocateEv', symObjAddr: 0x28698, symBinAddr: 0xDC96AC, symSize: 0x4 }
  - { offset: 0x36D711, size: 0x8, addend: 0x0, symName: '__ZNSt3__110__function6__funcIZN4onnx11GetOpSchemaINS2_17Flatten_Onnx_ver9EEENS2_8OpSchemaEvE3$_0NS_9allocatorIS6_EEFvRNS2_16InferenceContextEEE18destroy_deallocateEv', symObjAddr: 0x28698, symBinAddr: 0xDC96AC, symSize: 0x4 }
  - { offset: 0x36D733, size: 0x8, addend: 0x0, symName: '__ZNSt3__110__function6__funcIZN4onnx11GetOpSchemaINS2_17Flatten_Onnx_ver9EEENS2_8OpSchemaEvE3$_0NS_9allocatorIS6_EEFvRNS2_16InferenceContextEEE18destroy_deallocateEv', symObjAddr: 0x28698, symBinAddr: 0xDC96AC, symSize: 0x4 }
  - { offset: 0x36D75E, size: 0x8, addend: 0x0, symName: '__ZNSt3__110__function6__funcIZN4onnx11GetOpSchemaINS2_17Flatten_Onnx_ver9EEENS2_8OpSchemaEvE3$_0NS_9allocatorIS6_EEFvRNS2_16InferenceContextEEE18destroy_deallocateEv', symObjAddr: 0x28698, symBinAddr: 0xDC96AC, symSize: 0x4 }
  - { offset: 0x36D784, size: 0x8, addend: 0x0, symName: '__ZNSt3__110__function6__funcIZN4onnx11GetOpSchemaINS2_17Flatten_Onnx_ver9EEENS2_8OpSchemaEvE3$_0NS_9allocatorIS6_EEFvRNS2_16InferenceContextEEE18destroy_deallocateEv', symObjAddr: 0x28698, symBinAddr: 0xDC96AC, symSize: 0x4 }
  - { offset: 0x36D852, size: 0x8, addend: 0x0, symName: '__ZNSt3__110__function6__funcIZN4onnx11GetOpSchemaINS2_17Flatten_Onnx_ver9EEENS2_8OpSchemaEvE3$_0NS_9allocatorIS6_EEFvRNS2_16InferenceContextEEEclESA_', symObjAddr: 0x2869C, symBinAddr: 0xDC96B0, symSize: 0x374 }
  - { offset: 0x36E1E3, size: 0x8, addend: 0x0, symName: '__ZNKSt3__110__function6__funcIZN4onnx11GetOpSchemaINS2_17Flatten_Onnx_ver9EEENS2_8OpSchemaEvE3$_0NS_9allocatorIS6_EEFvRNS2_16InferenceContextEEE6targetERKSt9type_info', symObjAddr: 0x28A10, symBinAddr: 0xDC9A24, symSize: 0x64 }
  - { offset: 0x36E296, size: 0x8, addend: 0x0, symName: '__ZNKSt3__110__function6__funcIZN4onnx11GetOpSchemaINS2_17Flatten_Onnx_ver9EEENS2_8OpSchemaEvE3$_0NS_9allocatorIS6_EEFvRNS2_16InferenceContextEEE11target_typeEv', symObjAddr: 0x28A74, symBinAddr: 0xDC9A88, symSize: 0xC }
  - { offset: 0x36E2B9, size: 0x8, addend: 0x0, symName: '__ZNSt3__110__function6__funcIZN4onnx11GetOpSchemaINS2_28BatchNormalization_Onnx_ver7EEENS2_8OpSchemaEvE3$_0NS_9allocatorIS6_EEFvRNS2_16InferenceContextEEED1Ev', symObjAddr: 0x28A80, symBinAddr: 0xDC9A94, symSize: 0x4 }
  - { offset: 0x36E2E4, size: 0x8, addend: 0x0, symName: '__ZNSt3__110__function6__funcIZN4onnx11GetOpSchemaINS2_28BatchNormalization_Onnx_ver7EEENS2_8OpSchemaEvE3$_0NS_9allocatorIS6_EEFvRNS2_16InferenceContextEEED0Ev', symObjAddr: 0x28A84, symBinAddr: 0xDC9A98, symSize: 0x4 }
  - { offset: 0x36E399, size: 0x8, addend: 0x0, symName: '__ZNKSt3__110__function6__funcIZN4onnx11GetOpSchemaINS2_28BatchNormalization_Onnx_ver7EEENS2_8OpSchemaEvE3$_0NS_9allocatorIS6_EEFvRNS2_16InferenceContextEEE7__cloneEv', symObjAddr: 0x28A88, symBinAddr: 0xDC9A9C, symSize: 0x24 }
  - { offset: 0x36E4DC, size: 0x8, addend: 0x0, symName: '__ZNKSt3__110__function6__funcIZN4onnx11GetOpSchemaINS2_28BatchNormalization_Onnx_ver7EEENS2_8OpSchemaEvE3$_0NS_9allocatorIS6_EEFvRNS2_16InferenceContextEEE7__cloneEPNS0_6__baseISB_EE', symObjAddr: 0x28AAC, symBinAddr: 0xDC9AC0, symSize: 0x10 }
  - { offset: 0x36E510, size: 0x8, addend: 0x0, symName: '__ZNKSt3__110__function6__funcIZN4onnx11GetOpSchemaINS2_28BatchNormalization_Onnx_ver7EEENS2_8OpSchemaEvE3$_0NS_9allocatorIS6_EEFvRNS2_16InferenceContextEEE7__cloneEPNS0_6__baseISB_EE', symObjAddr: 0x28AAC, symBinAddr: 0xDC9AC0, symSize: 0x10 }
  - { offset: 0x36E52C, size: 0x8, addend: 0x0, symName: '__ZNKSt3__110__function6__funcIZN4onnx11GetOpSchemaINS2_28BatchNormalization_Onnx_ver7EEENS2_8OpSchemaEvE3$_0NS_9allocatorIS6_EEFvRNS2_16InferenceContextEEE7__cloneEPNS0_6__baseISB_EE', symObjAddr: 0x28AAC, symBinAddr: 0xDC9AC0, symSize: 0x10 }
  - { offset: 0x36E548, size: 0x8, addend: 0x0, symName: '__ZNSt3__110__function6__funcIZN4onnx11GetOpSchemaINS2_28BatchNormalization_Onnx_ver7EEENS2_8OpSchemaEvE3$_0NS_9allocatorIS6_EEFvRNS2_16InferenceContextEEE7destroyEv', symObjAddr: 0x28ABC, symBinAddr: 0xDC9AD0, symSize: 0x4 }
  - { offset: 0x36E597, size: 0x8, addend: 0x0, symName: '__ZNSt3__110__function6__funcIZN4onnx11GetOpSchemaINS2_28BatchNormalization_Onnx_ver7EEENS2_8OpSchemaEvE3$_0NS_9allocatorIS6_EEFvRNS2_16InferenceContextEEE18destroy_deallocateEv', symObjAddr: 0x28AC0, symBinAddr: 0xDC9AD4, symSize: 0x4 }
  - { offset: 0x36E5CA, size: 0x8, addend: 0x0, symName: '__ZNSt3__110__function6__funcIZN4onnx11GetOpSchemaINS2_28BatchNormalization_Onnx_ver7EEENS2_8OpSchemaEvE3$_0NS_9allocatorIS6_EEFvRNS2_16InferenceContextEEE18destroy_deallocateEv', symObjAddr: 0x28AC0, symBinAddr: 0xDC9AD4, symSize: 0x4 }
  - { offset: 0x36E5EC, size: 0x8, addend: 0x0, symName: '__ZNSt3__110__function6__funcIZN4onnx11GetOpSchemaINS2_28BatchNormalization_Onnx_ver7EEENS2_8OpSchemaEvE3$_0NS_9allocatorIS6_EEFvRNS2_16InferenceContextEEE18destroy_deallocateEv', symObjAddr: 0x28AC0, symBinAddr: 0xDC9AD4, symSize: 0x4 }
  - { offset: 0x36E617, size: 0x8, addend: 0x0, symName: '__ZNSt3__110__function6__funcIZN4onnx11GetOpSchemaINS2_28BatchNormalization_Onnx_ver7EEENS2_8OpSchemaEvE3$_0NS_9allocatorIS6_EEFvRNS2_16InferenceContextEEE18destroy_deallocateEv', symObjAddr: 0x28AC0, symBinAddr: 0xDC9AD4, symSize: 0x4 }
  - { offset: 0x36E63D, size: 0x8, addend: 0x0, symName: '__ZNSt3__110__function6__funcIZN4onnx11GetOpSchemaINS2_28BatchNormalization_Onnx_ver7EEENS2_8OpSchemaEvE3$_0NS_9allocatorIS6_EEFvRNS2_16InferenceContextEEE18destroy_deallocateEv', symObjAddr: 0x28AC0, symBinAddr: 0xDC9AD4, symSize: 0x4 }
  - { offset: 0x36E6E7, size: 0x8, addend: 0x0, symName: '__ZNSt3__110__function6__funcIZN4onnx11GetOpSchemaINS2_28BatchNormalization_Onnx_ver7EEENS2_8OpSchemaEvE3$_0NS_9allocatorIS6_EEFvRNS2_16InferenceContextEEEclESA_', symObjAddr: 0x28AC4, symBinAddr: 0xDC9AD8, symSize: 0x8 }
  - { offset: 0x36E7A1, size: 0x8, addend: 0x0, symName: '__ZNKSt3__110__function6__funcIZN4onnx11GetOpSchemaINS2_28BatchNormalization_Onnx_ver7EEENS2_8OpSchemaEvE3$_0NS_9allocatorIS6_EEFvRNS2_16InferenceContextEEE6targetERKSt9type_info', symObjAddr: 0x28ACC, symBinAddr: 0xDC9AE0, symSize: 0x64 }
  - { offset: 0x36E854, size: 0x8, addend: 0x0, symName: '__ZNKSt3__110__function6__funcIZN4onnx11GetOpSchemaINS2_28BatchNormalization_Onnx_ver7EEENS2_8OpSchemaEvE3$_0NS_9allocatorIS6_EEFvRNS2_16InferenceContextEEE11target_typeEv', symObjAddr: 0x28B30, symBinAddr: 0xDC9B44, symSize: 0xC }
  - { offset: 0x36E877, size: 0x8, addend: 0x0, symName: '__ZNSt3__110__function6__funcIZN4onnx11GetOpSchemaINS2_29GroupNormalization_Onnx_ver18EEENS2_8OpSchemaEvE3$_0NS_9allocatorIS6_EEFbRKNS2_24FunctionBodyBuildContextERKS5_RNS2_13FunctionProtoEEED1Ev', symObjAddr: 0x28B3C, symBinAddr: 0xDC9B50, symSize: 0x4 }
  - { offset: 0x36E8A2, size: 0x8, addend: 0x0, symName: '__ZNSt3__110__function6__funcIZN4onnx11GetOpSchemaINS2_29GroupNormalization_Onnx_ver18EEENS2_8OpSchemaEvE3$_0NS_9allocatorIS6_EEFbRKNS2_24FunctionBodyBuildContextERKS5_RNS2_13FunctionProtoEEED0Ev', symObjAddr: 0x28B40, symBinAddr: 0xDC9B54, symSize: 0x4 }
  - { offset: 0x36E957, size: 0x8, addend: 0x0, symName: '__ZNKSt3__110__function6__funcIZN4onnx11GetOpSchemaINS2_29GroupNormalization_Onnx_ver18EEENS2_8OpSchemaEvE3$_0NS_9allocatorIS6_EEFbRKNS2_24FunctionBodyBuildContextERKS5_RNS2_13FunctionProtoEEE7__cloneEv', symObjAddr: 0x28B44, symBinAddr: 0xDC9B58, symSize: 0x24 }
  - { offset: 0x36EA9A, size: 0x8, addend: 0x0, symName: '__ZNKSt3__110__function6__funcIZN4onnx11GetOpSchemaINS2_29GroupNormalization_Onnx_ver18EEENS2_8OpSchemaEvE3$_0NS_9allocatorIS6_EEFbRKNS2_24FunctionBodyBuildContextERKS5_RNS2_13FunctionProtoEEE7__cloneEPNS0_6__baseISG_EE', symObjAddr: 0x28B68, symBinAddr: 0xDC9B7C, symSize: 0x10 }
  - { offset: 0x36EACE, size: 0x8, addend: 0x0, symName: '__ZNKSt3__110__function6__funcIZN4onnx11GetOpSchemaINS2_29GroupNormalization_Onnx_ver18EEENS2_8OpSchemaEvE3$_0NS_9allocatorIS6_EEFbRKNS2_24FunctionBodyBuildContextERKS5_RNS2_13FunctionProtoEEE7__cloneEPNS0_6__baseISG_EE', symObjAddr: 0x28B68, symBinAddr: 0xDC9B7C, symSize: 0x10 }
  - { offset: 0x36EAEA, size: 0x8, addend: 0x0, symName: '__ZNKSt3__110__function6__funcIZN4onnx11GetOpSchemaINS2_29GroupNormalization_Onnx_ver18EEENS2_8OpSchemaEvE3$_0NS_9allocatorIS6_EEFbRKNS2_24FunctionBodyBuildContextERKS5_RNS2_13FunctionProtoEEE7__cloneEPNS0_6__baseISG_EE', symObjAddr: 0x28B68, symBinAddr: 0xDC9B7C, symSize: 0x10 }
  - { offset: 0x36EB06, size: 0x8, addend: 0x0, symName: '__ZNSt3__110__function6__funcIZN4onnx11GetOpSchemaINS2_29GroupNormalization_Onnx_ver18EEENS2_8OpSchemaEvE3$_0NS_9allocatorIS6_EEFbRKNS2_24FunctionBodyBuildContextERKS5_RNS2_13FunctionProtoEEE7destroyEv', symObjAddr: 0x28B78, symBinAddr: 0xDC9B8C, symSize: 0x4 }
  - { offset: 0x36EB55, size: 0x8, addend: 0x0, symName: '__ZNSt3__110__function6__funcIZN4onnx11GetOpSchemaINS2_29GroupNormalization_Onnx_ver18EEENS2_8OpSchemaEvE3$_0NS_9allocatorIS6_EEFbRKNS2_24FunctionBodyBuildContextERKS5_RNS2_13FunctionProtoEEE18destroy_deallocateEv', symObjAddr: 0x28B7C, symBinAddr: 0xDC9B90, symSize: 0x4 }
  - { offset: 0x36EB88, size: 0x8, addend: 0x0, symName: '__ZNSt3__110__function6__funcIZN4onnx11GetOpSchemaINS2_29GroupNormalization_Onnx_ver18EEENS2_8OpSchemaEvE3$_0NS_9allocatorIS6_EEFbRKNS2_24FunctionBodyBuildContextERKS5_RNS2_13FunctionProtoEEE18destroy_deallocateEv', symObjAddr: 0x28B7C, symBinAddr: 0xDC9B90, symSize: 0x4 }
  - { offset: 0x36EBAA, size: 0x8, addend: 0x0, symName: '__ZNSt3__110__function6__funcIZN4onnx11GetOpSchemaINS2_29GroupNormalization_Onnx_ver18EEENS2_8OpSchemaEvE3$_0NS_9allocatorIS6_EEFbRKNS2_24FunctionBodyBuildContextERKS5_RNS2_13FunctionProtoEEE18destroy_deallocateEv', symObjAddr: 0x28B7C, symBinAddr: 0xDC9B90, symSize: 0x4 }
  - { offset: 0x36EBD5, size: 0x8, addend: 0x0, symName: '__ZNSt3__110__function6__funcIZN4onnx11GetOpSchemaINS2_29GroupNormalization_Onnx_ver18EEENS2_8OpSchemaEvE3$_0NS_9allocatorIS6_EEFbRKNS2_24FunctionBodyBuildContextERKS5_RNS2_13FunctionProtoEEE18destroy_deallocateEv', symObjAddr: 0x28B7C, symBinAddr: 0xDC9B90, symSize: 0x4 }
  - { offset: 0x36EBFB, size: 0x8, addend: 0x0, symName: '__ZNSt3__110__function6__funcIZN4onnx11GetOpSchemaINS2_29GroupNormalization_Onnx_ver18EEENS2_8OpSchemaEvE3$_0NS_9allocatorIS6_EEFbRKNS2_24FunctionBodyBuildContextERKS5_RNS2_13FunctionProtoEEE18destroy_deallocateEv', symObjAddr: 0x28B7C, symBinAddr: 0xDC9B90, symSize: 0x4 }
  - { offset: 0x36EE01, size: 0x8, addend: 0x0, symName: '__ZNSt3__110__function6__funcIZN4onnx11GetOpSchemaINS2_29GroupNormalization_Onnx_ver18EEENS2_8OpSchemaEvE3$_0NS_9allocatorIS6_EEFbRKNS2_24FunctionBodyBuildContextERKS5_RNS2_13FunctionProtoEEEclESB_SD_SF_', symObjAddr: 0x28B80, symBinAddr: 0xDC9B94, symSize: 0x44C }
  - { offset: 0x370ED8, size: 0x8, addend: 0x0, symName: '__ZNKSt3__110__function6__funcIZN4onnx11GetOpSchemaINS2_29GroupNormalization_Onnx_ver18EEENS2_8OpSchemaEvE3$_0NS_9allocatorIS6_EEFbRKNS2_24FunctionBodyBuildContextERKS5_RNS2_13FunctionProtoEEE6targetERKSt9type_info', symObjAddr: 0x28FCC, symBinAddr: 0xDC9FE0, symSize: 0x64 }
  - { offset: 0x370F8B, size: 0x8, addend: 0x0, symName: '__ZNKSt3__110__function6__funcIZN4onnx11GetOpSchemaINS2_29GroupNormalization_Onnx_ver18EEENS2_8OpSchemaEvE3$_0NS_9allocatorIS6_EEFbRKNS2_24FunctionBodyBuildContextERKS5_RNS2_13FunctionProtoEEE11target_typeEv', symObjAddr: 0x29030, symBinAddr: 0xDCA044, symSize: 0xC }
  - { offset: 0x371E79, size: 0x8, addend: 0x0, symName: '__ZNSt3__110__function6__funcIZN4onnx11GetOpSchemaINS2_20Attention_Onnx_ver23EEENS2_8OpSchemaEvE3$_0NS_9allocatorIS6_EEFbRKNS2_24FunctionBodyBuildContextERKS5_RNS2_13FunctionProtoEEED1Ev', symObjAddr: 0x29D18, symBinAddr: 0xDCA050, symSize: 0x4 }
  - { offset: 0x371EA4, size: 0x8, addend: 0x0, symName: '__ZNSt3__110__function6__funcIZN4onnx11GetOpSchemaINS2_20Attention_Onnx_ver23EEENS2_8OpSchemaEvE3$_0NS_9allocatorIS6_EEFbRKNS2_24FunctionBodyBuildContextERKS5_RNS2_13FunctionProtoEEED0Ev', symObjAddr: 0x29D1C, symBinAddr: 0xDCA054, symSize: 0x4 }
  - { offset: 0x371F59, size: 0x8, addend: 0x0, symName: '__ZNKSt3__110__function6__funcIZN4onnx11GetOpSchemaINS2_20Attention_Onnx_ver23EEENS2_8OpSchemaEvE3$_0NS_9allocatorIS6_EEFbRKNS2_24FunctionBodyBuildContextERKS5_RNS2_13FunctionProtoEEE7__cloneEv', symObjAddr: 0x29D20, symBinAddr: 0xDCA058, symSize: 0x24 }
  - { offset: 0x37209C, size: 0x8, addend: 0x0, symName: '__ZNKSt3__110__function6__funcIZN4onnx11GetOpSchemaINS2_20Attention_Onnx_ver23EEENS2_8OpSchemaEvE3$_0NS_9allocatorIS6_EEFbRKNS2_24FunctionBodyBuildContextERKS5_RNS2_13FunctionProtoEEE7__cloneEPNS0_6__baseISG_EE', symObjAddr: 0x29D44, symBinAddr: 0xDCA07C, symSize: 0x10 }
  - { offset: 0x3720D0, size: 0x8, addend: 0x0, symName: '__ZNKSt3__110__function6__funcIZN4onnx11GetOpSchemaINS2_20Attention_Onnx_ver23EEENS2_8OpSchemaEvE3$_0NS_9allocatorIS6_EEFbRKNS2_24FunctionBodyBuildContextERKS5_RNS2_13FunctionProtoEEE7__cloneEPNS0_6__baseISG_EE', symObjAddr: 0x29D44, symBinAddr: 0xDCA07C, symSize: 0x10 }
  - { offset: 0x3720EC, size: 0x8, addend: 0x0, symName: '__ZNKSt3__110__function6__funcIZN4onnx11GetOpSchemaINS2_20Attention_Onnx_ver23EEENS2_8OpSchemaEvE3$_0NS_9allocatorIS6_EEFbRKNS2_24FunctionBodyBuildContextERKS5_RNS2_13FunctionProtoEEE7__cloneEPNS0_6__baseISG_EE', symObjAddr: 0x29D44, symBinAddr: 0xDCA07C, symSize: 0x10 }
  - { offset: 0x372108, size: 0x8, addend: 0x0, symName: '__ZNSt3__110__function6__funcIZN4onnx11GetOpSchemaINS2_20Attention_Onnx_ver23EEENS2_8OpSchemaEvE3$_0NS_9allocatorIS6_EEFbRKNS2_24FunctionBodyBuildContextERKS5_RNS2_13FunctionProtoEEE7destroyEv', symObjAddr: 0x29D54, symBinAddr: 0xDCA08C, symSize: 0x4 }
  - { offset: 0x372157, size: 0x8, addend: 0x0, symName: '__ZNSt3__110__function6__funcIZN4onnx11GetOpSchemaINS2_20Attention_Onnx_ver23EEENS2_8OpSchemaEvE3$_0NS_9allocatorIS6_EEFbRKNS2_24FunctionBodyBuildContextERKS5_RNS2_13FunctionProtoEEE18destroy_deallocateEv', symObjAddr: 0x29D58, symBinAddr: 0xDCA090, symSize: 0x4 }
  - { offset: 0x37218A, size: 0x8, addend: 0x0, symName: '__ZNSt3__110__function6__funcIZN4onnx11GetOpSchemaINS2_20Attention_Onnx_ver23EEENS2_8OpSchemaEvE3$_0NS_9allocatorIS6_EEFbRKNS2_24FunctionBodyBuildContextERKS5_RNS2_13FunctionProtoEEE18destroy_deallocateEv', symObjAddr: 0x29D58, symBinAddr: 0xDCA090, symSize: 0x4 }
  - { offset: 0x3721AC, size: 0x8, addend: 0x0, symName: '__ZNSt3__110__function6__funcIZN4onnx11GetOpSchemaINS2_20Attention_Onnx_ver23EEENS2_8OpSchemaEvE3$_0NS_9allocatorIS6_EEFbRKNS2_24FunctionBodyBuildContextERKS5_RNS2_13FunctionProtoEEE18destroy_deallocateEv', symObjAddr: 0x29D58, symBinAddr: 0xDCA090, symSize: 0x4 }
  - { offset: 0x3721D7, size: 0x8, addend: 0x0, symName: '__ZNSt3__110__function6__funcIZN4onnx11GetOpSchemaINS2_20Attention_Onnx_ver23EEENS2_8OpSchemaEvE3$_0NS_9allocatorIS6_EEFbRKNS2_24FunctionBodyBuildContextERKS5_RNS2_13FunctionProtoEEE18destroy_deallocateEv', symObjAddr: 0x29D58, symBinAddr: 0xDCA090, symSize: 0x4 }
  - { offset: 0x3721FD, size: 0x8, addend: 0x0, symName: '__ZNSt3__110__function6__funcIZN4onnx11GetOpSchemaINS2_20Attention_Onnx_ver23EEENS2_8OpSchemaEvE3$_0NS_9allocatorIS6_EEFbRKNS2_24FunctionBodyBuildContextERKS5_RNS2_13FunctionProtoEEE18destroy_deallocateEv', symObjAddr: 0x29D58, symBinAddr: 0xDCA090, symSize: 0x4 }
  - { offset: 0x3723CD, size: 0x8, addend: 0x0, symName: '__ZNSt3__110__function6__funcIZN4onnx11GetOpSchemaINS2_20Attention_Onnx_ver23EEENS2_8OpSchemaEvE3$_0NS_9allocatorIS6_EEFbRKNS2_24FunctionBodyBuildContextERKS5_RNS2_13FunctionProtoEEEclESB_SD_SF_', symObjAddr: 0x29D5C, symBinAddr: 0xDCA094, symSize: 0xC38 }
  - { offset: 0x375BAE, size: 0x8, addend: 0x0, symName: '__ZNKSt3__110__function6__funcIZN4onnx11GetOpSchemaINS2_20Attention_Onnx_ver23EEENS2_8OpSchemaEvE3$_0NS_9allocatorIS6_EEFbRKNS2_24FunctionBodyBuildContextERKS5_RNS2_13FunctionProtoEEE6targetERKSt9type_info', symObjAddr: 0x2A994, symBinAddr: 0xDCACCC, symSize: 0x64 }
  - { offset: 0x375C61, size: 0x8, addend: 0x0, symName: '__ZNKSt3__110__function6__funcIZN4onnx11GetOpSchemaINS2_20Attention_Onnx_ver23EEENS2_8OpSchemaEvE3$_0NS_9allocatorIS6_EEFbRKNS2_24FunctionBodyBuildContextERKS5_RNS2_13FunctionProtoEEE11target_typeEv', symObjAddr: 0x2A9F8, symBinAddr: 0xDCAD30, symSize: 0xC }
  - { offset: 0x375DC5, size: 0x8, addend: 0x0, symName: __GLOBAL__sub_I_old.cc, symObjAddr: 0x2CE68, symBinAddr: 0xDCAD3C, symSize: 0x6C }
  - { offset: 0x385671, size: 0x8, addend: 0x0, symName: __ZN4onnx10MakeStringIJA8_cjA10_cjA2_cEEENSt3__112basic_stringIcNS4_11char_traitsIcEENS4_9allocatorIcEEEEDpRKT_, symObjAddr: 0xD0B8, symBinAddr: 0xDDC7CC, symSize: 0x220 }
  - { offset: 0x385E0E, size: 0x8, addend: 0x0, symName: __ZN4onnx10MakeStringIJA25_cNSt3__112basic_stringIcNS2_11char_traitsIcEENS2_9allocatorIcEEEEA3_cA16_cS8_A2_cA27_cEEES8_DpRKT_, symObjAddr: 0x10920, symBinAddr: 0xDDF054, symSize: 0x288 }
  - { offset: 0x386880, size: 0x8, addend: 0x0, symName: __ZN4onnx10MakeStringIJA25_cNSt3__112basic_stringIcNS2_11char_traitsIcEENS2_9allocatorIcEEEEA3_cA16_cS8_A2_cA35_cEEES8_DpRKT_, symObjAddr: 0x10698, symBinAddr: 0xDDEDCC, symSize: 0x288 }
  - { offset: 0x3872F2, size: 0x8, addend: 0x0, symName: __ZN4onnx10MakeStringIJA25_cNSt3__112basic_stringIcNS2_11char_traitsIcEENS2_9allocatorIcEEEEA3_cA16_cS8_A2_cA30_cEEES8_DpRKT_, symObjAddr: 0x10BA8, symBinAddr: 0xDDF2DC, symSize: 0x288 }
  - { offset: 0x387DC5, size: 0x8, addend: 0x0, symName: __ZN4onnx10MakeStringIJA25_cNSt3__112basic_stringIcNS2_11char_traitsIcEENS2_9allocatorIcEEEEA3_cA16_cS8_A2_cA42_cEEES8_DpRKT_, symObjAddr: 0x10E30, symBinAddr: 0xDDF564, symSize: 0x288 }
  - { offset: 0x388837, size: 0x8, addend: 0x0, symName: __ZN4onnx10MakeStringIJA25_cNSt3__112basic_stringIcNS2_11char_traitsIcEENS2_9allocatorIcEEEEA3_cA16_cS8_A2_cA47_cEEES8_DpRKT_, symObjAddr: 0x110B8, symBinAddr: 0xDDF7EC, symSize: 0x288 }
  - { offset: 0x3892A9, size: 0x8, addend: 0x0, symName: __ZN4onnx10MakeStringIJA25_cNSt3__112basic_stringIcNS2_11char_traitsIcEENS2_9allocatorIcEEEEA3_cA16_cS8_A2_cA17_cEEES8_DpRKT_, symObjAddr: 0x11340, symBinAddr: 0xDDFA74, symSize: 0x288 }
  - { offset: 0x389D1B, size: 0x8, addend: 0x0, symName: __ZN4onnx10MakeStringIJA25_cNSt3__112basic_stringIcNS2_11char_traitsIcEENS2_9allocatorIcEEEEA3_cA16_cS8_A2_cA52_cEEES8_DpRKT_, symObjAddr: 0x115C8, symBinAddr: 0xDDFCFC, symSize: 0x288 }
  - { offset: 0x38A78D, size: 0x8, addend: 0x0, symName: __ZN4onnx10MakeStringIJA25_cNSt3__112basic_stringIcNS2_11char_traitsIcEENS2_9allocatorIcEEEEA3_cA16_cS8_A2_cA53_cEEES8_DpRKT_, symObjAddr: 0x11850, symBinAddr: 0xDDFF84, symSize: 0x288 }
  - { offset: 0x38B1FF, size: 0x8, addend: 0x0, symName: __ZN4onnx10MakeStringIJA25_cNSt3__112basic_stringIcNS2_11char_traitsIcEENS2_9allocatorIcEEEEA3_cA16_cS8_A2_cA62_cEEES8_DpRKT_, symObjAddr: 0x11AD8, symBinAddr: 0xDE020C, symSize: 0x288 }
  - { offset: 0x38BC71, size: 0x8, addend: 0x0, symName: __ZN4onnx10MakeStringIJA25_cNSt3__112basic_stringIcNS2_11char_traitsIcEENS2_9allocatorIcEEEEA3_cA16_cS8_A2_cA45_cixEEES8_DpRKT_, symObjAddr: 0x11D60, symBinAddr: 0xDE0494, symSize: 0x1FC }
  - { offset: 0x38C1F3, size: 0x8, addend: 0x0, symName: __ZN4onnx10MakeStringIJA25_cNSt3__112basic_stringIcNS2_11char_traitsIcEENS2_9allocatorIcEEEEA3_cA16_cS8_A2_cA19_ciEEES8_DpRKT_, symObjAddr: 0x12084, symBinAddr: 0xDE07B8, symSize: 0x1F8 }
  - { offset: 0x38C777, size: 0x8, addend: 0x0, symName: __ZN4onnx10MakeStringIJA25_cNSt3__112basic_stringIcNS2_11char_traitsIcEENS2_9allocatorIcEEEEA3_cA16_cS8_A2_cA15_cEEES8_DpRKT_, symObjAddr: 0x12398, symBinAddr: 0xDE0ACC, symSize: 0x288 }
  - { offset: 0x38D1E9, size: 0x8, addend: 0x0, symName: __ZN4onnx10MakeStringIJA25_cNSt3__112basic_stringIcNS2_11char_traitsIcEENS2_9allocatorIcEEEEA3_cA16_cS8_A2_cA32_cS8_A28_cS8_EEES8_DpRKT_, symObjAddr: 0x12620, symBinAddr: 0xDE0D54, symSize: 0x234 }
  - { offset: 0x38D96D, size: 0x8, addend: 0x0, symName: __ZN4onnx10MakeStringIJA25_cNSt3__112basic_stringIcNS2_11char_traitsIcEENS2_9allocatorIcEEEEA3_cA16_cS8_A2_cA57_cEEES8_DpRKT_, symObjAddr: 0x1300C, symBinAddr: 0xDE16D8, symSize: 0x288 }
  - { offset: 0x38E3DF, size: 0x8, addend: 0x0, symName: __ZN4onnx10MakeStringIJA25_cNSt3__112basic_stringIcNS2_11char_traitsIcEENS2_9allocatorIcEEEEA3_cA16_cS8_A2_cA20_ccA12_cEEES8_DpRKT_, symObjAddr: 0xC660, symBinAddr: 0xDDC2F0, symSize: 0x218 }
  - { offset: 0x38EB3E, size: 0x8, addend: 0x0, symName: __ZN4onnx18MakeStringInternalINSt3__112basic_stringIcNS1_11char_traitsIcEENS1_9allocatorIcEEEEJA3_cA16_cS7_A2_cA20_ccA12_cEEEvRNS1_18basic_stringstreamIcS4_S6_EERKT_DpRKT0_, symObjAddr: 0xCBA0, symBinAddr: 0xDDC678, symSize: 0x154 }
  - { offset: 0x38F75B, size: 0x8, addend: 0x0, symName: __ZN4onnx10MakeStringIJA25_cNSt3__112basic_stringIcNS2_11char_traitsIcEENS2_9allocatorIcEEEEA3_cA16_cS8_A2_cA39_cEEES8_DpRKT_, symObjAddr: 0xD4E8, symBinAddr: 0xDDCBFC, symSize: 0x288 }
  - { offset: 0x390475, size: 0x8, addend: 0x0, symName: __ZN4onnx10MakeStringIJA25_cNSt3__112basic_stringIcNS2_11char_traitsIcEENS2_9allocatorIcEEEEA3_cA16_cS8_A2_cA38_cEEES8_DpRKT_, symObjAddr: 0xDFB4, symBinAddr: 0xDDD27C, symSize: 0x288 }
  - { offset: 0x39118F, size: 0x8, addend: 0x0, symName: __ZN4onnx10MakeStringIJA25_cNSt3__112basic_stringIcNS2_11char_traitsIcEENS2_9allocatorIcEEEEA3_cA16_cS8_A2_cS1_EEES8_DpRKT_, symObjAddr: 0xE44C, symBinAddr: 0xDDD714, symSize: 0x288 }
  - { offset: 0x393665, size: 0x8, addend: 0x0, symName: __ZN4onnx18MakeStringInternalIA25_cJNSt3__112basic_stringIcNS2_11char_traitsIcEENS2_9allocatorIcEEEEA3_cA16_cS8_A2_cA45_cixEEEvRNS2_18basic_stringstreamIcS5_S7_EERKT_DpRKT0_, symObjAddr: 0x11F5C, symBinAddr: 0xDE0690, symSize: 0x128 }
  - { offset: 0x39411E, size: 0x8, addend: 0x0, symName: __ZN4onnx18MakeStringInternalIA25_cJNSt3__112basic_stringIcNS2_11char_traitsIcEENS2_9allocatorIcEEEEA3_cA16_cS8_A2_cA19_ciEEEvRNS2_18basic_stringstreamIcS5_S7_EERKT_DpRKT0_, symObjAddr: 0x1227C, symBinAddr: 0xDE09B0, symSize: 0x11C }
  - { offset: 0x394E6D, size: 0x8, addend: 0x0, symName: __ZN4onnx18MakeStringInternalIA3_cJA16_cNSt3__112basic_stringIcNS3_11char_traitsIcEENS3_9allocatorIcEEEEA2_cA32_cS9_A28_cS9_EEEvRNS3_18basic_stringstreamIcS6_S8_EERKT_DpRKT0_, symObjAddr: 0x12854, symBinAddr: 0xDE0F88, symSize: 0x130 }
  - { offset: 0x3AC2EF, size: 0x8, addend: 0x0, symName: __ZN4onnx10ParserBase5ParseERNS0_7LiteralE, symObjAddr: 0x0, symBinAddr: 0xDD2F5C, symSize: 0x87C }
  - { offset: 0x3AD92C, size: 0x8, addend: 0x0, symName: __ZN4onnx10ParserBase10ParseErrorIJA27_cEEENS_6Common6StatusEDpRKT_, symObjAddr: 0x950, symBinAddr: 0xDD37D8, symSize: 0x210 }
  - { offset: 0x3AE078, size: 0x8, addend: 0x0, symName: __ZN4onnx10ParserBase22NextIsValidFloatStringEv, symObjAddr: 0xB9C, symBinAddr: 0xDD3A24, symSize: 0x34C }
  - { offset: 0x3AEA22, size: 0x8, addend: 0x0, symName: __ZN4onnx10ParserBase10ParseErrorIJA35_cEEENS_6Common6StatusEDpRKT_, symObjAddr: 0xF3C, symBinAddr: 0xDD3D70, symSize: 0x210 }
  - { offset: 0x3AF16E, size: 0x8, addend: 0x0, symName: __ZN4onnx6Common6StatusaSERKS1_, symObjAddr: 0xC134, symBinAddr: 0xDDBFE0, symSize: 0xE8 }
  - { offset: 0x3AF31C, size: 0x8, addend: 0x0, symName: __ZN4onnx10ParserBase10ParseErrorIJA30_cEEENS_6Common6StatusEDpRKT_, symObjAddr: 0x114C, symBinAddr: 0xDD3F80, symSize: 0x210 }
  - { offset: 0x3AFCDB, size: 0x8, addend: 0x0, symName: __ZN4onnx10ParserBase15GetErrorContextEv, symObjAddr: 0xC878, symBinAddr: 0xDDC508, symSize: 0x170 }
  - { offset: 0x3AFFA2, size: 0x8, addend: 0x0, symName: __ZN4onnx6Common6StatusC1ERKS1_, symObjAddr: 0xB60, symBinAddr: 0xDD39E8, symSize: 0x3C }
  - { offset: 0x3B0647, size: 0x8, addend: 0x0, symName: __ZN4onnx10OnnxParser5ParseERN6google8protobuf16RepeatedPtrFieldINSt3__112basic_stringIcNS4_11char_traitsIcEENS4_9allocatorIcEEEEEE, symObjAddr: 0x135C, symBinAddr: 0xDD4190, symSize: 0x430 }
  - { offset: 0x3B171E, size: 0x8, addend: 0x0, symName: __ZN4onnx10ParserBase31ParseOptionalQuotableIdentifierERNSt3__112basic_stringIcNS1_11char_traitsIcEENS1_9allocatorIcEEEERb, symObjAddr: 0x178C, symBinAddr: 0xDD45C0, symSize: 0x27C }
  - { offset: 0x3B1D4C, size: 0x8, addend: 0x0, symName: __ZN4onnx10ParserBase10ParseErrorIJA20_ccA12_cEEENS_6Common6StatusEDpRKT_, symObjAddr: 0xC438, symBinAddr: 0xDDC0C8, symSize: 0x228 }
  - { offset: 0x3B1F3A, size: 0x8, addend: 0x0, symName: __ZN4onnx10ParserBase5ParseERNSt3__112basic_stringIcNS1_11char_traitsIcEENS1_9allocatorIcEEEE, symObjAddr: 0x6C34, symBinAddr: 0xDD8A3C, symSize: 0x184 }
  - { offset: 0x3B26D1, size: 0x8, addend: 0x0, symName: __ZN4onnx10ParserBase23ParseOptionalIdentifierEv, symObjAddr: 0x3180, symBinAddr: 0xDD573C, symSize: 0x1F4 }
  - { offset: 0x3B2A29, size: 0x8, addend: 0x0, symName: __ZN4onnx10ParserBase5ParseERx, symObjAddr: 0x3374, symBinAddr: 0xDD5930, symSize: 0x1B4 }
  - { offset: 0x3B2A3B, size: 0x8, addend: 0x0, symName: __ZN4onnx10ParserBase7MatchesEcb, symObjAddr: 0x1A08, symBinAddr: 0xDD483C, symSize: 0xF0 }
  - { offset: 0x3B2AD7, size: 0x8, addend: 0x0, symName: __ZN4onnx10ParserBase5MatchEcb, symObjAddr: 0x1CEC, symBinAddr: 0xDD492C, symSize: 0x16C }
  - { offset: 0x3B2CD7, size: 0x8, addend: 0x0, symName: __ZN4onnx10ParserBase10ParseErrorIJA20_ccA12_cEEENS_6Common6StatusEDpRKT_, symObjAddr: 0xC438, symBinAddr: 0xDDC0C8, symSize: 0x228 }
  - { offset: 0x3B354A, size: 0x8, addend: 0x0, symName: __ZN4onnx10ParserBase23ParseQuotableIdentifierERNSt3__112basic_stringIcNS1_11char_traitsIcEENS1_9allocatorIcEEEE, symObjAddr: 0x22AC, symBinAddr: 0xDD4A98, symSize: 0xFC }
  - { offset: 0x3B3628, size: 0x8, addend: 0x0, symName: __ZN4onnx10OnnxParser5ParseERNS_14AttributeProtoERNSt3__112basic_stringIcNS3_11char_traitsIcEENS3_9allocatorIcEEEE, symObjAddr: 0x23A8, symBinAddr: 0xDD4B94, symSize: 0x774 }
  - { offset: 0x3B4BAB, size: 0x8, addend: 0x0, symName: __ZN4onnx10ParserBase15ParseIdentifierERNSt3__112basic_stringIcNS1_11char_traitsIcEENS1_9allocatorIcEEEE, symObjAddr: 0x3CB4, symBinAddr: 0xDD6270, symSize: 0xE4 }
  - { offset: 0x3B51E3, size: 0x8, addend: 0x0, symName: __ZN4onnx12StringIntMapINS_20AttributeTypeNameMapEE6LookupERKNSt3__112basic_stringIcNS3_11char_traitsIcEENS3_9allocatorIcEEEE, symObjAddr: 0x936C, symBinAddr: 0xDDAD08, symSize: 0x120 }
  - { offset: 0x3B52D3, size: 0x8, addend: 0x0, symName: __ZN4onnx10OnnxParser25ParseSingleAttributeValueERNS_14AttributeProtoENS_28AttributeProto_AttributeTypeE, symObjAddr: 0x8140, symBinAddr: 0xDD9ADC, symSize: 0x9B0 }
  - { offset: 0x3B78E9, size: 0x8, addend: 0x0, symName: __ZN4onnx10ParserBase10ParseErrorIJA57_cEEENS_6Common6StatusEDpRKT_, symObjAddr: 0x958C, symBinAddr: 0xDDAE28, symSize: 0x210 }
  - { offset: 0x3B81CE, size: 0x8, addend: 0x0, symName: __ZN4onnx10ParserBase10ParseErrorIJA53_cEEENS_6Common6StatusEDpRKT_, symObjAddr: 0x7288, symBinAddr: 0xDD8DD0, symSize: 0x210 }
  - { offset: 0x3B8B70, size: 0x8, addend: 0x0, symName: __ZN4onnx10OnnxParser5ParseERNS_16TensorShapeProtoE, symObjAddr: 0x2D4C, symBinAddr: 0xDD5308, symSize: 0x434 }
  - { offset: 0x3B96E7, size: 0x8, addend: 0x0, symName: __ZN4onnx10ParserBase5ParseERx, symObjAddr: 0x3374, symBinAddr: 0xDD5930, symSize: 0x1B4 }
  - { offset: 0x3BA134, size: 0x8, addend: 0x0, symName: __ZN4onnx10ParserBase10ParseErrorIJA39_cEEENS_6Common6StatusEDpRKT_, symObjAddr: 0xD2D8, symBinAddr: 0xDDC9EC, symSize: 0x210 }
  - { offset: 0x3BA982, size: 0x8, addend: 0x0, symName: __ZN4onnx10KeyWordMapC2Ev, symObjAddr: 0xE760, symBinAddr: 0xDDD99C, symSize: 0x564 }
  - { offset: 0x3BABC4, size: 0x8, addend: 0x0, symName: __ZN4onnx10OnnxParser5ParseERNS_9TypeProtoE, symObjAddr: 0x3528, symBinAddr: 0xDD5AE4, symSize: 0x78C }
  - { offset: 0x3BC231, size: 0x8, addend: 0x0, symName: __ZN4onnx12StringIntMapINS_20PrimitiveTypeNameMapEE6LookupERKNSt3__112basic_stringIcNS3_11char_traitsIcEENS3_9allocatorIcEEEE, symObjAddr: 0x3D98, symBinAddr: 0xDD6354, symSize: 0x120 }
  - { offset: 0x3BC321, size: 0x8, addend: 0x0, symName: __ZN4onnx10KeyWordMap6LookupERKNSt3__112basic_stringIcNS1_11char_traitsIcEENS1_9allocatorIcEEEE, symObjAddr: 0x3EB8, symBinAddr: 0xDD6474, symSize: 0x120 }
  - { offset: 0x3BC410, size: 0x8, addend: 0x0, symName: __ZN4onnx9TypeProto16mutable_map_typeEv, symObjAddr: 0x40B4, symBinAddr: 0xDD6670, symSize: 0x74 }
  - { offset: 0x3BC765, size: 0x8, addend: 0x0, symName: __ZN4onnx10ParserBase10ParseErrorIJA17_cEEENS_6Common6StatusEDpRKT_, symObjAddr: 0x4768, symBinAddr: 0xDD6B78, symSize: 0x210 }
  - { offset: 0x3BCEB1, size: 0x8, addend: 0x0, symName: __ZN4onnx9TypeProto21mutable_sequence_typeEv, symObjAddr: 0x3FD8, symBinAddr: 0xDD6594, symSize: 0x74 }
  - { offset: 0x3BCFF3, size: 0x8, addend: 0x0, symName: __ZN4onnx18TypeProto_Sequence17mutable_elem_typeEv, symObjAddr: 0x404C, symBinAddr: 0xDD6608, symSize: 0x68 }
  - { offset: 0x3BD0ED, size: 0x8, addend: 0x0, symName: __ZN4onnx9TypeProto21mutable_optional_typeEv, symObjAddr: 0x43A0, symBinAddr: 0xDD68F4, symSize: 0x74 }
  - { offset: 0x3BD2E4, size: 0x8, addend: 0x0, symName: __ZN4onnx10ParserBase10ParseErrorIJA47_cEEENS_6Common6StatusEDpRKT_, symObjAddr: 0x4558, symBinAddr: 0xDD6968, symSize: 0x210 }
  - { offset: 0x3BDA49, size: 0x8, addend: 0x0, symName: __ZN4onnx10ParserBase10ParseErrorIJA42_cEEENS_6Common6StatusEDpRKT_, symObjAddr: 0x4128, symBinAddr: 0xDD66E4, symSize: 0x210 }
  - { offset: 0x3BE3C1, size: 0x8, addend: 0x0, symName: __ZN4onnx20PrimitiveTypeNameMapC2Ev, symObjAddr: 0xF3E4, symBinAddr: 0xDDE3A4, symSize: 0xA28 }
  - { offset: 0x3C22A2, size: 0x8, addend: 0x0, symName: __ZNKSt3__112__hash_tableINS_17__hash_value_typeINS_12basic_stringIcNS_11char_traitsIcEENS_9allocatorIcEEEEN4onnx10KeyWordMap7KeyWordEEENS_22__unordered_map_hasherIS7_SB_NS_4hashIS7_EENS_8equal_toIS7_EELb1EEENS_21__unordered_map_equalIS7_SB_SG_SE_Lb1EEENS5_ISB_EEE4findIS7_EENS_21__hash_const_iteratorIPNS_11__hash_nodeISB_PvEEEERKT_, symObjAddr: 0xD770, symBinAddr: 0xDDCE84, symSize: 0x1E8 }
  - { offset: 0x3C25AA, size: 0x8, addend: 0x0, symName: __ZN4onnx10KeyWordMapC2Ev, symObjAddr: 0xE760, symBinAddr: 0xDDD99C, symSize: 0x564 }
  - { offset: 0x3C49D1, size: 0x8, addend: 0x0, symName: __ZN4onnx10OnnxParser5ParseERNS_14ValueInfoProtoE, symObjAddr: 0x4978, symBinAddr: 0xDD6D88, symSize: 0x21C }
  - { offset: 0x3C5532, size: 0x8, addend: 0x0, symName: __ZN4onnx10OnnxParser5ParseEcRN6google8protobuf16RepeatedPtrFieldINS_14ValueInfoProtoEEEc, symObjAddr: 0x4C64, symBinAddr: 0xDD6FA4, symSize: 0x2D4 }
  - { offset: 0x3C5FC9, size: 0x8, addend: 0x0, symName: __ZN4onnx10OnnxParser21ParseGraphInputOutputERN6google8protobuf16RepeatedPtrFieldINS_14ValueInfoProtoEEE, symObjAddr: 0x4F38, symBinAddr: 0xDD7278, symSize: 0xCC }
  - { offset: 0x3C652C, size: 0x8, addend: 0x0, symName: __ZN4onnx10OnnxParser10ParseInputERN6google8protobuf16RepeatedPtrFieldINS_14ValueInfoProtoEEERNS3_INS_11TensorProtoEEE, symObjAddr: 0x553C, symBinAddr: 0xDD7344, symSize: 0x570 }
  - { offset: 0x3C7344, size: 0x8, addend: 0x0, symName: __ZN4onnx10OnnxParser5ParseERNS_11TensorProtoERKNS_9TypeProtoE, symObjAddr: 0x5AAC, symBinAddr: 0xDD78B4, symSize: 0x924 }
  - { offset: 0x3C94EE, size: 0x8, addend: 0x0, symName: __ZN4onnx10ParserBase10ParseErrorIJA52_cEEENS_6Common6StatusEDpRKT_, symObjAddr: 0x7078, symBinAddr: 0xDD8BC0, symSize: 0x210 }
  - { offset: 0x3C9C3A, size: 0x8, addend: 0x0, symName: __ZN4onnx10OnnxParser5ParseERN6google8protobuf16RepeatedPtrFieldINS_22StringStringEntryProtoEEE, symObjAddr: 0x6944, symBinAddr: 0xDD874C, symSize: 0x2F0 }
  - { offset: 0x3CA9BF, size: 0x8, addend: 0x0, symName: __ZN4onnx10ParserBase10ParseErrorIJA62_cEEENS_6Common6StatusEDpRKT_, symObjAddr: 0x7498, symBinAddr: 0xDD8FE0, symSize: 0x210 }
  - { offset: 0x3CB28B, size: 0x8, addend: 0x0, symName: __ZN4onnx10ParserBase5ParseERy, symObjAddr: 0x7950, symBinAddr: 0xDD9498, symSize: 0x1B4 }
  - { offset: 0x3CBBD9, size: 0x8, addend: 0x0, symName: __ZN4onnx11TensorProto14add_int64_dataEx, symObjAddr: 0x78D0, symBinAddr: 0xDD9418, symSize: 0x80 }
  - { offset: 0x3CBCDB, size: 0x8, addend: 0x0, symName: __ZN4onnx10ParserBase5ParseERf, symObjAddr: 0x7B04, symBinAddr: 0xDD964C, symSize: 0x13C }
  - { offset: 0x3CC39B, size: 0x8, addend: 0x0, symName: __ZN4onnx10ParserBase5ParseERd, symObjAddr: 0x7C40, symBinAddr: 0xDD9788, symSize: 0x13C }
  - { offset: 0x3CCA74, size: 0x8, addend: 0x0, symName: __ZN4onnx10ParserBase10ParseErrorIJA45_cixEEENS_6Common6StatusEDpRKT_, symObjAddr: 0x76A8, symBinAddr: 0xDD91F0, symSize: 0x228 }
  - { offset: 0x3CD207, size: 0x8, addend: 0x0, symName: __ZN4onnx10ParserBase10ParseErrorIJA19_ciEEENS_6Common6StatusEDpRKT_, symObjAddr: 0x7E7C, symBinAddr: 0xDD98C4, symSize: 0x218 }
  - { offset: 0x3CD96D, size: 0x8, addend: 0x0, symName: __ZN4onnx10OnnxParser14ParseValueInfoERN6google8protobuf16RepeatedPtrFieldINS_14ValueInfoProtoEEERNS3_INS_11TensorProtoEEE, symObjAddr: 0x63D0, symBinAddr: 0xDD81D8, symSize: 0x574 }
  - { offset: 0x3CE87F, size: 0x8, addend: 0x0, symName: __ZN4onnx10ParserBase10ParseErrorIJA38_cEEENS_6Common6StatusEDpRKT_, symObjAddr: 0xDDA4, symBinAddr: 0xDDD06C, symSize: 0x210 }
  - { offset: 0x3CF05E, size: 0x8, addend: 0x0, symName: __ZN4onnx10ParserBase10ParseErrorIJA25_cEEENS_6Common6StatusEDpRKT_, symObjAddr: 0xE23C, symBinAddr: 0xDDD504, symSize: 0x210 }
  - { offset: 0x3CFA41, size: 0x8, addend: 0x0, symName: __ZN4onnx10OnnxParser5ParseERNS_10GraphProtoE, symObjAddr: 0x8C88, symBinAddr: 0xDDA624, symSize: 0x158 }
  - { offset: 0x3D027C, size: 0x8, addend: 0x0, symName: __ZN4onnx10ParserBase31ParseOptionalQuotableIdentifierERNSt3__112basic_stringIcNS1_11char_traitsIcEENS1_9allocatorIcEEEE, symObjAddr: 0x8AF0, symBinAddr: 0xDDA48C, symSize: 0x198 }
  - { offset: 0x3D0599, size: 0x8, addend: 0x0, symName: __ZN4onnx10ParserBase10ParseErrorIJA15_cEEENS_6Common6StatusEDpRKT_, symObjAddr: 0x8DE0, symBinAddr: 0xDDA77C, symSize: 0x210 }
  - { offset: 0x3D0D09, size: 0x8, addend: 0x0, symName: __ZN4onnx10ParserBase10ParseErrorIJA32_cNSt3__112basic_stringIcNS3_11char_traitsIcEENS3_9allocatorIcEEEEA28_cS9_EEENS_6Common6StatusEDpRKT_, symObjAddr: 0x8FF0, symBinAddr: 0xDDA98C, symSize: 0x22C }
  - { offset: 0x3D14A0, size: 0x8, addend: 0x0, symName: __ZN4onnx10OnnxParser5ParseENSt3__112basic_stringIcNS1_11char_traitsIcEENS1_9allocatorIcEEEERNS_10GraphProtoE, symObjAddr: 0xA44C, symBinAddr: 0xDDBCE8, symSize: 0x290 }
  - { offset: 0x3D235C, size: 0x8, addend: 0x0, symName: __ZN4onnx10OnnxParser5ParseERNS_14AttributeProtoE, symObjAddr: 0x921C, symBinAddr: 0xDDABB8, symSize: 0x150 }
  - { offset: 0x3D2AC1, size: 0x8, addend: 0x0, symName: __ZN4onnx20AttributeTypeNameMapC2Ev, symObjAddr: 0x129EC, symBinAddr: 0xDE1120, symSize: 0x5B8 }
  - { offset: 0x3D4DA7, size: 0x8, addend: 0x0, symName: __ZN4onnx10OnnxParser5ParseERN6google8protobuf16RepeatedPtrFieldINS_14AttributeProtoEEE, symObjAddr: 0x979C, symBinAddr: 0xDDB038, symSize: 0x2B0 }
  - { offset: 0x3D57C2, size: 0x8, addend: 0x0, symName: __ZN4onnx10OnnxParser5ParseERNS_9NodeProtoE, symObjAddr: 0x9A4C, symBinAddr: 0xDDB2E8, symSize: 0x7D8 }
  - { offset: 0x3D7D14, size: 0x8, addend: 0x0, symName: __ZN4onnx10OnnxParser5ParseERN6google8protobuf16RepeatedPtrFieldINS_9NodeProtoEEE, symObjAddr: 0xA224, symBinAddr: 0xDDBAC0, symSize: 0x228 }
  - { offset: 0x3D887D, size: 0x8, addend: 0x0, symName: __ZN4onnx10KeyWordMapD1Ev, symObjAddr: 0xBF48, symBinAddr: 0xDDBF78, symSize: 0x68 }
  - { offset: 0x3DA3DF, size: 0x8, addend: 0x0, symName: __ZNSt3__112__hash_tableINS_17__hash_value_typeINS_12basic_stringIcNS_11char_traitsIcEENS_9allocatorIcEEEEN4onnx10KeyWordMap7KeyWordEEENS_22__unordered_map_hasherIS7_SB_NS_4hashIS7_EENS_8equal_toIS7_EELb1EEENS_21__unordered_map_equalIS7_SB_SG_SE_Lb1EEENS5_ISB_EEE25__emplace_unique_key_argsIS7_JRKNS_21piecewise_construct_tENS_5tupleIJOS7_EEENSQ_IJEEEEEENS_4pairINS_15__hash_iteratorIPNS_11__hash_nodeISB_PvEEEEbEERKT_DpOT0_, symObjAddr: 0xED2C, symBinAddr: 0xDDDF00, symSize: 0x43C }
  - { offset: 0x3DBB70, size: 0x8, addend: 0x0, symName: __ZN4onnx20PrimitiveTypeNameMapD1Ev, symObjAddr: 0xF37C, symBinAddr: 0xDDE33C, symSize: 0x68 }
  - { offset: 0x3DD416, size: 0x8, addend: 0x0, symName: __ZN4onnx20AttributeTypeNameMapD1Ev, symObjAddr: 0x12984, symBinAddr: 0xDE10B8, symSize: 0x68 }
  - { offset: 0x3EACA4, size: 0x8, addend: 0x0, symName: __ZN4onnx11GetOpSchemaINS_25QuantizeLinear_Onnx_ver25EEENS_8OpSchemaEv, symObjAddr: 0x0, symBinAddr: 0xDE1960, symSize: 0x4C8 }
  - { offset: 0x3EB762, size: 0x8, addend: 0x0, symName: __ZN4onnx11GetOpSchemaINS_27DequantizeLinear_Onnx_ver25EEENS_8OpSchemaEv, symObjAddr: 0x650, symBinAddr: 0xDE1E28, symSize: 0x458 }
  - { offset: 0x3EC143, size: 0x8, addend: 0x0, symName: __ZN4onnx11GetOpSchemaINS_32DynamicQuantizeLinear_Onnx_ver11EEENS_8OpSchemaEv, symObjAddr: 0xAA8, symBinAddr: 0xDE2280, symSize: 0x348 }
  - { offset: 0x3EE004, size: 0x8, addend: 0x0, symName: __ZN4onnx10MakeStringIJA22_cA14_cNSt3__112basic_stringIcNS3_11char_traitsIcEENS3_9allocatorIcEEEEA35_cS9_A2_cEEES9_DpRKT_, symObjAddr: 0x502C, symBinAddr: 0xDE29E4, symSize: 0x26C }
  - { offset: 0x425822, size: 0x8, addend: 0x0, symName: '__ZNSt3__110__function6__funcIZN4onnx11GetOpSchemaINS2_25QuantizeLinear_Onnx_ver25EEENS2_8OpSchemaEvE3$_0NS_9allocatorIS6_EEFvRNS2_16InferenceContextEEED1Ev', symObjAddr: 0x4C10, symBinAddr: 0xDE25C8, symSize: 0x4 }
  - { offset: 0x42584D, size: 0x8, addend: 0x0, symName: '__ZNSt3__110__function6__funcIZN4onnx11GetOpSchemaINS2_25QuantizeLinear_Onnx_ver25EEENS2_8OpSchemaEvE3$_0NS_9allocatorIS6_EEFvRNS2_16InferenceContextEEED0Ev', symObjAddr: 0x4C14, symBinAddr: 0xDE25CC, symSize: 0x4 }
  - { offset: 0x425902, size: 0x8, addend: 0x0, symName: '__ZNKSt3__110__function6__funcIZN4onnx11GetOpSchemaINS2_25QuantizeLinear_Onnx_ver25EEENS2_8OpSchemaEvE3$_0NS_9allocatorIS6_EEFvRNS2_16InferenceContextEEE7__cloneEv', symObjAddr: 0x4C18, symBinAddr: 0xDE25D0, symSize: 0x24 }
  - { offset: 0x425A45, size: 0x8, addend: 0x0, symName: '__ZNKSt3__110__function6__funcIZN4onnx11GetOpSchemaINS2_25QuantizeLinear_Onnx_ver25EEENS2_8OpSchemaEvE3$_0NS_9allocatorIS6_EEFvRNS2_16InferenceContextEEE7__cloneEPNS0_6__baseISB_EE', symObjAddr: 0x4C3C, symBinAddr: 0xDE25F4, symSize: 0x10 }
  - { offset: 0x425A79, size: 0x8, addend: 0x0, symName: '__ZNKSt3__110__function6__funcIZN4onnx11GetOpSchemaINS2_25QuantizeLinear_Onnx_ver25EEENS2_8OpSchemaEvE3$_0NS_9allocatorIS6_EEFvRNS2_16InferenceContextEEE7__cloneEPNS0_6__baseISB_EE', symObjAddr: 0x4C3C, symBinAddr: 0xDE25F4, symSize: 0x10 }
  - { offset: 0x425A95, size: 0x8, addend: 0x0, symName: '__ZNKSt3__110__function6__funcIZN4onnx11GetOpSchemaINS2_25QuantizeLinear_Onnx_ver25EEENS2_8OpSchemaEvE3$_0NS_9allocatorIS6_EEFvRNS2_16InferenceContextEEE7__cloneEPNS0_6__baseISB_EE', symObjAddr: 0x4C3C, symBinAddr: 0xDE25F4, symSize: 0x10 }
  - { offset: 0x425AB1, size: 0x8, addend: 0x0, symName: '__ZNSt3__110__function6__funcIZN4onnx11GetOpSchemaINS2_25QuantizeLinear_Onnx_ver25EEENS2_8OpSchemaEvE3$_0NS_9allocatorIS6_EEFvRNS2_16InferenceContextEEE7destroyEv', symObjAddr: 0x4C4C, symBinAddr: 0xDE2604, symSize: 0x4 }
  - { offset: 0x425B00, size: 0x8, addend: 0x0, symName: '__ZNSt3__110__function6__funcIZN4onnx11GetOpSchemaINS2_25QuantizeLinear_Onnx_ver25EEENS2_8OpSchemaEvE3$_0NS_9allocatorIS6_EEFvRNS2_16InferenceContextEEE18destroy_deallocateEv', symObjAddr: 0x4C50, symBinAddr: 0xDE2608, symSize: 0x4 }
  - { offset: 0x425B33, size: 0x8, addend: 0x0, symName: '__ZNSt3__110__function6__funcIZN4onnx11GetOpSchemaINS2_25QuantizeLinear_Onnx_ver25EEENS2_8OpSchemaEvE3$_0NS_9allocatorIS6_EEFvRNS2_16InferenceContextEEE18destroy_deallocateEv', symObjAddr: 0x4C50, symBinAddr: 0xDE2608, symSize: 0x4 }
  - { offset: 0x425B55, size: 0x8, addend: 0x0, symName: '__ZNSt3__110__function6__funcIZN4onnx11GetOpSchemaINS2_25QuantizeLinear_Onnx_ver25EEENS2_8OpSchemaEvE3$_0NS_9allocatorIS6_EEFvRNS2_16InferenceContextEEE18destroy_deallocateEv', symObjAddr: 0x4C50, symBinAddr: 0xDE2608, symSize: 0x4 }
  - { offset: 0x425B80, size: 0x8, addend: 0x0, symName: '__ZNSt3__110__function6__funcIZN4onnx11GetOpSchemaINS2_25QuantizeLinear_Onnx_ver25EEENS2_8OpSchemaEvE3$_0NS_9allocatorIS6_EEFvRNS2_16InferenceContextEEE18destroy_deallocateEv', symObjAddr: 0x4C50, symBinAddr: 0xDE2608, symSize: 0x4 }
  - { offset: 0x425BA6, size: 0x8, addend: 0x0, symName: '__ZNSt3__110__function6__funcIZN4onnx11GetOpSchemaINS2_25QuantizeLinear_Onnx_ver25EEENS2_8OpSchemaEvE3$_0NS_9allocatorIS6_EEFvRNS2_16InferenceContextEEE18destroy_deallocateEv', symObjAddr: 0x4C50, symBinAddr: 0xDE2608, symSize: 0x4 }
  - { offset: 0x425E56, size: 0x8, addend: 0x0, symName: '__ZNSt3__110__function6__funcIZN4onnx11GetOpSchemaINS2_25QuantizeLinear_Onnx_ver25EEENS2_8OpSchemaEvE3$_0NS_9allocatorIS6_EEFvRNS2_16InferenceContextEEEclESA_', symObjAddr: 0x4C54, symBinAddr: 0xDE260C, symSize: 0x368 }
  - { offset: 0x426931, size: 0x8, addend: 0x0, symName: '__ZNKSt3__110__function6__funcIZN4onnx11GetOpSchemaINS2_25QuantizeLinear_Onnx_ver25EEENS2_8OpSchemaEvE3$_0NS_9allocatorIS6_EEFvRNS2_16InferenceContextEEE6targetERKSt9type_info', symObjAddr: 0x4FBC, symBinAddr: 0xDE2974, symSize: 0x64 }
  - { offset: 0x4269E4, size: 0x8, addend: 0x0, symName: '__ZNKSt3__110__function6__funcIZN4onnx11GetOpSchemaINS2_25QuantizeLinear_Onnx_ver25EEENS2_8OpSchemaEvE3$_0NS_9allocatorIS6_EEFvRNS2_16InferenceContextEEE11target_typeEv', symObjAddr: 0x5020, symBinAddr: 0xDE29D8, symSize: 0xC }
  - { offset: 0x427656, size: 0x8, addend: 0x0, symName: '__ZNSt3__110__function6__funcIZN4onnx11GetOpSchemaINS2_27DequantizeLinear_Onnx_ver25EEENS2_8OpSchemaEvE3$_0NS_9allocatorIS6_EEFvRNS2_16InferenceContextEEED1Ev', symObjAddr: 0x7B90, symBinAddr: 0xDE2C50, symSize: 0x4 }
  - { offset: 0x427681, size: 0x8, addend: 0x0, symName: '__ZNSt3__110__function6__funcIZN4onnx11GetOpSchemaINS2_27DequantizeLinear_Onnx_ver25EEENS2_8OpSchemaEvE3$_0NS_9allocatorIS6_EEFvRNS2_16InferenceContextEEED0Ev', symObjAddr: 0x7B94, symBinAddr: 0xDE2C54, symSize: 0x4 }
  - { offset: 0x427736, size: 0x8, addend: 0x0, symName: '__ZNKSt3__110__function6__funcIZN4onnx11GetOpSchemaINS2_27DequantizeLinear_Onnx_ver25EEENS2_8OpSchemaEvE3$_0NS_9allocatorIS6_EEFvRNS2_16InferenceContextEEE7__cloneEv', symObjAddr: 0x7B98, symBinAddr: 0xDE2C58, symSize: 0x24 }
  - { offset: 0x427879, size: 0x8, addend: 0x0, symName: '__ZNKSt3__110__function6__funcIZN4onnx11GetOpSchemaINS2_27DequantizeLinear_Onnx_ver25EEENS2_8OpSchemaEvE3$_0NS_9allocatorIS6_EEFvRNS2_16InferenceContextEEE7__cloneEPNS0_6__baseISB_EE', symObjAddr: 0x7BBC, symBinAddr: 0xDE2C7C, symSize: 0x10 }
  - { offset: 0x4278AD, size: 0x8, addend: 0x0, symName: '__ZNKSt3__110__function6__funcIZN4onnx11GetOpSchemaINS2_27DequantizeLinear_Onnx_ver25EEENS2_8OpSchemaEvE3$_0NS_9allocatorIS6_EEFvRNS2_16InferenceContextEEE7__cloneEPNS0_6__baseISB_EE', symObjAddr: 0x7BBC, symBinAddr: 0xDE2C7C, symSize: 0x10 }
  - { offset: 0x4278C9, size: 0x8, addend: 0x0, symName: '__ZNKSt3__110__function6__funcIZN4onnx11GetOpSchemaINS2_27DequantizeLinear_Onnx_ver25EEENS2_8OpSchemaEvE3$_0NS_9allocatorIS6_EEFvRNS2_16InferenceContextEEE7__cloneEPNS0_6__baseISB_EE', symObjAddr: 0x7BBC, symBinAddr: 0xDE2C7C, symSize: 0x10 }
  - { offset: 0x4278E5, size: 0x8, addend: 0x0, symName: '__ZNSt3__110__function6__funcIZN4onnx11GetOpSchemaINS2_27DequantizeLinear_Onnx_ver25EEENS2_8OpSchemaEvE3$_0NS_9allocatorIS6_EEFvRNS2_16InferenceContextEEE7destroyEv', symObjAddr: 0x7BCC, symBinAddr: 0xDE2C8C, symSize: 0x4 }
  - { offset: 0x427934, size: 0x8, addend: 0x0, symName: '__ZNSt3__110__function6__funcIZN4onnx11GetOpSchemaINS2_27DequantizeLinear_Onnx_ver25EEENS2_8OpSchemaEvE3$_0NS_9allocatorIS6_EEFvRNS2_16InferenceContextEEE18destroy_deallocateEv', symObjAddr: 0x7BD0, symBinAddr: 0xDE2C90, symSize: 0x4 }
  - { offset: 0x427967, size: 0x8, addend: 0x0, symName: '__ZNSt3__110__function6__funcIZN4onnx11GetOpSchemaINS2_27DequantizeLinear_Onnx_ver25EEENS2_8OpSchemaEvE3$_0NS_9allocatorIS6_EEFvRNS2_16InferenceContextEEE18destroy_deallocateEv', symObjAddr: 0x7BD0, symBinAddr: 0xDE2C90, symSize: 0x4 }
  - { offset: 0x427989, size: 0x8, addend: 0x0, symName: '__ZNSt3__110__function6__funcIZN4onnx11GetOpSchemaINS2_27DequantizeLinear_Onnx_ver25EEENS2_8OpSchemaEvE3$_0NS_9allocatorIS6_EEFvRNS2_16InferenceContextEEE18destroy_deallocateEv', symObjAddr: 0x7BD0, symBinAddr: 0xDE2C90, symSize: 0x4 }
  - { offset: 0x4279B4, size: 0x8, addend: 0x0, symName: '__ZNSt3__110__function6__funcIZN4onnx11GetOpSchemaINS2_27DequantizeLinear_Onnx_ver25EEENS2_8OpSchemaEvE3$_0NS_9allocatorIS6_EEFvRNS2_16InferenceContextEEE18destroy_deallocateEv', symObjAddr: 0x7BD0, symBinAddr: 0xDE2C90, symSize: 0x4 }
  - { offset: 0x4279DA, size: 0x8, addend: 0x0, symName: '__ZNSt3__110__function6__funcIZN4onnx11GetOpSchemaINS2_27DequantizeLinear_Onnx_ver25EEENS2_8OpSchemaEvE3$_0NS_9allocatorIS6_EEFvRNS2_16InferenceContextEEE18destroy_deallocateEv', symObjAddr: 0x7BD0, symBinAddr: 0xDE2C90, symSize: 0x4 }
  - { offset: 0x427A99, size: 0x8, addend: 0x0, symName: '__ZNSt3__110__function6__funcIZN4onnx11GetOpSchemaINS2_27DequantizeLinear_Onnx_ver25EEENS2_8OpSchemaEvE3$_0NS_9allocatorIS6_EEFvRNS2_16InferenceContextEEEclESA_', symObjAddr: 0x7BD4, symBinAddr: 0xDE2C94, symSize: 0x21C }
  - { offset: 0x428257, size: 0x8, addend: 0x0, symName: '__ZNKSt3__110__function6__funcIZN4onnx11GetOpSchemaINS2_27DequantizeLinear_Onnx_ver25EEENS2_8OpSchemaEvE3$_0NS_9allocatorIS6_EEFvRNS2_16InferenceContextEEE6targetERKSt9type_info', symObjAddr: 0x7DF0, symBinAddr: 0xDE2EB0, symSize: 0x64 }
  - { offset: 0x42830A, size: 0x8, addend: 0x0, symName: '__ZNKSt3__110__function6__funcIZN4onnx11GetOpSchemaINS2_27DequantizeLinear_Onnx_ver25EEENS2_8OpSchemaEvE3$_0NS_9allocatorIS6_EEFvRNS2_16InferenceContextEEE11target_typeEv', symObjAddr: 0x7E54, symBinAddr: 0xDE2F14, symSize: 0xC }
  - { offset: 0x42832D, size: 0x8, addend: 0x0, symName: '__ZNSt3__110__function6__funcIZN4onnx11GetOpSchemaINS2_32DynamicQuantizeLinear_Onnx_ver11EEENS2_8OpSchemaEvE3$_0NS_9allocatorIS6_EEFvRNS2_16InferenceContextEEED1Ev', symObjAddr: 0x7E60, symBinAddr: 0xDE2F20, symSize: 0x4 }
  - { offset: 0x428358, size: 0x8, addend: 0x0, symName: '__ZNSt3__110__function6__funcIZN4onnx11GetOpSchemaINS2_32DynamicQuantizeLinear_Onnx_ver11EEENS2_8OpSchemaEvE3$_0NS_9allocatorIS6_EEFvRNS2_16InferenceContextEEED0Ev', symObjAddr: 0x7E64, symBinAddr: 0xDE2F24, symSize: 0x4 }
  - { offset: 0x42840D, size: 0x8, addend: 0x0, symName: '__ZNKSt3__110__function6__funcIZN4onnx11GetOpSchemaINS2_32DynamicQuantizeLinear_Onnx_ver11EEENS2_8OpSchemaEvE3$_0NS_9allocatorIS6_EEFvRNS2_16InferenceContextEEE7__cloneEv', symObjAddr: 0x7E68, symBinAddr: 0xDE2F28, symSize: 0x24 }
  - { offset: 0x428550, size: 0x8, addend: 0x0, symName: '__ZNKSt3__110__function6__funcIZN4onnx11GetOpSchemaINS2_32DynamicQuantizeLinear_Onnx_ver11EEENS2_8OpSchemaEvE3$_0NS_9allocatorIS6_EEFvRNS2_16InferenceContextEEE7__cloneEPNS0_6__baseISB_EE', symObjAddr: 0x7E8C, symBinAddr: 0xDE2F4C, symSize: 0x10 }
  - { offset: 0x428584, size: 0x8, addend: 0x0, symName: '__ZNKSt3__110__function6__funcIZN4onnx11GetOpSchemaINS2_32DynamicQuantizeLinear_Onnx_ver11EEENS2_8OpSchemaEvE3$_0NS_9allocatorIS6_EEFvRNS2_16InferenceContextEEE7__cloneEPNS0_6__baseISB_EE', symObjAddr: 0x7E8C, symBinAddr: 0xDE2F4C, symSize: 0x10 }
  - { offset: 0x4285A0, size: 0x8, addend: 0x0, symName: '__ZNKSt3__110__function6__funcIZN4onnx11GetOpSchemaINS2_32DynamicQuantizeLinear_Onnx_ver11EEENS2_8OpSchemaEvE3$_0NS_9allocatorIS6_EEFvRNS2_16InferenceContextEEE7__cloneEPNS0_6__baseISB_EE', symObjAddr: 0x7E8C, symBinAddr: 0xDE2F4C, symSize: 0x10 }
  - { offset: 0x4285BC, size: 0x8, addend: 0x0, symName: '__ZNSt3__110__function6__funcIZN4onnx11GetOpSchemaINS2_32DynamicQuantizeLinear_Onnx_ver11EEENS2_8OpSchemaEvE3$_0NS_9allocatorIS6_EEFvRNS2_16InferenceContextEEE7destroyEv', symObjAddr: 0x7E9C, symBinAddr: 0xDE2F5C, symSize: 0x4 }
  - { offset: 0x42860B, size: 0x8, addend: 0x0, symName: '__ZNSt3__110__function6__funcIZN4onnx11GetOpSchemaINS2_32DynamicQuantizeLinear_Onnx_ver11EEENS2_8OpSchemaEvE3$_0NS_9allocatorIS6_EEFvRNS2_16InferenceContextEEE18destroy_deallocateEv', symObjAddr: 0x7EA0, symBinAddr: 0xDE2F60, symSize: 0x4 }
  - { offset: 0x42863E, size: 0x8, addend: 0x0, symName: '__ZNSt3__110__function6__funcIZN4onnx11GetOpSchemaINS2_32DynamicQuantizeLinear_Onnx_ver11EEENS2_8OpSchemaEvE3$_0NS_9allocatorIS6_EEFvRNS2_16InferenceContextEEE18destroy_deallocateEv', symObjAddr: 0x7EA0, symBinAddr: 0xDE2F60, symSize: 0x4 }
  - { offset: 0x428660, size: 0x8, addend: 0x0, symName: '__ZNSt3__110__function6__funcIZN4onnx11GetOpSchemaINS2_32DynamicQuantizeLinear_Onnx_ver11EEENS2_8OpSchemaEvE3$_0NS_9allocatorIS6_EEFvRNS2_16InferenceContextEEE18destroy_deallocateEv', symObjAddr: 0x7EA0, symBinAddr: 0xDE2F60, symSize: 0x4 }
  - { offset: 0x42868B, size: 0x8, addend: 0x0, symName: '__ZNSt3__110__function6__funcIZN4onnx11GetOpSchemaINS2_32DynamicQuantizeLinear_Onnx_ver11EEENS2_8OpSchemaEvE3$_0NS_9allocatorIS6_EEFvRNS2_16InferenceContextEEE18destroy_deallocateEv', symObjAddr: 0x7EA0, symBinAddr: 0xDE2F60, symSize: 0x4 }
  - { offset: 0x4286B1, size: 0x8, addend: 0x0, symName: '__ZNSt3__110__function6__funcIZN4onnx11GetOpSchemaINS2_32DynamicQuantizeLinear_Onnx_ver11EEENS2_8OpSchemaEvE3$_0NS_9allocatorIS6_EEFvRNS2_16InferenceContextEEE18destroy_deallocateEv', symObjAddr: 0x7EA0, symBinAddr: 0xDE2F60, symSize: 0x4 }
  - { offset: 0x428767, size: 0x8, addend: 0x0, symName: '__ZNSt3__110__function6__funcIZN4onnx11GetOpSchemaINS2_32DynamicQuantizeLinear_Onnx_ver11EEENS2_8OpSchemaEvE3$_0NS_9allocatorIS6_EEFvRNS2_16InferenceContextEEEclESA_', symObjAddr: 0x7EA4, symBinAddr: 0xDE2F64, symSize: 0x288 }
  - { offset: 0x428E55, size: 0x8, addend: 0x0, symName: '__ZNKSt3__110__function6__funcIZN4onnx11GetOpSchemaINS2_32DynamicQuantizeLinear_Onnx_ver11EEENS2_8OpSchemaEvE3$_0NS_9allocatorIS6_EEFvRNS2_16InferenceContextEEE6targetERKSt9type_info', symObjAddr: 0x812C, symBinAddr: 0xDE31EC, symSize: 0x64 }
  - { offset: 0x428F08, size: 0x8, addend: 0x0, symName: '__ZNKSt3__110__function6__funcIZN4onnx11GetOpSchemaINS2_32DynamicQuantizeLinear_Onnx_ver11EEENS2_8OpSchemaEvE3$_0NS_9allocatorIS6_EEFvRNS2_16InferenceContextEEE11target_typeEv', symObjAddr: 0x8190, symBinAddr: 0xDE3250, symSize: 0xC }
  - { offset: 0x436310, size: 0x8, addend: 0x0, symName: __ZN4onnx11GetOpSchemaINS_25QuantizeLinear_Onnx_ver24EEENS_8OpSchemaEv, symObjAddr: 0x0, symBinAddr: 0xDE325C, symSize: 0x4C8 }
  - { offset: 0x436DCE, size: 0x8, addend: 0x0, symName: __ZN4onnx11GetOpSchemaINS_27DequantizeLinear_Onnx_ver24EEENS_8OpSchemaEv, symObjAddr: 0x650, symBinAddr: 0xDE3724, symSize: 0x454 }
  - { offset: 0x4377AF, size: 0x8, addend: 0x0, symName: __ZN4onnx11GetOpSchemaINS_25QuantizeLinear_Onnx_ver23EEENS_8OpSchemaEv, symObjAddr: 0xAA4, symBinAddr: 0xDE3B78, symSize: 0x4BC }
  - { offset: 0x4381FF, size: 0x8, addend: 0x0, symName: __ZN4onnx11GetOpSchemaINS_27DequantizeLinear_Onnx_ver23EEENS_8OpSchemaEv, symObjAddr: 0xF60, symBinAddr: 0xDE4034, symSize: 0x458 }
  - { offset: 0x438BF7, size: 0x8, addend: 0x0, symName: __ZN4onnx11GetOpSchemaINS_25QuantizeLinear_Onnx_ver21EEENS_8OpSchemaEv, symObjAddr: 0x13B8, symBinAddr: 0xDE448C, symSize: 0x438 }
  - { offset: 0x4395D0, size: 0x8, addend: 0x0, symName: __ZN4onnx11GetOpSchemaINS_27DequantizeLinear_Onnx_ver21EEENS_8OpSchemaEv, symObjAddr: 0x17F0, symBinAddr: 0xDE48C4, symSize: 0x3DC }
  - { offset: 0x439F7F, size: 0x8, addend: 0x0, symName: __ZN4onnx11GetOpSchemaINS_25QuantizeLinear_Onnx_ver19EEENS_8OpSchemaEv, symObjAddr: 0x1BCC, symBinAddr: 0xDE4CA0, symSize: 0x3C8 }
  - { offset: 0x43A92E, size: 0x8, addend: 0x0, symName: __ZN4onnx11GetOpSchemaINS_27DequantizeLinear_Onnx_ver19EEENS_8OpSchemaEv, symObjAddr: 0x1F94, symBinAddr: 0xDE5068, symSize: 0x3A0 }
  - { offset: 0x43B2C8, size: 0x8, addend: 0x0, symName: __ZN4onnx11GetOpSchemaINS_25QuantizeLinear_Onnx_ver13EEENS_8OpSchemaEv, symObjAddr: 0x2334, symBinAddr: 0xDE5408, symSize: 0x384 }
  - { offset: 0x43BCBA, size: 0x8, addend: 0x0, symName: __ZN4onnx11GetOpSchemaINS_27DequantizeLinear_Onnx_ver13EEENS_8OpSchemaEv, symObjAddr: 0x26B8, symBinAddr: 0xDE578C, symSize: 0x348 }
  - { offset: 0x43C697, size: 0x8, addend: 0x0, symName: __ZN4onnx11GetOpSchemaINS_25QuantizeLinear_Onnx_ver10EEENS_8OpSchemaEv, symObjAddr: 0x2A00, symBinAddr: 0xDE5AD4, symSize: 0x34C }
  - { offset: 0x43D074, size: 0x8, addend: 0x0, symName: __ZN4onnx11GetOpSchemaINS_27DequantizeLinear_Onnx_ver10EEENS_8OpSchemaEv, symObjAddr: 0x2D4C, symBinAddr: 0xDE5E20, symSize: 0x310 }
  - { offset: 0x47D6F5, size: 0x8, addend: 0x0, symName: '__ZNSt3__110__function6__funcIZN4onnx11GetOpSchemaINS2_25QuantizeLinear_Onnx_ver24EEENS2_8OpSchemaEvE3$_0NS_9allocatorIS6_EEFvRNS2_16InferenceContextEEED1Ev', symObjAddr: 0x6E7C, symBinAddr: 0xDE6130, symSize: 0x4 }
  - { offset: 0x47D720, size: 0x8, addend: 0x0, symName: '__ZNSt3__110__function6__funcIZN4onnx11GetOpSchemaINS2_25QuantizeLinear_Onnx_ver24EEENS2_8OpSchemaEvE3$_0NS_9allocatorIS6_EEFvRNS2_16InferenceContextEEED0Ev', symObjAddr: 0x6E80, symBinAddr: 0xDE6134, symSize: 0x4 }
  - { offset: 0x47D7D5, size: 0x8, addend: 0x0, symName: '__ZNKSt3__110__function6__funcIZN4onnx11GetOpSchemaINS2_25QuantizeLinear_Onnx_ver24EEENS2_8OpSchemaEvE3$_0NS_9allocatorIS6_EEFvRNS2_16InferenceContextEEE7__cloneEv', symObjAddr: 0x6E84, symBinAddr: 0xDE6138, symSize: 0x24 }
  - { offset: 0x47D918, size: 0x8, addend: 0x0, symName: '__ZNKSt3__110__function6__funcIZN4onnx11GetOpSchemaINS2_25QuantizeLinear_Onnx_ver24EEENS2_8OpSchemaEvE3$_0NS_9allocatorIS6_EEFvRNS2_16InferenceContextEEE7__cloneEPNS0_6__baseISB_EE', symObjAddr: 0x6EA8, symBinAddr: 0xDE615C, symSize: 0x10 }
  - { offset: 0x47D94C, size: 0x8, addend: 0x0, symName: '__ZNKSt3__110__function6__funcIZN4onnx11GetOpSchemaINS2_25QuantizeLinear_Onnx_ver24EEENS2_8OpSchemaEvE3$_0NS_9allocatorIS6_EEFvRNS2_16InferenceContextEEE7__cloneEPNS0_6__baseISB_EE', symObjAddr: 0x6EA8, symBinAddr: 0xDE615C, symSize: 0x10 }
  - { offset: 0x47D968, size: 0x8, addend: 0x0, symName: '__ZNKSt3__110__function6__funcIZN4onnx11GetOpSchemaINS2_25QuantizeLinear_Onnx_ver24EEENS2_8OpSchemaEvE3$_0NS_9allocatorIS6_EEFvRNS2_16InferenceContextEEE7__cloneEPNS0_6__baseISB_EE', symObjAddr: 0x6EA8, symBinAddr: 0xDE615C, symSize: 0x10 }
  - { offset: 0x47D984, size: 0x8, addend: 0x0, symName: '__ZNSt3__110__function6__funcIZN4onnx11GetOpSchemaINS2_25QuantizeLinear_Onnx_ver24EEENS2_8OpSchemaEvE3$_0NS_9allocatorIS6_EEFvRNS2_16InferenceContextEEE7destroyEv', symObjAddr: 0x6EB8, symBinAddr: 0xDE616C, symSize: 0x4 }
  - { offset: 0x47D9D3, size: 0x8, addend: 0x0, symName: '__ZNSt3__110__function6__funcIZN4onnx11GetOpSchemaINS2_25QuantizeLinear_Onnx_ver24EEENS2_8OpSchemaEvE3$_0NS_9allocatorIS6_EEFvRNS2_16InferenceContextEEE18destroy_deallocateEv', symObjAddr: 0x6EBC, symBinAddr: 0xDE6170, symSize: 0x4 }
  - { offset: 0x47DA06, size: 0x8, addend: 0x0, symName: '__ZNSt3__110__function6__funcIZN4onnx11GetOpSchemaINS2_25QuantizeLinear_Onnx_ver24EEENS2_8OpSchemaEvE3$_0NS_9allocatorIS6_EEFvRNS2_16InferenceContextEEE18destroy_deallocateEv', symObjAddr: 0x6EBC, symBinAddr: 0xDE6170, symSize: 0x4 }
  - { offset: 0x47DA28, size: 0x8, addend: 0x0, symName: '__ZNSt3__110__function6__funcIZN4onnx11GetOpSchemaINS2_25QuantizeLinear_Onnx_ver24EEENS2_8OpSchemaEvE3$_0NS_9allocatorIS6_EEFvRNS2_16InferenceContextEEE18destroy_deallocateEv', symObjAddr: 0x6EBC, symBinAddr: 0xDE6170, symSize: 0x4 }
  - { offset: 0x47DA53, size: 0x8, addend: 0x0, symName: '__ZNSt3__110__function6__funcIZN4onnx11GetOpSchemaINS2_25QuantizeLinear_Onnx_ver24EEENS2_8OpSchemaEvE3$_0NS_9allocatorIS6_EEFvRNS2_16InferenceContextEEE18destroy_deallocateEv', symObjAddr: 0x6EBC, symBinAddr: 0xDE6170, symSize: 0x4 }
  - { offset: 0x47DA79, size: 0x8, addend: 0x0, symName: '__ZNSt3__110__function6__funcIZN4onnx11GetOpSchemaINS2_25QuantizeLinear_Onnx_ver24EEENS2_8OpSchemaEvE3$_0NS_9allocatorIS6_EEFvRNS2_16InferenceContextEEE18destroy_deallocateEv', symObjAddr: 0x6EBC, symBinAddr: 0xDE6170, symSize: 0x4 }
  - { offset: 0x47DD29, size: 0x8, addend: 0x0, symName: '__ZNSt3__110__function6__funcIZN4onnx11GetOpSchemaINS2_25QuantizeLinear_Onnx_ver24EEENS2_8OpSchemaEvE3$_0NS_9allocatorIS6_EEFvRNS2_16InferenceContextEEEclESA_', symObjAddr: 0x6EC0, symBinAddr: 0xDE6174, symSize: 0x368 }
  - { offset: 0x47E804, size: 0x8, addend: 0x0, symName: '__ZNKSt3__110__function6__funcIZN4onnx11GetOpSchemaINS2_25QuantizeLinear_Onnx_ver24EEENS2_8OpSchemaEvE3$_0NS_9allocatorIS6_EEFvRNS2_16InferenceContextEEE6targetERKSt9type_info', symObjAddr: 0x7228, symBinAddr: 0xDE64DC, symSize: 0x64 }
  - { offset: 0x47E8B7, size: 0x8, addend: 0x0, symName: '__ZNKSt3__110__function6__funcIZN4onnx11GetOpSchemaINS2_25QuantizeLinear_Onnx_ver24EEENS2_8OpSchemaEvE3$_0NS_9allocatorIS6_EEFvRNS2_16InferenceContextEEE11target_typeEv', symObjAddr: 0x728C, symBinAddr: 0xDE6540, symSize: 0xC }
  - { offset: 0x47F529, size: 0x8, addend: 0x0, symName: '__ZNSt3__110__function6__funcIZN4onnx11GetOpSchemaINS2_27DequantizeLinear_Onnx_ver24EEENS2_8OpSchemaEvE3$_0NS_9allocatorIS6_EEFvRNS2_16InferenceContextEEED1Ev', symObjAddr: 0x9DFC, symBinAddr: 0xDE654C, symSize: 0x4 }
  - { offset: 0x47F554, size: 0x8, addend: 0x0, symName: '__ZNSt3__110__function6__funcIZN4onnx11GetOpSchemaINS2_27DequantizeLinear_Onnx_ver24EEENS2_8OpSchemaEvE3$_0NS_9allocatorIS6_EEFvRNS2_16InferenceContextEEED0Ev', symObjAddr: 0x9E00, symBinAddr: 0xDE6550, symSize: 0x4 }
  - { offset: 0x47F609, size: 0x8, addend: 0x0, symName: '__ZNKSt3__110__function6__funcIZN4onnx11GetOpSchemaINS2_27DequantizeLinear_Onnx_ver24EEENS2_8OpSchemaEvE3$_0NS_9allocatorIS6_EEFvRNS2_16InferenceContextEEE7__cloneEv', symObjAddr: 0x9E04, symBinAddr: 0xDE6554, symSize: 0x24 }
  - { offset: 0x47F74C, size: 0x8, addend: 0x0, symName: '__ZNKSt3__110__function6__funcIZN4onnx11GetOpSchemaINS2_27DequantizeLinear_Onnx_ver24EEENS2_8OpSchemaEvE3$_0NS_9allocatorIS6_EEFvRNS2_16InferenceContextEEE7__cloneEPNS0_6__baseISB_EE', symObjAddr: 0x9E28, symBinAddr: 0xDE6578, symSize: 0x10 }
  - { offset: 0x47F780, size: 0x8, addend: 0x0, symName: '__ZNKSt3__110__function6__funcIZN4onnx11GetOpSchemaINS2_27DequantizeLinear_Onnx_ver24EEENS2_8OpSchemaEvE3$_0NS_9allocatorIS6_EEFvRNS2_16InferenceContextEEE7__cloneEPNS0_6__baseISB_EE', symObjAddr: 0x9E28, symBinAddr: 0xDE6578, symSize: 0x10 }
  - { offset: 0x47F79C, size: 0x8, addend: 0x0, symName: '__ZNKSt3__110__function6__funcIZN4onnx11GetOpSchemaINS2_27DequantizeLinear_Onnx_ver24EEENS2_8OpSchemaEvE3$_0NS_9allocatorIS6_EEFvRNS2_16InferenceContextEEE7__cloneEPNS0_6__baseISB_EE', symObjAddr: 0x9E28, symBinAddr: 0xDE6578, symSize: 0x10 }
  - { offset: 0x47F7B8, size: 0x8, addend: 0x0, symName: '__ZNSt3__110__function6__funcIZN4onnx11GetOpSchemaINS2_27DequantizeLinear_Onnx_ver24EEENS2_8OpSchemaEvE3$_0NS_9allocatorIS6_EEFvRNS2_16InferenceContextEEE7destroyEv', symObjAddr: 0x9E38, symBinAddr: 0xDE6588, symSize: 0x4 }
  - { offset: 0x47F807, size: 0x8, addend: 0x0, symName: '__ZNSt3__110__function6__funcIZN4onnx11GetOpSchemaINS2_27DequantizeLinear_Onnx_ver24EEENS2_8OpSchemaEvE3$_0NS_9allocatorIS6_EEFvRNS2_16InferenceContextEEE18destroy_deallocateEv', symObjAddr: 0x9E3C, symBinAddr: 0xDE658C, symSize: 0x4 }
  - { offset: 0x47F83A, size: 0x8, addend: 0x0, symName: '__ZNSt3__110__function6__funcIZN4onnx11GetOpSchemaINS2_27DequantizeLinear_Onnx_ver24EEENS2_8OpSchemaEvE3$_0NS_9allocatorIS6_EEFvRNS2_16InferenceContextEEE18destroy_deallocateEv', symObjAddr: 0x9E3C, symBinAddr: 0xDE658C, symSize: 0x4 }
  - { offset: 0x47F85C, size: 0x8, addend: 0x0, symName: '__ZNSt3__110__function6__funcIZN4onnx11GetOpSchemaINS2_27DequantizeLinear_Onnx_ver24EEENS2_8OpSchemaEvE3$_0NS_9allocatorIS6_EEFvRNS2_16InferenceContextEEE18destroy_deallocateEv', symObjAddr: 0x9E3C, symBinAddr: 0xDE658C, symSize: 0x4 }
  - { offset: 0x47F887, size: 0x8, addend: 0x0, symName: '__ZNSt3__110__function6__funcIZN4onnx11GetOpSchemaINS2_27DequantizeLinear_Onnx_ver24EEENS2_8OpSchemaEvE3$_0NS_9allocatorIS6_EEFvRNS2_16InferenceContextEEE18destroy_deallocateEv', symObjAddr: 0x9E3C, symBinAddr: 0xDE658C, symSize: 0x4 }
  - { offset: 0x47F8AD, size: 0x8, addend: 0x0, symName: '__ZNSt3__110__function6__funcIZN4onnx11GetOpSchemaINS2_27DequantizeLinear_Onnx_ver24EEENS2_8OpSchemaEvE3$_0NS_9allocatorIS6_EEFvRNS2_16InferenceContextEEE18destroy_deallocateEv', symObjAddr: 0x9E3C, symBinAddr: 0xDE658C, symSize: 0x4 }
  - { offset: 0x47F96C, size: 0x8, addend: 0x0, symName: '__ZNSt3__110__function6__funcIZN4onnx11GetOpSchemaINS2_27DequantizeLinear_Onnx_ver24EEENS2_8OpSchemaEvE3$_0NS_9allocatorIS6_EEFvRNS2_16InferenceContextEEEclESA_', symObjAddr: 0x9E40, symBinAddr: 0xDE6590, symSize: 0x21C }
  - { offset: 0x48012A, size: 0x8, addend: 0x0, symName: '__ZNKSt3__110__function6__funcIZN4onnx11GetOpSchemaINS2_27DequantizeLinear_Onnx_ver24EEENS2_8OpSchemaEvE3$_0NS_9allocatorIS6_EEFvRNS2_16InferenceContextEEE6targetERKSt9type_info', symObjAddr: 0xA05C, symBinAddr: 0xDE67AC, symSize: 0x64 }
  - { offset: 0x4801DD, size: 0x8, addend: 0x0, symName: '__ZNKSt3__110__function6__funcIZN4onnx11GetOpSchemaINS2_27DequantizeLinear_Onnx_ver24EEENS2_8OpSchemaEvE3$_0NS_9allocatorIS6_EEFvRNS2_16InferenceContextEEE11target_typeEv', symObjAddr: 0xA0C0, symBinAddr: 0xDE6810, symSize: 0xC }
  - { offset: 0x480200, size: 0x8, addend: 0x0, symName: '__ZNSt3__110__function6__funcIZN4onnx11GetOpSchemaINS2_25QuantizeLinear_Onnx_ver23EEENS2_8OpSchemaEvE3$_0NS_9allocatorIS6_EEFvRNS2_16InferenceContextEEED1Ev', symObjAddr: 0xA0CC, symBinAddr: 0xDE681C, symSize: 0x4 }
  - { offset: 0x48022B, size: 0x8, addend: 0x0, symName: '__ZNSt3__110__function6__funcIZN4onnx11GetOpSchemaINS2_25QuantizeLinear_Onnx_ver23EEENS2_8OpSchemaEvE3$_0NS_9allocatorIS6_EEFvRNS2_16InferenceContextEEED0Ev', symObjAddr: 0xA0D0, symBinAddr: 0xDE6820, symSize: 0x4 }
  - { offset: 0x4802E0, size: 0x8, addend: 0x0, symName: '__ZNKSt3__110__function6__funcIZN4onnx11GetOpSchemaINS2_25QuantizeLinear_Onnx_ver23EEENS2_8OpSchemaEvE3$_0NS_9allocatorIS6_EEFvRNS2_16InferenceContextEEE7__cloneEv', symObjAddr: 0xA0D4, symBinAddr: 0xDE6824, symSize: 0x24 }
  - { offset: 0x480423, size: 0x8, addend: 0x0, symName: '__ZNKSt3__110__function6__funcIZN4onnx11GetOpSchemaINS2_25QuantizeLinear_Onnx_ver23EEENS2_8OpSchemaEvE3$_0NS_9allocatorIS6_EEFvRNS2_16InferenceContextEEE7__cloneEPNS0_6__baseISB_EE', symObjAddr: 0xA0F8, symBinAddr: 0xDE6848, symSize: 0x10 }
  - { offset: 0x480457, size: 0x8, addend: 0x0, symName: '__ZNKSt3__110__function6__funcIZN4onnx11GetOpSchemaINS2_25QuantizeLinear_Onnx_ver23EEENS2_8OpSchemaEvE3$_0NS_9allocatorIS6_EEFvRNS2_16InferenceContextEEE7__cloneEPNS0_6__baseISB_EE', symObjAddr: 0xA0F8, symBinAddr: 0xDE6848, symSize: 0x10 }
  - { offset: 0x480473, size: 0x8, addend: 0x0, symName: '__ZNKSt3__110__function6__funcIZN4onnx11GetOpSchemaINS2_25QuantizeLinear_Onnx_ver23EEENS2_8OpSchemaEvE3$_0NS_9allocatorIS6_EEFvRNS2_16InferenceContextEEE7__cloneEPNS0_6__baseISB_EE', symObjAddr: 0xA0F8, symBinAddr: 0xDE6848, symSize: 0x10 }
  - { offset: 0x48048F, size: 0x8, addend: 0x0, symName: '__ZNSt3__110__function6__funcIZN4onnx11GetOpSchemaINS2_25QuantizeLinear_Onnx_ver23EEENS2_8OpSchemaEvE3$_0NS_9allocatorIS6_EEFvRNS2_16InferenceContextEEE7destroyEv', symObjAddr: 0xA108, symBinAddr: 0xDE6858, symSize: 0x4 }
  - { offset: 0x4804DE, size: 0x8, addend: 0x0, symName: '__ZNSt3__110__function6__funcIZN4onnx11GetOpSchemaINS2_25QuantizeLinear_Onnx_ver23EEENS2_8OpSchemaEvE3$_0NS_9allocatorIS6_EEFvRNS2_16InferenceContextEEE18destroy_deallocateEv', symObjAddr: 0xA10C, symBinAddr: 0xDE685C, symSize: 0x4 }
  - { offset: 0x480511, size: 0x8, addend: 0x0, symName: '__ZNSt3__110__function6__funcIZN4onnx11GetOpSchemaINS2_25QuantizeLinear_Onnx_ver23EEENS2_8OpSchemaEvE3$_0NS_9allocatorIS6_EEFvRNS2_16InferenceContextEEE18destroy_deallocateEv', symObjAddr: 0xA10C, symBinAddr: 0xDE685C, symSize: 0x4 }
  - { offset: 0x480533, size: 0x8, addend: 0x0, symName: '__ZNSt3__110__function6__funcIZN4onnx11GetOpSchemaINS2_25QuantizeLinear_Onnx_ver23EEENS2_8OpSchemaEvE3$_0NS_9allocatorIS6_EEFvRNS2_16InferenceContextEEE18destroy_deallocateEv', symObjAddr: 0xA10C, symBinAddr: 0xDE685C, symSize: 0x4 }
  - { offset: 0x48055E, size: 0x8, addend: 0x0, symName: '__ZNSt3__110__function6__funcIZN4onnx11GetOpSchemaINS2_25QuantizeLinear_Onnx_ver23EEENS2_8OpSchemaEvE3$_0NS_9allocatorIS6_EEFvRNS2_16InferenceContextEEE18destroy_deallocateEv', symObjAddr: 0xA10C, symBinAddr: 0xDE685C, symSize: 0x4 }
  - { offset: 0x480584, size: 0x8, addend: 0x0, symName: '__ZNSt3__110__function6__funcIZN4onnx11GetOpSchemaINS2_25QuantizeLinear_Onnx_ver23EEENS2_8OpSchemaEvE3$_0NS_9allocatorIS6_EEFvRNS2_16InferenceContextEEE18destroy_deallocateEv', symObjAddr: 0xA10C, symBinAddr: 0xDE685C, symSize: 0x4 }
  - { offset: 0x48065B, size: 0x8, addend: 0x0, symName: '__ZNSt3__110__function6__funcIZN4onnx11GetOpSchemaINS2_25QuantizeLinear_Onnx_ver23EEENS2_8OpSchemaEvE3$_0NS_9allocatorIS6_EEFvRNS2_16InferenceContextEEEclESA_', symObjAddr: 0xA110, symBinAddr: 0xDE6860, symSize: 0x368 }
  - { offset: 0x481136, size: 0x8, addend: 0x0, symName: '__ZNKSt3__110__function6__funcIZN4onnx11GetOpSchemaINS2_25QuantizeLinear_Onnx_ver23EEENS2_8OpSchemaEvE3$_0NS_9allocatorIS6_EEFvRNS2_16InferenceContextEEE6targetERKSt9type_info', symObjAddr: 0xA478, symBinAddr: 0xDE6BC8, symSize: 0x64 }
  - { offset: 0x4811E9, size: 0x8, addend: 0x0, symName: '__ZNKSt3__110__function6__funcIZN4onnx11GetOpSchemaINS2_25QuantizeLinear_Onnx_ver23EEENS2_8OpSchemaEvE3$_0NS_9allocatorIS6_EEFvRNS2_16InferenceContextEEE11target_typeEv', symObjAddr: 0xA4DC, symBinAddr: 0xDE6C2C, symSize: 0xC }
  - { offset: 0x48120C, size: 0x8, addend: 0x0, symName: '__ZNSt3__110__function6__funcIZN4onnx11GetOpSchemaINS2_27DequantizeLinear_Onnx_ver23EEENS2_8OpSchemaEvE3$_0NS_9allocatorIS6_EEFvRNS2_16InferenceContextEEED1Ev', symObjAddr: 0xA4E8, symBinAddr: 0xDE6C38, symSize: 0x4 }
  - { offset: 0x481237, size: 0x8, addend: 0x0, symName: '__ZNSt3__110__function6__funcIZN4onnx11GetOpSchemaINS2_27DequantizeLinear_Onnx_ver23EEENS2_8OpSchemaEvE3$_0NS_9allocatorIS6_EEFvRNS2_16InferenceContextEEED0Ev', symObjAddr: 0xA4EC, symBinAddr: 0xDE6C3C, symSize: 0x4 }
  - { offset: 0x4812EC, size: 0x8, addend: 0x0, symName: '__ZNKSt3__110__function6__funcIZN4onnx11GetOpSchemaINS2_27DequantizeLinear_Onnx_ver23EEENS2_8OpSchemaEvE3$_0NS_9allocatorIS6_EEFvRNS2_16InferenceContextEEE7__cloneEv', symObjAddr: 0xA4F0, symBinAddr: 0xDE6C40, symSize: 0x24 }
  - { offset: 0x48142F, size: 0x8, addend: 0x0, symName: '__ZNKSt3__110__function6__funcIZN4onnx11GetOpSchemaINS2_27DequantizeLinear_Onnx_ver23EEENS2_8OpSchemaEvE3$_0NS_9allocatorIS6_EEFvRNS2_16InferenceContextEEE7__cloneEPNS0_6__baseISB_EE', symObjAddr: 0xA514, symBinAddr: 0xDE6C64, symSize: 0x10 }
  - { offset: 0x481463, size: 0x8, addend: 0x0, symName: '__ZNKSt3__110__function6__funcIZN4onnx11GetOpSchemaINS2_27DequantizeLinear_Onnx_ver23EEENS2_8OpSchemaEvE3$_0NS_9allocatorIS6_EEFvRNS2_16InferenceContextEEE7__cloneEPNS0_6__baseISB_EE', symObjAddr: 0xA514, symBinAddr: 0xDE6C64, symSize: 0x10 }
  - { offset: 0x48147F, size: 0x8, addend: 0x0, symName: '__ZNKSt3__110__function6__funcIZN4onnx11GetOpSchemaINS2_27DequantizeLinear_Onnx_ver23EEENS2_8OpSchemaEvE3$_0NS_9allocatorIS6_EEFvRNS2_16InferenceContextEEE7__cloneEPNS0_6__baseISB_EE', symObjAddr: 0xA514, symBinAddr: 0xDE6C64, symSize: 0x10 }
  - { offset: 0x48149B, size: 0x8, addend: 0x0, symName: '__ZNSt3__110__function6__funcIZN4onnx11GetOpSchemaINS2_27DequantizeLinear_Onnx_ver23EEENS2_8OpSchemaEvE3$_0NS_9allocatorIS6_EEFvRNS2_16InferenceContextEEE7destroyEv', symObjAddr: 0xA524, symBinAddr: 0xDE6C74, symSize: 0x4 }
  - { offset: 0x4814EA, size: 0x8, addend: 0x0, symName: '__ZNSt3__110__function6__funcIZN4onnx11GetOpSchemaINS2_27DequantizeLinear_Onnx_ver23EEENS2_8OpSchemaEvE3$_0NS_9allocatorIS6_EEFvRNS2_16InferenceContextEEE18destroy_deallocateEv', symObjAddr: 0xA528, symBinAddr: 0xDE6C78, symSize: 0x4 }
  - { offset: 0x48151D, size: 0x8, addend: 0x0, symName: '__ZNSt3__110__function6__funcIZN4onnx11GetOpSchemaINS2_27DequantizeLinear_Onnx_ver23EEENS2_8OpSchemaEvE3$_0NS_9allocatorIS6_EEFvRNS2_16InferenceContextEEE18destroy_deallocateEv', symObjAddr: 0xA528, symBinAddr: 0xDE6C78, symSize: 0x4 }
  - { offset: 0x48153F, size: 0x8, addend: 0x0, symName: '__ZNSt3__110__function6__funcIZN4onnx11GetOpSchemaINS2_27DequantizeLinear_Onnx_ver23EEENS2_8OpSchemaEvE3$_0NS_9allocatorIS6_EEFvRNS2_16InferenceContextEEE18destroy_deallocateEv', symObjAddr: 0xA528, symBinAddr: 0xDE6C78, symSize: 0x4 }
  - { offset: 0x48156A, size: 0x8, addend: 0x0, symName: '__ZNSt3__110__function6__funcIZN4onnx11GetOpSchemaINS2_27DequantizeLinear_Onnx_ver23EEENS2_8OpSchemaEvE3$_0NS_9allocatorIS6_EEFvRNS2_16InferenceContextEEE18destroy_deallocateEv', symObjAddr: 0xA528, symBinAddr: 0xDE6C78, symSize: 0x4 }
  - { offset: 0x481590, size: 0x8, addend: 0x0, symName: '__ZNSt3__110__function6__funcIZN4onnx11GetOpSchemaINS2_27DequantizeLinear_Onnx_ver23EEENS2_8OpSchemaEvE3$_0NS_9allocatorIS6_EEFvRNS2_16InferenceContextEEE18destroy_deallocateEv', symObjAddr: 0xA528, symBinAddr: 0xDE6C78, symSize: 0x4 }
  - { offset: 0x481652, size: 0x8, addend: 0x0, symName: '__ZNSt3__110__function6__funcIZN4onnx11GetOpSchemaINS2_27DequantizeLinear_Onnx_ver23EEENS2_8OpSchemaEvE3$_0NS_9allocatorIS6_EEFvRNS2_16InferenceContextEEEclESA_', symObjAddr: 0xA52C, symBinAddr: 0xDE6C7C, symSize: 0x21C }
  - { offset: 0x481E19, size: 0x8, addend: 0x0, symName: '__ZNKSt3__110__function6__funcIZN4onnx11GetOpSchemaINS2_27DequantizeLinear_Onnx_ver23EEENS2_8OpSchemaEvE3$_0NS_9allocatorIS6_EEFvRNS2_16InferenceContextEEE6targetERKSt9type_info', symObjAddr: 0xA748, symBinAddr: 0xDE6E98, symSize: 0x64 }
  - { offset: 0x481ECC, size: 0x8, addend: 0x0, symName: '__ZNKSt3__110__function6__funcIZN4onnx11GetOpSchemaINS2_27DequantizeLinear_Onnx_ver23EEENS2_8OpSchemaEvE3$_0NS_9allocatorIS6_EEFvRNS2_16InferenceContextEEE11target_typeEv', symObjAddr: 0xA7AC, symBinAddr: 0xDE6EFC, symSize: 0xC }
  - { offset: 0x481EEF, size: 0x8, addend: 0x0, symName: '__ZNSt3__110__function6__funcIZN4onnx11GetOpSchemaINS2_25QuantizeLinear_Onnx_ver21EEENS2_8OpSchemaEvE3$_0NS_9allocatorIS6_EEFvRNS2_16InferenceContextEEED1Ev', symObjAddr: 0xA7B8, symBinAddr: 0xDE6F08, symSize: 0x4 }
  - { offset: 0x481F1A, size: 0x8, addend: 0x0, symName: '__ZNSt3__110__function6__funcIZN4onnx11GetOpSchemaINS2_25QuantizeLinear_Onnx_ver21EEENS2_8OpSchemaEvE3$_0NS_9allocatorIS6_EEFvRNS2_16InferenceContextEEED0Ev', symObjAddr: 0xA7BC, symBinAddr: 0xDE6F0C, symSize: 0x4 }
  - { offset: 0x481FCF, size: 0x8, addend: 0x0, symName: '__ZNKSt3__110__function6__funcIZN4onnx11GetOpSchemaINS2_25QuantizeLinear_Onnx_ver21EEENS2_8OpSchemaEvE3$_0NS_9allocatorIS6_EEFvRNS2_16InferenceContextEEE7__cloneEv', symObjAddr: 0xA7C0, symBinAddr: 0xDE6F10, symSize: 0x24 }
  - { offset: 0x482112, size: 0x8, addend: 0x0, symName: '__ZNKSt3__110__function6__funcIZN4onnx11GetOpSchemaINS2_25QuantizeLinear_Onnx_ver21EEENS2_8OpSchemaEvE3$_0NS_9allocatorIS6_EEFvRNS2_16InferenceContextEEE7__cloneEPNS0_6__baseISB_EE', symObjAddr: 0xA7E4, symBinAddr: 0xDE6F34, symSize: 0x10 }
  - { offset: 0x482146, size: 0x8, addend: 0x0, symName: '__ZNKSt3__110__function6__funcIZN4onnx11GetOpSchemaINS2_25QuantizeLinear_Onnx_ver21EEENS2_8OpSchemaEvE3$_0NS_9allocatorIS6_EEFvRNS2_16InferenceContextEEE7__cloneEPNS0_6__baseISB_EE', symObjAddr: 0xA7E4, symBinAddr: 0xDE6F34, symSize: 0x10 }
  - { offset: 0x482162, size: 0x8, addend: 0x0, symName: '__ZNKSt3__110__function6__funcIZN4onnx11GetOpSchemaINS2_25QuantizeLinear_Onnx_ver21EEENS2_8OpSchemaEvE3$_0NS_9allocatorIS6_EEFvRNS2_16InferenceContextEEE7__cloneEPNS0_6__baseISB_EE', symObjAddr: 0xA7E4, symBinAddr: 0xDE6F34, symSize: 0x10 }
  - { offset: 0x48217E, size: 0x8, addend: 0x0, symName: '__ZNSt3__110__function6__funcIZN4onnx11GetOpSchemaINS2_25QuantizeLinear_Onnx_ver21EEENS2_8OpSchemaEvE3$_0NS_9allocatorIS6_EEFvRNS2_16InferenceContextEEE7destroyEv', symObjAddr: 0xA7F4, symBinAddr: 0xDE6F44, symSize: 0x4 }
  - { offset: 0x4821CD, size: 0x8, addend: 0x0, symName: '__ZNSt3__110__function6__funcIZN4onnx11GetOpSchemaINS2_25QuantizeLinear_Onnx_ver21EEENS2_8OpSchemaEvE3$_0NS_9allocatorIS6_EEFvRNS2_16InferenceContextEEE18destroy_deallocateEv', symObjAddr: 0xA7F8, symBinAddr: 0xDE6F48, symSize: 0x4 }
  - { offset: 0x482200, size: 0x8, addend: 0x0, symName: '__ZNSt3__110__function6__funcIZN4onnx11GetOpSchemaINS2_25QuantizeLinear_Onnx_ver21EEENS2_8OpSchemaEvE3$_0NS_9allocatorIS6_EEFvRNS2_16InferenceContextEEE18destroy_deallocateEv', symObjAddr: 0xA7F8, symBinAddr: 0xDE6F48, symSize: 0x4 }
  - { offset: 0x482222, size: 0x8, addend: 0x0, symName: '__ZNSt3__110__function6__funcIZN4onnx11GetOpSchemaINS2_25QuantizeLinear_Onnx_ver21EEENS2_8OpSchemaEvE3$_0NS_9allocatorIS6_EEFvRNS2_16InferenceContextEEE18destroy_deallocateEv', symObjAddr: 0xA7F8, symBinAddr: 0xDE6F48, symSize: 0x4 }
  - { offset: 0x48224D, size: 0x8, addend: 0x0, symName: '__ZNSt3__110__function6__funcIZN4onnx11GetOpSchemaINS2_25QuantizeLinear_Onnx_ver21EEENS2_8OpSchemaEvE3$_0NS_9allocatorIS6_EEFvRNS2_16InferenceContextEEE18destroy_deallocateEv', symObjAddr: 0xA7F8, symBinAddr: 0xDE6F48, symSize: 0x4 }
  - { offset: 0x482273, size: 0x8, addend: 0x0, symName: '__ZNSt3__110__function6__funcIZN4onnx11GetOpSchemaINS2_25QuantizeLinear_Onnx_ver21EEENS2_8OpSchemaEvE3$_0NS_9allocatorIS6_EEFvRNS2_16InferenceContextEEE18destroy_deallocateEv', symObjAddr: 0xA7F8, symBinAddr: 0xDE6F48, symSize: 0x4 }
  - { offset: 0x48234F, size: 0x8, addend: 0x0, symName: '__ZNSt3__110__function6__funcIZN4onnx11GetOpSchemaINS2_25QuantizeLinear_Onnx_ver21EEENS2_8OpSchemaEvE3$_0NS_9allocatorIS6_EEFvRNS2_16InferenceContextEEEclESA_', symObjAddr: 0xA7FC, symBinAddr: 0xDE6F4C, symSize: 0x368 }
  - { offset: 0x482E37, size: 0x8, addend: 0x0, symName: '__ZNKSt3__110__function6__funcIZN4onnx11GetOpSchemaINS2_25QuantizeLinear_Onnx_ver21EEENS2_8OpSchemaEvE3$_0NS_9allocatorIS6_EEFvRNS2_16InferenceContextEEE6targetERKSt9type_info', symObjAddr: 0xAB64, symBinAddr: 0xDE72B4, symSize: 0x64 }
  - { offset: 0x482EEA, size: 0x8, addend: 0x0, symName: '__ZNKSt3__110__function6__funcIZN4onnx11GetOpSchemaINS2_25QuantizeLinear_Onnx_ver21EEENS2_8OpSchemaEvE3$_0NS_9allocatorIS6_EEFvRNS2_16InferenceContextEEE11target_typeEv', symObjAddr: 0xABC8, symBinAddr: 0xDE7318, symSize: 0xC }
  - { offset: 0x482F0D, size: 0x8, addend: 0x0, symName: '__ZNSt3__110__function6__funcIZN4onnx11GetOpSchemaINS2_27DequantizeLinear_Onnx_ver21EEENS2_8OpSchemaEvE3$_0NS_9allocatorIS6_EEFvRNS2_16InferenceContextEEED1Ev', symObjAddr: 0xABD4, symBinAddr: 0xDE7324, symSize: 0x4 }
  - { offset: 0x482F38, size: 0x8, addend: 0x0, symName: '__ZNSt3__110__function6__funcIZN4onnx11GetOpSchemaINS2_27DequantizeLinear_Onnx_ver21EEENS2_8OpSchemaEvE3$_0NS_9allocatorIS6_EEFvRNS2_16InferenceContextEEED0Ev', symObjAddr: 0xABD8, symBinAddr: 0xDE7328, symSize: 0x4 }
  - { offset: 0x482FED, size: 0x8, addend: 0x0, symName: '__ZNKSt3__110__function6__funcIZN4onnx11GetOpSchemaINS2_27DequantizeLinear_Onnx_ver21EEENS2_8OpSchemaEvE3$_0NS_9allocatorIS6_EEFvRNS2_16InferenceContextEEE7__cloneEv', symObjAddr: 0xABDC, symBinAddr: 0xDE732C, symSize: 0x24 }
  - { offset: 0x483130, size: 0x8, addend: 0x0, symName: '__ZNKSt3__110__function6__funcIZN4onnx11GetOpSchemaINS2_27DequantizeLinear_Onnx_ver21EEENS2_8OpSchemaEvE3$_0NS_9allocatorIS6_EEFvRNS2_16InferenceContextEEE7__cloneEPNS0_6__baseISB_EE', symObjAddr: 0xAC00, symBinAddr: 0xDE7350, symSize: 0x10 }
  - { offset: 0x483164, size: 0x8, addend: 0x0, symName: '__ZNKSt3__110__function6__funcIZN4onnx11GetOpSchemaINS2_27DequantizeLinear_Onnx_ver21EEENS2_8OpSchemaEvE3$_0NS_9allocatorIS6_EEFvRNS2_16InferenceContextEEE7__cloneEPNS0_6__baseISB_EE', symObjAddr: 0xAC00, symBinAddr: 0xDE7350, symSize: 0x10 }
  - { offset: 0x483180, size: 0x8, addend: 0x0, symName: '__ZNKSt3__110__function6__funcIZN4onnx11GetOpSchemaINS2_27DequantizeLinear_Onnx_ver21EEENS2_8OpSchemaEvE3$_0NS_9allocatorIS6_EEFvRNS2_16InferenceContextEEE7__cloneEPNS0_6__baseISB_EE', symObjAddr: 0xAC00, symBinAddr: 0xDE7350, symSize: 0x10 }
  - { offset: 0x48319C, size: 0x8, addend: 0x0, symName: '__ZNSt3__110__function6__funcIZN4onnx11GetOpSchemaINS2_27DequantizeLinear_Onnx_ver21EEENS2_8OpSchemaEvE3$_0NS_9allocatorIS6_EEFvRNS2_16InferenceContextEEE7destroyEv', symObjAddr: 0xAC10, symBinAddr: 0xDE7360, symSize: 0x4 }
  - { offset: 0x4831EB, size: 0x8, addend: 0x0, symName: '__ZNSt3__110__function6__funcIZN4onnx11GetOpSchemaINS2_27DequantizeLinear_Onnx_ver21EEENS2_8OpSchemaEvE3$_0NS_9allocatorIS6_EEFvRNS2_16InferenceContextEEE18destroy_deallocateEv', symObjAddr: 0xAC14, symBinAddr: 0xDE7364, symSize: 0x4 }
  - { offset: 0x48321E, size: 0x8, addend: 0x0, symName: '__ZNSt3__110__function6__funcIZN4onnx11GetOpSchemaINS2_27DequantizeLinear_Onnx_ver21EEENS2_8OpSchemaEvE3$_0NS_9allocatorIS6_EEFvRNS2_16InferenceContextEEE18destroy_deallocateEv', symObjAddr: 0xAC14, symBinAddr: 0xDE7364, symSize: 0x4 }
  - { offset: 0x483240, size: 0x8, addend: 0x0, symName: '__ZNSt3__110__function6__funcIZN4onnx11GetOpSchemaINS2_27DequantizeLinear_Onnx_ver21EEENS2_8OpSchemaEvE3$_0NS_9allocatorIS6_EEFvRNS2_16InferenceContextEEE18destroy_deallocateEv', symObjAddr: 0xAC14, symBinAddr: 0xDE7364, symSize: 0x4 }
  - { offset: 0x48326B, size: 0x8, addend: 0x0, symName: '__ZNSt3__110__function6__funcIZN4onnx11GetOpSchemaINS2_27DequantizeLinear_Onnx_ver21EEENS2_8OpSchemaEvE3$_0NS_9allocatorIS6_EEFvRNS2_16InferenceContextEEE18destroy_deallocateEv', symObjAddr: 0xAC14, symBinAddr: 0xDE7364, symSize: 0x4 }
  - { offset: 0x483291, size: 0x8, addend: 0x0, symName: '__ZNSt3__110__function6__funcIZN4onnx11GetOpSchemaINS2_27DequantizeLinear_Onnx_ver21EEENS2_8OpSchemaEvE3$_0NS_9allocatorIS6_EEFvRNS2_16InferenceContextEEE18destroy_deallocateEv', symObjAddr: 0xAC14, symBinAddr: 0xDE7364, symSize: 0x4 }
  - { offset: 0x483347, size: 0x8, addend: 0x0, symName: '__ZNSt3__110__function6__funcIZN4onnx11GetOpSchemaINS2_27DequantizeLinear_Onnx_ver21EEENS2_8OpSchemaEvE3$_0NS_9allocatorIS6_EEFvRNS2_16InferenceContextEEEclESA_', symObjAddr: 0xAC18, symBinAddr: 0xDE7368, symSize: 0xFC }
  - { offset: 0x48355A, size: 0x8, addend: 0x0, symName: '__ZNKSt3__110__function6__funcIZN4onnx11GetOpSchemaINS2_27DequantizeLinear_Onnx_ver21EEENS2_8OpSchemaEvE3$_0NS_9allocatorIS6_EEFvRNS2_16InferenceContextEEE6targetERKSt9type_info', symObjAddr: 0xAD14, symBinAddr: 0xDE7464, symSize: 0x64 }
  - { offset: 0x48360D, size: 0x8, addend: 0x0, symName: '__ZNKSt3__110__function6__funcIZN4onnx11GetOpSchemaINS2_27DequantizeLinear_Onnx_ver21EEENS2_8OpSchemaEvE3$_0NS_9allocatorIS6_EEFvRNS2_16InferenceContextEEE11target_typeEv', symObjAddr: 0xAD78, symBinAddr: 0xDE74C8, symSize: 0xC }
  - { offset: 0x483630, size: 0x8, addend: 0x0, symName: '__ZNSt3__110__function6__funcIZN4onnx11GetOpSchemaINS2_25QuantizeLinear_Onnx_ver19EEENS2_8OpSchemaEvE3$_0NS_9allocatorIS6_EEFvRNS2_16InferenceContextEEED1Ev', symObjAddr: 0xAD84, symBinAddr: 0xDE74D4, symSize: 0x4 }
  - { offset: 0x48365B, size: 0x8, addend: 0x0, symName: '__ZNSt3__110__function6__funcIZN4onnx11GetOpSchemaINS2_25QuantizeLinear_Onnx_ver19EEENS2_8OpSchemaEvE3$_0NS_9allocatorIS6_EEFvRNS2_16InferenceContextEEED0Ev', symObjAddr: 0xAD88, symBinAddr: 0xDE74D8, symSize: 0x4 }
  - { offset: 0x483710, size: 0x8, addend: 0x0, symName: '__ZNKSt3__110__function6__funcIZN4onnx11GetOpSchemaINS2_25QuantizeLinear_Onnx_ver19EEENS2_8OpSchemaEvE3$_0NS_9allocatorIS6_EEFvRNS2_16InferenceContextEEE7__cloneEv', symObjAddr: 0xAD8C, symBinAddr: 0xDE74DC, symSize: 0x24 }
  - { offset: 0x483853, size: 0x8, addend: 0x0, symName: '__ZNKSt3__110__function6__funcIZN4onnx11GetOpSchemaINS2_25QuantizeLinear_Onnx_ver19EEENS2_8OpSchemaEvE3$_0NS_9allocatorIS6_EEFvRNS2_16InferenceContextEEE7__cloneEPNS0_6__baseISB_EE', symObjAddr: 0xADB0, symBinAddr: 0xDE7500, symSize: 0x10 }
  - { offset: 0x483887, size: 0x8, addend: 0x0, symName: '__ZNKSt3__110__function6__funcIZN4onnx11GetOpSchemaINS2_25QuantizeLinear_Onnx_ver19EEENS2_8OpSchemaEvE3$_0NS_9allocatorIS6_EEFvRNS2_16InferenceContextEEE7__cloneEPNS0_6__baseISB_EE', symObjAddr: 0xADB0, symBinAddr: 0xDE7500, symSize: 0x10 }
  - { offset: 0x4838A3, size: 0x8, addend: 0x0, symName: '__ZNKSt3__110__function6__funcIZN4onnx11GetOpSchemaINS2_25QuantizeLinear_Onnx_ver19EEENS2_8OpSchemaEvE3$_0NS_9allocatorIS6_EEFvRNS2_16InferenceContextEEE7__cloneEPNS0_6__baseISB_EE', symObjAddr: 0xADB0, symBinAddr: 0xDE7500, symSize: 0x10 }
  - { offset: 0x4838BF, size: 0x8, addend: 0x0, symName: '__ZNSt3__110__function6__funcIZN4onnx11GetOpSchemaINS2_25QuantizeLinear_Onnx_ver19EEENS2_8OpSchemaEvE3$_0NS_9allocatorIS6_EEFvRNS2_16InferenceContextEEE7destroyEv', symObjAddr: 0xADC0, symBinAddr: 0xDE7510, symSize: 0x4 }
  - { offset: 0x48390E, size: 0x8, addend: 0x0, symName: '__ZNSt3__110__function6__funcIZN4onnx11GetOpSchemaINS2_25QuantizeLinear_Onnx_ver19EEENS2_8OpSchemaEvE3$_0NS_9allocatorIS6_EEFvRNS2_16InferenceContextEEE18destroy_deallocateEv', symObjAddr: 0xADC4, symBinAddr: 0xDE7514, symSize: 0x4 }
  - { offset: 0x483941, size: 0x8, addend: 0x0, symName: '__ZNSt3__110__function6__funcIZN4onnx11GetOpSchemaINS2_25QuantizeLinear_Onnx_ver19EEENS2_8OpSchemaEvE3$_0NS_9allocatorIS6_EEFvRNS2_16InferenceContextEEE18destroy_deallocateEv', symObjAddr: 0xADC4, symBinAddr: 0xDE7514, symSize: 0x4 }
  - { offset: 0x483963, size: 0x8, addend: 0x0, symName: '__ZNSt3__110__function6__funcIZN4onnx11GetOpSchemaINS2_25QuantizeLinear_Onnx_ver19EEENS2_8OpSchemaEvE3$_0NS_9allocatorIS6_EEFvRNS2_16InferenceContextEEE18destroy_deallocateEv', symObjAddr: 0xADC4, symBinAddr: 0xDE7514, symSize: 0x4 }
  - { offset: 0x48398E, size: 0x8, addend: 0x0, symName: '__ZNSt3__110__function6__funcIZN4onnx11GetOpSchemaINS2_25QuantizeLinear_Onnx_ver19EEENS2_8OpSchemaEvE3$_0NS_9allocatorIS6_EEFvRNS2_16InferenceContextEEE18destroy_deallocateEv', symObjAddr: 0xADC4, symBinAddr: 0xDE7514, symSize: 0x4 }
  - { offset: 0x4839B4, size: 0x8, addend: 0x0, symName: '__ZNSt3__110__function6__funcIZN4onnx11GetOpSchemaINS2_25QuantizeLinear_Onnx_ver19EEENS2_8OpSchemaEvE3$_0NS_9allocatorIS6_EEFvRNS2_16InferenceContextEEE18destroy_deallocateEv', symObjAddr: 0xADC4, symBinAddr: 0xDE7514, symSize: 0x4 }
  - { offset: 0x483A6A, size: 0x8, addend: 0x0, symName: '__ZNSt3__110__function6__funcIZN4onnx11GetOpSchemaINS2_25QuantizeLinear_Onnx_ver19EEENS2_8OpSchemaEvE3$_0NS_9allocatorIS6_EEFvRNS2_16InferenceContextEEEclESA_', symObjAddr: 0xADC8, symBinAddr: 0xDE7518, symSize: 0x140 }
  - { offset: 0x483CEF, size: 0x8, addend: 0x0, symName: '__ZNKSt3__110__function6__funcIZN4onnx11GetOpSchemaINS2_25QuantizeLinear_Onnx_ver19EEENS2_8OpSchemaEvE3$_0NS_9allocatorIS6_EEFvRNS2_16InferenceContextEEE6targetERKSt9type_info', symObjAddr: 0xAF08, symBinAddr: 0xDE7658, symSize: 0x64 }
  - { offset: 0x483DA2, size: 0x8, addend: 0x0, symName: '__ZNKSt3__110__function6__funcIZN4onnx11GetOpSchemaINS2_25QuantizeLinear_Onnx_ver19EEENS2_8OpSchemaEvE3$_0NS_9allocatorIS6_EEFvRNS2_16InferenceContextEEE11target_typeEv', symObjAddr: 0xAF6C, symBinAddr: 0xDE76BC, symSize: 0xC }
  - { offset: 0x483DC5, size: 0x8, addend: 0x0, symName: '__ZNSt3__110__function6__funcIZN4onnx11GetOpSchemaINS2_27DequantizeLinear_Onnx_ver19EEENS2_8OpSchemaEvE3$_0NS_9allocatorIS6_EEFvRNS2_16InferenceContextEEED1Ev', symObjAddr: 0xAF78, symBinAddr: 0xDE76C8, symSize: 0x4 }
  - { offset: 0x483DF0, size: 0x8, addend: 0x0, symName: '__ZNSt3__110__function6__funcIZN4onnx11GetOpSchemaINS2_27DequantizeLinear_Onnx_ver19EEENS2_8OpSchemaEvE3$_0NS_9allocatorIS6_EEFvRNS2_16InferenceContextEEED0Ev', symObjAddr: 0xAF7C, symBinAddr: 0xDE76CC, symSize: 0x4 }
  - { offset: 0x483EA5, size: 0x8, addend: 0x0, symName: '__ZNKSt3__110__function6__funcIZN4onnx11GetOpSchemaINS2_27DequantizeLinear_Onnx_ver19EEENS2_8OpSchemaEvE3$_0NS_9allocatorIS6_EEFvRNS2_16InferenceContextEEE7__cloneEv', symObjAddr: 0xAF80, symBinAddr: 0xDE76D0, symSize: 0x24 }
  - { offset: 0x483FE8, size: 0x8, addend: 0x0, symName: '__ZNKSt3__110__function6__funcIZN4onnx11GetOpSchemaINS2_27DequantizeLinear_Onnx_ver19EEENS2_8OpSchemaEvE3$_0NS_9allocatorIS6_EEFvRNS2_16InferenceContextEEE7__cloneEPNS0_6__baseISB_EE', symObjAddr: 0xAFA4, symBinAddr: 0xDE76F4, symSize: 0x10 }
  - { offset: 0x48401C, size: 0x8, addend: 0x0, symName: '__ZNKSt3__110__function6__funcIZN4onnx11GetOpSchemaINS2_27DequantizeLinear_Onnx_ver19EEENS2_8OpSchemaEvE3$_0NS_9allocatorIS6_EEFvRNS2_16InferenceContextEEE7__cloneEPNS0_6__baseISB_EE', symObjAddr: 0xAFA4, symBinAddr: 0xDE76F4, symSize: 0x10 }
  - { offset: 0x484038, size: 0x8, addend: 0x0, symName: '__ZNKSt3__110__function6__funcIZN4onnx11GetOpSchemaINS2_27DequantizeLinear_Onnx_ver19EEENS2_8OpSchemaEvE3$_0NS_9allocatorIS6_EEFvRNS2_16InferenceContextEEE7__cloneEPNS0_6__baseISB_EE', symObjAddr: 0xAFA4, symBinAddr: 0xDE76F4, symSize: 0x10 }
  - { offset: 0x484054, size: 0x8, addend: 0x0, symName: '__ZNSt3__110__function6__funcIZN4onnx11GetOpSchemaINS2_27DequantizeLinear_Onnx_ver19EEENS2_8OpSchemaEvE3$_0NS_9allocatorIS6_EEFvRNS2_16InferenceContextEEE7destroyEv', symObjAddr: 0xAFB4, symBinAddr: 0xDE7704, symSize: 0x4 }
  - { offset: 0x4840A3, size: 0x8, addend: 0x0, symName: '__ZNSt3__110__function6__funcIZN4onnx11GetOpSchemaINS2_27DequantizeLinear_Onnx_ver19EEENS2_8OpSchemaEvE3$_0NS_9allocatorIS6_EEFvRNS2_16InferenceContextEEE18destroy_deallocateEv', symObjAddr: 0xAFB8, symBinAddr: 0xDE7708, symSize: 0x4 }
  - { offset: 0x4840D6, size: 0x8, addend: 0x0, symName: '__ZNSt3__110__function6__funcIZN4onnx11GetOpSchemaINS2_27DequantizeLinear_Onnx_ver19EEENS2_8OpSchemaEvE3$_0NS_9allocatorIS6_EEFvRNS2_16InferenceContextEEE18destroy_deallocateEv', symObjAddr: 0xAFB8, symBinAddr: 0xDE7708, symSize: 0x4 }
  - { offset: 0x4840F8, size: 0x8, addend: 0x0, symName: '__ZNSt3__110__function6__funcIZN4onnx11GetOpSchemaINS2_27DequantizeLinear_Onnx_ver19EEENS2_8OpSchemaEvE3$_0NS_9allocatorIS6_EEFvRNS2_16InferenceContextEEE18destroy_deallocateEv', symObjAddr: 0xAFB8, symBinAddr: 0xDE7708, symSize: 0x4 }
  - { offset: 0x484123, size: 0x8, addend: 0x0, symName: '__ZNSt3__110__function6__funcIZN4onnx11GetOpSchemaINS2_27DequantizeLinear_Onnx_ver19EEENS2_8OpSchemaEvE3$_0NS_9allocatorIS6_EEFvRNS2_16InferenceContextEEE18destroy_deallocateEv', symObjAddr: 0xAFB8, symBinAddr: 0xDE7708, symSize: 0x4 }
  - { offset: 0x484149, size: 0x8, addend: 0x0, symName: '__ZNSt3__110__function6__funcIZN4onnx11GetOpSchemaINS2_27DequantizeLinear_Onnx_ver19EEENS2_8OpSchemaEvE3$_0NS_9allocatorIS6_EEFvRNS2_16InferenceContextEEE18destroy_deallocateEv', symObjAddr: 0xAFB8, symBinAddr: 0xDE7708, symSize: 0x4 }
  - { offset: 0x4841FF, size: 0x8, addend: 0x0, symName: '__ZNSt3__110__function6__funcIZN4onnx11GetOpSchemaINS2_27DequantizeLinear_Onnx_ver19EEENS2_8OpSchemaEvE3$_0NS_9allocatorIS6_EEFvRNS2_16InferenceContextEEEclESA_', symObjAddr: 0xAFBC, symBinAddr: 0xDE770C, symSize: 0xFC }
  - { offset: 0x484412, size: 0x8, addend: 0x0, symName: '__ZNKSt3__110__function6__funcIZN4onnx11GetOpSchemaINS2_27DequantizeLinear_Onnx_ver19EEENS2_8OpSchemaEvE3$_0NS_9allocatorIS6_EEFvRNS2_16InferenceContextEEE6targetERKSt9type_info', symObjAddr: 0xB0B8, symBinAddr: 0xDE7808, symSize: 0x64 }
  - { offset: 0x4844C5, size: 0x8, addend: 0x0, symName: '__ZNKSt3__110__function6__funcIZN4onnx11GetOpSchemaINS2_27DequantizeLinear_Onnx_ver19EEENS2_8OpSchemaEvE3$_0NS_9allocatorIS6_EEFvRNS2_16InferenceContextEEE11target_typeEv', symObjAddr: 0xB11C, symBinAddr: 0xDE786C, symSize: 0xC }
  - { offset: 0x4844E8, size: 0x8, addend: 0x0, symName: '__ZNSt3__110__function6__funcIZN4onnx11GetOpSchemaINS2_25QuantizeLinear_Onnx_ver13EEENS2_8OpSchemaEvE3$_0NS_9allocatorIS6_EEFvRNS2_16InferenceContextEEED1Ev', symObjAddr: 0xB128, symBinAddr: 0xDE7878, symSize: 0x4 }
  - { offset: 0x484513, size: 0x8, addend: 0x0, symName: '__ZNSt3__110__function6__funcIZN4onnx11GetOpSchemaINS2_25QuantizeLinear_Onnx_ver13EEENS2_8OpSchemaEvE3$_0NS_9allocatorIS6_EEFvRNS2_16InferenceContextEEED0Ev', symObjAddr: 0xB12C, symBinAddr: 0xDE787C, symSize: 0x4 }
  - { offset: 0x4845C8, size: 0x8, addend: 0x0, symName: '__ZNKSt3__110__function6__funcIZN4onnx11GetOpSchemaINS2_25QuantizeLinear_Onnx_ver13EEENS2_8OpSchemaEvE3$_0NS_9allocatorIS6_EEFvRNS2_16InferenceContextEEE7__cloneEv', symObjAddr: 0xB130, symBinAddr: 0xDE7880, symSize: 0x24 }
  - { offset: 0x48470B, size: 0x8, addend: 0x0, symName: '__ZNKSt3__110__function6__funcIZN4onnx11GetOpSchemaINS2_25QuantizeLinear_Onnx_ver13EEENS2_8OpSchemaEvE3$_0NS_9allocatorIS6_EEFvRNS2_16InferenceContextEEE7__cloneEPNS0_6__baseISB_EE', symObjAddr: 0xB154, symBinAddr: 0xDE78A4, symSize: 0x10 }
  - { offset: 0x48473F, size: 0x8, addend: 0x0, symName: '__ZNKSt3__110__function6__funcIZN4onnx11GetOpSchemaINS2_25QuantizeLinear_Onnx_ver13EEENS2_8OpSchemaEvE3$_0NS_9allocatorIS6_EEFvRNS2_16InferenceContextEEE7__cloneEPNS0_6__baseISB_EE', symObjAddr: 0xB154, symBinAddr: 0xDE78A4, symSize: 0x10 }
  - { offset: 0x48475B, size: 0x8, addend: 0x0, symName: '__ZNKSt3__110__function6__funcIZN4onnx11GetOpSchemaINS2_25QuantizeLinear_Onnx_ver13EEENS2_8OpSchemaEvE3$_0NS_9allocatorIS6_EEFvRNS2_16InferenceContextEEE7__cloneEPNS0_6__baseISB_EE', symObjAddr: 0xB154, symBinAddr: 0xDE78A4, symSize: 0x10 }
  - { offset: 0x484777, size: 0x8, addend: 0x0, symName: '__ZNSt3__110__function6__funcIZN4onnx11GetOpSchemaINS2_25QuantizeLinear_Onnx_ver13EEENS2_8OpSchemaEvE3$_0NS_9allocatorIS6_EEFvRNS2_16InferenceContextEEE7destroyEv', symObjAddr: 0xB164, symBinAddr: 0xDE78B4, symSize: 0x4 }
  - { offset: 0x4847C6, size: 0x8, addend: 0x0, symName: '__ZNSt3__110__function6__funcIZN4onnx11GetOpSchemaINS2_25QuantizeLinear_Onnx_ver13EEENS2_8OpSchemaEvE3$_0NS_9allocatorIS6_EEFvRNS2_16InferenceContextEEE18destroy_deallocateEv', symObjAddr: 0xB168, symBinAddr: 0xDE78B8, symSize: 0x4 }
  - { offset: 0x4847F9, size: 0x8, addend: 0x0, symName: '__ZNSt3__110__function6__funcIZN4onnx11GetOpSchemaINS2_25QuantizeLinear_Onnx_ver13EEENS2_8OpSchemaEvE3$_0NS_9allocatorIS6_EEFvRNS2_16InferenceContextEEE18destroy_deallocateEv', symObjAddr: 0xB168, symBinAddr: 0xDE78B8, symSize: 0x4 }
  - { offset: 0x48481B, size: 0x8, addend: 0x0, symName: '__ZNSt3__110__function6__funcIZN4onnx11GetOpSchemaINS2_25QuantizeLinear_Onnx_ver13EEENS2_8OpSchemaEvE3$_0NS_9allocatorIS6_EEFvRNS2_16InferenceContextEEE18destroy_deallocateEv', symObjAddr: 0xB168, symBinAddr: 0xDE78B8, symSize: 0x4 }
  - { offset: 0x484846, size: 0x8, addend: 0x0, symName: '__ZNSt3__110__function6__funcIZN4onnx11GetOpSchemaINS2_25QuantizeLinear_Onnx_ver13EEENS2_8OpSchemaEvE3$_0NS_9allocatorIS6_EEFvRNS2_16InferenceContextEEE18destroy_deallocateEv', symObjAddr: 0xB168, symBinAddr: 0xDE78B8, symSize: 0x4 }
  - { offset: 0x48486C, size: 0x8, addend: 0x0, symName: '__ZNSt3__110__function6__funcIZN4onnx11GetOpSchemaINS2_25QuantizeLinear_Onnx_ver13EEENS2_8OpSchemaEvE3$_0NS_9allocatorIS6_EEFvRNS2_16InferenceContextEEE18destroy_deallocateEv', symObjAddr: 0xB168, symBinAddr: 0xDE78B8, symSize: 0x4 }
  - { offset: 0x484922, size: 0x8, addend: 0x0, symName: '__ZNSt3__110__function6__funcIZN4onnx11GetOpSchemaINS2_25QuantizeLinear_Onnx_ver13EEENS2_8OpSchemaEvE3$_0NS_9allocatorIS6_EEFvRNS2_16InferenceContextEEEclESA_', symObjAddr: 0xB16C, symBinAddr: 0xDE78BC, symSize: 0x140 }
  - { offset: 0x484BA7, size: 0x8, addend: 0x0, symName: '__ZNKSt3__110__function6__funcIZN4onnx11GetOpSchemaINS2_25QuantizeLinear_Onnx_ver13EEENS2_8OpSchemaEvE3$_0NS_9allocatorIS6_EEFvRNS2_16InferenceContextEEE6targetERKSt9type_info', symObjAddr: 0xB2AC, symBinAddr: 0xDE79FC, symSize: 0x64 }
  - { offset: 0x484C5A, size: 0x8, addend: 0x0, symName: '__ZNKSt3__110__function6__funcIZN4onnx11GetOpSchemaINS2_25QuantizeLinear_Onnx_ver13EEENS2_8OpSchemaEvE3$_0NS_9allocatorIS6_EEFvRNS2_16InferenceContextEEE11target_typeEv', symObjAddr: 0xB310, symBinAddr: 0xDE7A60, symSize: 0xC }
  - { offset: 0x484C7D, size: 0x8, addend: 0x0, symName: '__ZNSt3__110__function6__funcIZN4onnx11GetOpSchemaINS2_27DequantizeLinear_Onnx_ver13EEENS2_8OpSchemaEvE3$_0NS_9allocatorIS6_EEFvRNS2_16InferenceContextEEED1Ev', symObjAddr: 0xB31C, symBinAddr: 0xDE7A6C, symSize: 0x4 }
  - { offset: 0x484CA8, size: 0x8, addend: 0x0, symName: '__ZNSt3__110__function6__funcIZN4onnx11GetOpSchemaINS2_27DequantizeLinear_Onnx_ver13EEENS2_8OpSchemaEvE3$_0NS_9allocatorIS6_EEFvRNS2_16InferenceContextEEED0Ev', symObjAddr: 0xB320, symBinAddr: 0xDE7A70, symSize: 0x4 }
  - { offset: 0x484D5D, size: 0x8, addend: 0x0, symName: '__ZNKSt3__110__function6__funcIZN4onnx11GetOpSchemaINS2_27DequantizeLinear_Onnx_ver13EEENS2_8OpSchemaEvE3$_0NS_9allocatorIS6_EEFvRNS2_16InferenceContextEEE7__cloneEv', symObjAddr: 0xB324, symBinAddr: 0xDE7A74, symSize: 0x24 }
  - { offset: 0x484EA0, size: 0x8, addend: 0x0, symName: '__ZNKSt3__110__function6__funcIZN4onnx11GetOpSchemaINS2_27DequantizeLinear_Onnx_ver13EEENS2_8OpSchemaEvE3$_0NS_9allocatorIS6_EEFvRNS2_16InferenceContextEEE7__cloneEPNS0_6__baseISB_EE', symObjAddr: 0xB348, symBinAddr: 0xDE7A98, symSize: 0x10 }
  - { offset: 0x484ED4, size: 0x8, addend: 0x0, symName: '__ZNKSt3__110__function6__funcIZN4onnx11GetOpSchemaINS2_27DequantizeLinear_Onnx_ver13EEENS2_8OpSchemaEvE3$_0NS_9allocatorIS6_EEFvRNS2_16InferenceContextEEE7__cloneEPNS0_6__baseISB_EE', symObjAddr: 0xB348, symBinAddr: 0xDE7A98, symSize: 0x10 }
  - { offset: 0x484EF0, size: 0x8, addend: 0x0, symName: '__ZNKSt3__110__function6__funcIZN4onnx11GetOpSchemaINS2_27DequantizeLinear_Onnx_ver13EEENS2_8OpSchemaEvE3$_0NS_9allocatorIS6_EEFvRNS2_16InferenceContextEEE7__cloneEPNS0_6__baseISB_EE', symObjAddr: 0xB348, symBinAddr: 0xDE7A98, symSize: 0x10 }
  - { offset: 0x484F0C, size: 0x8, addend: 0x0, symName: '__ZNSt3__110__function6__funcIZN4onnx11GetOpSchemaINS2_27DequantizeLinear_Onnx_ver13EEENS2_8OpSchemaEvE3$_0NS_9allocatorIS6_EEFvRNS2_16InferenceContextEEE7destroyEv', symObjAddr: 0xB358, symBinAddr: 0xDE7AA8, symSize: 0x4 }
  - { offset: 0x484F5B, size: 0x8, addend: 0x0, symName: '__ZNSt3__110__function6__funcIZN4onnx11GetOpSchemaINS2_27DequantizeLinear_Onnx_ver13EEENS2_8OpSchemaEvE3$_0NS_9allocatorIS6_EEFvRNS2_16InferenceContextEEE18destroy_deallocateEv', symObjAddr: 0xB35C, symBinAddr: 0xDE7AAC, symSize: 0x4 }
  - { offset: 0x484F8E, size: 0x8, addend: 0x0, symName: '__ZNSt3__110__function6__funcIZN4onnx11GetOpSchemaINS2_27DequantizeLinear_Onnx_ver13EEENS2_8OpSchemaEvE3$_0NS_9allocatorIS6_EEFvRNS2_16InferenceContextEEE18destroy_deallocateEv', symObjAddr: 0xB35C, symBinAddr: 0xDE7AAC, symSize: 0x4 }
  - { offset: 0x484FB0, size: 0x8, addend: 0x0, symName: '__ZNSt3__110__function6__funcIZN4onnx11GetOpSchemaINS2_27DequantizeLinear_Onnx_ver13EEENS2_8OpSchemaEvE3$_0NS_9allocatorIS6_EEFvRNS2_16InferenceContextEEE18destroy_deallocateEv', symObjAddr: 0xB35C, symBinAddr: 0xDE7AAC, symSize: 0x4 }
  - { offset: 0x484FDB, size: 0x8, addend: 0x0, symName: '__ZNSt3__110__function6__funcIZN4onnx11GetOpSchemaINS2_27DequantizeLinear_Onnx_ver13EEENS2_8OpSchemaEvE3$_0NS_9allocatorIS6_EEFvRNS2_16InferenceContextEEE18destroy_deallocateEv', symObjAddr: 0xB35C, symBinAddr: 0xDE7AAC, symSize: 0x4 }
  - { offset: 0x485001, size: 0x8, addend: 0x0, symName: '__ZNSt3__110__function6__funcIZN4onnx11GetOpSchemaINS2_27DequantizeLinear_Onnx_ver13EEENS2_8OpSchemaEvE3$_0NS_9allocatorIS6_EEFvRNS2_16InferenceContextEEE18destroy_deallocateEv', symObjAddr: 0xB35C, symBinAddr: 0xDE7AAC, symSize: 0x4 }
  - { offset: 0x48510B, size: 0x8, addend: 0x0, symName: '__ZNSt3__110__function6__funcIZN4onnx11GetOpSchemaINS2_27DequantizeLinear_Onnx_ver13EEENS2_8OpSchemaEvE3$_0NS_9allocatorIS6_EEFvRNS2_16InferenceContextEEEclESA_', symObjAddr: 0xB360, symBinAddr: 0xDE7AB0, symSize: 0x158 }
  - { offset: 0x48547F, size: 0x8, addend: 0x0, symName: '__ZNKSt3__110__function6__funcIZN4onnx11GetOpSchemaINS2_27DequantizeLinear_Onnx_ver13EEENS2_8OpSchemaEvE3$_0NS_9allocatorIS6_EEFvRNS2_16InferenceContextEEE6targetERKSt9type_info', symObjAddr: 0xB4B8, symBinAddr: 0xDE7C08, symSize: 0x64 }
  - { offset: 0x485532, size: 0x8, addend: 0x0, symName: '__ZNKSt3__110__function6__funcIZN4onnx11GetOpSchemaINS2_27DequantizeLinear_Onnx_ver13EEENS2_8OpSchemaEvE3$_0NS_9allocatorIS6_EEFvRNS2_16InferenceContextEEE11target_typeEv', symObjAddr: 0xB51C, symBinAddr: 0xDE7C6C, symSize: 0xC }
  - { offset: 0x485555, size: 0x8, addend: 0x0, symName: '__ZNSt3__110__function6__funcIZN4onnx11GetOpSchemaINS2_25QuantizeLinear_Onnx_ver10EEENS2_8OpSchemaEvE3$_0NS_9allocatorIS6_EEFvRNS2_16InferenceContextEEED1Ev', symObjAddr: 0xB528, symBinAddr: 0xDE7C78, symSize: 0x4 }
  - { offset: 0x485580, size: 0x8, addend: 0x0, symName: '__ZNSt3__110__function6__funcIZN4onnx11GetOpSchemaINS2_25QuantizeLinear_Onnx_ver10EEENS2_8OpSchemaEvE3$_0NS_9allocatorIS6_EEFvRNS2_16InferenceContextEEED0Ev', symObjAddr: 0xB52C, symBinAddr: 0xDE7C7C, symSize: 0x4 }
  - { offset: 0x485635, size: 0x8, addend: 0x0, symName: '__ZNKSt3__110__function6__funcIZN4onnx11GetOpSchemaINS2_25QuantizeLinear_Onnx_ver10EEENS2_8OpSchemaEvE3$_0NS_9allocatorIS6_EEFvRNS2_16InferenceContextEEE7__cloneEv', symObjAddr: 0xB530, symBinAddr: 0xDE7C80, symSize: 0x24 }
  - { offset: 0x485778, size: 0x8, addend: 0x0, symName: '__ZNKSt3__110__function6__funcIZN4onnx11GetOpSchemaINS2_25QuantizeLinear_Onnx_ver10EEENS2_8OpSchemaEvE3$_0NS_9allocatorIS6_EEFvRNS2_16InferenceContextEEE7__cloneEPNS0_6__baseISB_EE', symObjAddr: 0xB554, symBinAddr: 0xDE7CA4, symSize: 0x10 }
  - { offset: 0x4857AC, size: 0x8, addend: 0x0, symName: '__ZNKSt3__110__function6__funcIZN4onnx11GetOpSchemaINS2_25QuantizeLinear_Onnx_ver10EEENS2_8OpSchemaEvE3$_0NS_9allocatorIS6_EEFvRNS2_16InferenceContextEEE7__cloneEPNS0_6__baseISB_EE', symObjAddr: 0xB554, symBinAddr: 0xDE7CA4, symSize: 0x10 }
  - { offset: 0x4857C8, size: 0x8, addend: 0x0, symName: '__ZNKSt3__110__function6__funcIZN4onnx11GetOpSchemaINS2_25QuantizeLinear_Onnx_ver10EEENS2_8OpSchemaEvE3$_0NS_9allocatorIS6_EEFvRNS2_16InferenceContextEEE7__cloneEPNS0_6__baseISB_EE', symObjAddr: 0xB554, symBinAddr: 0xDE7CA4, symSize: 0x10 }
  - { offset: 0x4857E4, size: 0x8, addend: 0x0, symName: '__ZNSt3__110__function6__funcIZN4onnx11GetOpSchemaINS2_25QuantizeLinear_Onnx_ver10EEENS2_8OpSchemaEvE3$_0NS_9allocatorIS6_EEFvRNS2_16InferenceContextEEE7destroyEv', symObjAddr: 0xB564, symBinAddr: 0xDE7CB4, symSize: 0x4 }
  - { offset: 0x485833, size: 0x8, addend: 0x0, symName: '__ZNSt3__110__function6__funcIZN4onnx11GetOpSchemaINS2_25QuantizeLinear_Onnx_ver10EEENS2_8OpSchemaEvE3$_0NS_9allocatorIS6_EEFvRNS2_16InferenceContextEEE18destroy_deallocateEv', symObjAddr: 0xB568, symBinAddr: 0xDE7CB8, symSize: 0x4 }
  - { offset: 0x485866, size: 0x8, addend: 0x0, symName: '__ZNSt3__110__function6__funcIZN4onnx11GetOpSchemaINS2_25QuantizeLinear_Onnx_ver10EEENS2_8OpSchemaEvE3$_0NS_9allocatorIS6_EEFvRNS2_16InferenceContextEEE18destroy_deallocateEv', symObjAddr: 0xB568, symBinAddr: 0xDE7CB8, symSize: 0x4 }
  - { offset: 0x485888, size: 0x8, addend: 0x0, symName: '__ZNSt3__110__function6__funcIZN4onnx11GetOpSchemaINS2_25QuantizeLinear_Onnx_ver10EEENS2_8OpSchemaEvE3$_0NS_9allocatorIS6_EEFvRNS2_16InferenceContextEEE18destroy_deallocateEv', symObjAddr: 0xB568, symBinAddr: 0xDE7CB8, symSize: 0x4 }
  - { offset: 0x4858B3, size: 0x8, addend: 0x0, symName: '__ZNSt3__110__function6__funcIZN4onnx11GetOpSchemaINS2_25QuantizeLinear_Onnx_ver10EEENS2_8OpSchemaEvE3$_0NS_9allocatorIS6_EEFvRNS2_16InferenceContextEEE18destroy_deallocateEv', symObjAddr: 0xB568, symBinAddr: 0xDE7CB8, symSize: 0x4 }
  - { offset: 0x4858D9, size: 0x8, addend: 0x0, symName: '__ZNSt3__110__function6__funcIZN4onnx11GetOpSchemaINS2_25QuantizeLinear_Onnx_ver10EEENS2_8OpSchemaEvE3$_0NS_9allocatorIS6_EEFvRNS2_16InferenceContextEEE18destroy_deallocateEv', symObjAddr: 0xB568, symBinAddr: 0xDE7CB8, symSize: 0x4 }
  - { offset: 0x48598F, size: 0x8, addend: 0x0, symName: '__ZNSt3__110__function6__funcIZN4onnx11GetOpSchemaINS2_25QuantizeLinear_Onnx_ver10EEENS2_8OpSchemaEvE3$_0NS_9allocatorIS6_EEFvRNS2_16InferenceContextEEEclESA_', symObjAddr: 0xB56C, symBinAddr: 0xDE7CBC, symSize: 0x140 }
  - { offset: 0x485C14, size: 0x8, addend: 0x0, symName: '__ZNKSt3__110__function6__funcIZN4onnx11GetOpSchemaINS2_25QuantizeLinear_Onnx_ver10EEENS2_8OpSchemaEvE3$_0NS_9allocatorIS6_EEFvRNS2_16InferenceContextEEE6targetERKSt9type_info', symObjAddr: 0xB6AC, symBinAddr: 0xDE7DFC, symSize: 0x64 }
  - { offset: 0x485CC7, size: 0x8, addend: 0x0, symName: '__ZNKSt3__110__function6__funcIZN4onnx11GetOpSchemaINS2_25QuantizeLinear_Onnx_ver10EEENS2_8OpSchemaEvE3$_0NS_9allocatorIS6_EEFvRNS2_16InferenceContextEEE11target_typeEv', symObjAddr: 0xB710, symBinAddr: 0xDE7E60, symSize: 0xC }
  - { offset: 0x485CEA, size: 0x8, addend: 0x0, symName: '__ZNSt3__110__function6__funcIZN4onnx11GetOpSchemaINS2_27DequantizeLinear_Onnx_ver10EEENS2_8OpSchemaEvE3$_0NS_9allocatorIS6_EEFvRNS2_16InferenceContextEEED1Ev', symObjAddr: 0xB71C, symBinAddr: 0xDE7E6C, symSize: 0x4 }
  - { offset: 0x485D15, size: 0x8, addend: 0x0, symName: '__ZNSt3__110__function6__funcIZN4onnx11GetOpSchemaINS2_27DequantizeLinear_Onnx_ver10EEENS2_8OpSchemaEvE3$_0NS_9allocatorIS6_EEFvRNS2_16InferenceContextEEED0Ev', symObjAddr: 0xB720, symBinAddr: 0xDE7E70, symSize: 0x4 }
  - { offset: 0x485DCA, size: 0x8, addend: 0x0, symName: '__ZNKSt3__110__function6__funcIZN4onnx11GetOpSchemaINS2_27DequantizeLinear_Onnx_ver10EEENS2_8OpSchemaEvE3$_0NS_9allocatorIS6_EEFvRNS2_16InferenceContextEEE7__cloneEv', symObjAddr: 0xB724, symBinAddr: 0xDE7E74, symSize: 0x24 }
  - { offset: 0x485F0D, size: 0x8, addend: 0x0, symName: '__ZNKSt3__110__function6__funcIZN4onnx11GetOpSchemaINS2_27DequantizeLinear_Onnx_ver10EEENS2_8OpSchemaEvE3$_0NS_9allocatorIS6_EEFvRNS2_16InferenceContextEEE7__cloneEPNS0_6__baseISB_EE', symObjAddr: 0xB748, symBinAddr: 0xDE7E98, symSize: 0x10 }
  - { offset: 0x485F41, size: 0x8, addend: 0x0, symName: '__ZNKSt3__110__function6__funcIZN4onnx11GetOpSchemaINS2_27DequantizeLinear_Onnx_ver10EEENS2_8OpSchemaEvE3$_0NS_9allocatorIS6_EEFvRNS2_16InferenceContextEEE7__cloneEPNS0_6__baseISB_EE', symObjAddr: 0xB748, symBinAddr: 0xDE7E98, symSize: 0x10 }
  - { offset: 0x485F5D, size: 0x8, addend: 0x0, symName: '__ZNKSt3__110__function6__funcIZN4onnx11GetOpSchemaINS2_27DequantizeLinear_Onnx_ver10EEENS2_8OpSchemaEvE3$_0NS_9allocatorIS6_EEFvRNS2_16InferenceContextEEE7__cloneEPNS0_6__baseISB_EE', symObjAddr: 0xB748, symBinAddr: 0xDE7E98, symSize: 0x10 }
  - { offset: 0x485F79, size: 0x8, addend: 0x0, symName: '__ZNSt3__110__function6__funcIZN4onnx11GetOpSchemaINS2_27DequantizeLinear_Onnx_ver10EEENS2_8OpSchemaEvE3$_0NS_9allocatorIS6_EEFvRNS2_16InferenceContextEEE7destroyEv', symObjAddr: 0xB758, symBinAddr: 0xDE7EA8, symSize: 0x4 }
  - { offset: 0x485FC8, size: 0x8, addend: 0x0, symName: '__ZNSt3__110__function6__funcIZN4onnx11GetOpSchemaINS2_27DequantizeLinear_Onnx_ver10EEENS2_8OpSchemaEvE3$_0NS_9allocatorIS6_EEFvRNS2_16InferenceContextEEE18destroy_deallocateEv', symObjAddr: 0xB75C, symBinAddr: 0xDE7EAC, symSize: 0x4 }
  - { offset: 0x485FFB, size: 0x8, addend: 0x0, symName: '__ZNSt3__110__function6__funcIZN4onnx11GetOpSchemaINS2_27DequantizeLinear_Onnx_ver10EEENS2_8OpSchemaEvE3$_0NS_9allocatorIS6_EEFvRNS2_16InferenceContextEEE18destroy_deallocateEv', symObjAddr: 0xB75C, symBinAddr: 0xDE7EAC, symSize: 0x4 }
  - { offset: 0x48601D, size: 0x8, addend: 0x0, symName: '__ZNSt3__110__function6__funcIZN4onnx11GetOpSchemaINS2_27DequantizeLinear_Onnx_ver10EEENS2_8OpSchemaEvE3$_0NS_9allocatorIS6_EEFvRNS2_16InferenceContextEEE18destroy_deallocateEv', symObjAddr: 0xB75C, symBinAddr: 0xDE7EAC, symSize: 0x4 }
  - { offset: 0x486048, size: 0x8, addend: 0x0, symName: '__ZNSt3__110__function6__funcIZN4onnx11GetOpSchemaINS2_27DequantizeLinear_Onnx_ver10EEENS2_8OpSchemaEvE3$_0NS_9allocatorIS6_EEFvRNS2_16InferenceContextEEE18destroy_deallocateEv', symObjAddr: 0xB75C, symBinAddr: 0xDE7EAC, symSize: 0x4 }
  - { offset: 0x48606E, size: 0x8, addend: 0x0, symName: '__ZNSt3__110__function6__funcIZN4onnx11GetOpSchemaINS2_27DequantizeLinear_Onnx_ver10EEENS2_8OpSchemaEvE3$_0NS_9allocatorIS6_EEFvRNS2_16InferenceContextEEE18destroy_deallocateEv', symObjAddr: 0xB75C, symBinAddr: 0xDE7EAC, symSize: 0x4 }
  - { offset: 0x486130, size: 0x8, addend: 0x0, symName: '__ZNSt3__110__function6__funcIZN4onnx11GetOpSchemaINS2_27DequantizeLinear_Onnx_ver10EEENS2_8OpSchemaEvE3$_0NS_9allocatorIS6_EEFvRNS2_16InferenceContextEEEclESA_', symObjAddr: 0xB760, symBinAddr: 0xDE7EB0, symSize: 0x158 }
  - { offset: 0x4864A4, size: 0x8, addend: 0x0, symName: '__ZNKSt3__110__function6__funcIZN4onnx11GetOpSchemaINS2_27DequantizeLinear_Onnx_ver10EEENS2_8OpSchemaEvE3$_0NS_9allocatorIS6_EEFvRNS2_16InferenceContextEEE6targetERKSt9type_info', symObjAddr: 0xB8B8, symBinAddr: 0xDE8008, symSize: 0x64 }
  - { offset: 0x486557, size: 0x8, addend: 0x0, symName: '__ZNKSt3__110__function6__funcIZN4onnx11GetOpSchemaINS2_27DequantizeLinear_Onnx_ver10EEENS2_8OpSchemaEvE3$_0NS_9allocatorIS6_EEFvRNS2_16InferenceContextEEE11target_typeEv', symObjAddr: 0xB91C, symBinAddr: 0xDE806C, symSize: 0xC }
  - { offset: 0x494115, size: 0x8, addend: 0x0, symName: __ZN4onnx11GetOpSchemaINS_20ReduceMax_Onnx_ver12EEENS_8OpSchemaEv, symObjAddr: 0x0, symBinAddr: 0xDEA538, symSize: 0x1F0 }
  - { offset: 0x494ACB, size: 0x8, addend: 0x0, symName: __ZN4onnx11GetOpSchemaINS_20ReduceMin_Onnx_ver12EEENS_8OpSchemaEv, symObjAddr: 0x1F0, symBinAddr: 0xDEA728, symSize: 0x1F0 }
  - { offset: 0x495481, size: 0x8, addend: 0x0, symName: __ZN4onnx11GetOpSchemaINS_20ReduceSum_Onnx_ver11EEENS_8OpSchemaEv, symObjAddr: 0x3E0, symBinAddr: 0xDEA918, symSize: 0x1EC }
  - { offset: 0x495DF5, size: 0x8, addend: 0x0, symName: __ZN4onnx11GetOpSchemaINS_26ReduceSumSquare_Onnx_ver11EEENS_8OpSchemaEv, symObjAddr: 0x5CC, symBinAddr: 0xDEAB04, symSize: 0x1EC }
  - { offset: 0x496769, size: 0x8, addend: 0x0, symName: __ZN4onnx11GetOpSchemaINS_21ReduceMean_Onnx_ver11EEENS_8OpSchemaEv, symObjAddr: 0x7B8, symBinAddr: 0xDEACF0, symSize: 0x1EC }
  - { offset: 0x4970DD, size: 0x8, addend: 0x0, symName: __ZN4onnx11GetOpSchemaINS_21ReduceProd_Onnx_ver11EEENS_8OpSchemaEv, symObjAddr: 0x9A4, symBinAddr: 0xDEAEDC, symSize: 0x1EC }
  - { offset: 0x497A51, size: 0x8, addend: 0x0, symName: __ZN4onnx11GetOpSchemaINS_23ReduceLogSum_Onnx_ver11EEENS_8OpSchemaEv, symObjAddr: 0xB90, symBinAddr: 0xDEB0C8, symSize: 0x1EC }
  - { offset: 0x4983C5, size: 0x8, addend: 0x0, symName: __ZN4onnx11GetOpSchemaINS_26ReduceLogSumExp_Onnx_ver11EEENS_8OpSchemaEv, symObjAddr: 0xD7C, symBinAddr: 0xDEB2B4, symSize: 0x1EC }
  - { offset: 0x498D39, size: 0x8, addend: 0x0, symName: __ZN4onnx11GetOpSchemaINS_19ReduceL1_Onnx_ver11EEENS_8OpSchemaEv, symObjAddr: 0xF68, symBinAddr: 0xDEB4A0, symSize: 0x1EC }
  - { offset: 0x4996AD, size: 0x8, addend: 0x0, symName: __ZN4onnx11GetOpSchemaINS_19ReduceL2_Onnx_ver11EEENS_8OpSchemaEv, symObjAddr: 0x1154, symBinAddr: 0xDEB68C, symSize: 0x1EC }
  - { offset: 0x49A03E, size: 0x8, addend: 0x0, symName: __ZN4onnx11GetOpSchemaINS_17ArgMax_Onnx_ver12EEENS_8OpSchemaEv, symObjAddr: 0x1340, symBinAddr: 0xDEB878, symSize: 0x1EC }
  - { offset: 0x49A9F6, size: 0x8, addend: 0x0, symName: __ZN4onnx11GetOpSchemaINS_17ArgMin_Onnx_ver12EEENS_8OpSchemaEv, symObjAddr: 0x152C, symBinAddr: 0xDEBA64, symSize: 0x1EC }
  - { offset: 0x49B3E1, size: 0x8, addend: 0x0, symName: __ZN4onnx11GetOpSchemaINS_19ReduceMax_Onnx_ver1EEENS_8OpSchemaEv, symObjAddr: 0x1718, symBinAddr: 0xDEBC50, symSize: 0x21C }
  - { offset: 0x49BE20, size: 0x8, addend: 0x0, symName: __ZN4onnx11GetOpSchemaINS_19ReduceMin_Onnx_ver1EEENS_8OpSchemaEv, symObjAddr: 0x1934, symBinAddr: 0xDEBE6C, symSize: 0x21C }
  - { offset: 0x49C85F, size: 0x8, addend: 0x0, symName: __ZN4onnx11GetOpSchemaINS_19ReduceSum_Onnx_ver1EEENS_8OpSchemaEv, symObjAddr: 0x1B50, symBinAddr: 0xDEC088, symSize: 0x21C }
  - { offset: 0x49D29E, size: 0x8, addend: 0x0, symName: __ZN4onnx11GetOpSchemaINS_25ReduceSumSquare_Onnx_ver1EEENS_8OpSchemaEv, symObjAddr: 0x1D6C, symBinAddr: 0xDEC2A4, symSize: 0x21C }
  - { offset: 0x49DCDD, size: 0x8, addend: 0x0, symName: __ZN4onnx11GetOpSchemaINS_20ReduceMean_Onnx_ver1EEENS_8OpSchemaEv, symObjAddr: 0x1F88, symBinAddr: 0xDEC4C0, symSize: 0x21C }
  - { offset: 0x49E71C, size: 0x8, addend: 0x0, symName: __ZN4onnx11GetOpSchemaINS_20ReduceProd_Onnx_ver1EEENS_8OpSchemaEv, symObjAddr: 0x21A4, symBinAddr: 0xDEC6DC, symSize: 0x21C }
  - { offset: 0x49F15B, size: 0x8, addend: 0x0, symName: __ZN4onnx11GetOpSchemaINS_22ReduceLogSum_Onnx_ver1EEENS_8OpSchemaEv, symObjAddr: 0x23C0, symBinAddr: 0xDEC8F8, symSize: 0x21C }
  - { offset: 0x49FB9A, size: 0x8, addend: 0x0, symName: __ZN4onnx11GetOpSchemaINS_25ReduceLogSumExp_Onnx_ver1EEENS_8OpSchemaEv, symObjAddr: 0x25DC, symBinAddr: 0xDECB14, symSize: 0x21C }
  - { offset: 0x4A05D9, size: 0x8, addend: 0x0, symName: __ZN4onnx11GetOpSchemaINS_18ReduceL1_Onnx_ver1EEENS_8OpSchemaEv, symObjAddr: 0x27F8, symBinAddr: 0xDECD30, symSize: 0x21C }
  - { offset: 0x4A1018, size: 0x8, addend: 0x0, symName: __ZN4onnx11GetOpSchemaINS_18ReduceL2_Onnx_ver1EEENS_8OpSchemaEv, symObjAddr: 0x2A14, symBinAddr: 0xDECF4C, symSize: 0x21C }
  - { offset: 0x4A1A57, size: 0x8, addend: 0x0, symName: __ZN4onnx11GetOpSchemaINS_20ReduceMax_Onnx_ver11EEENS_8OpSchemaEv, symObjAddr: 0x2C30, symBinAddr: 0xDED168, symSize: 0x21C }
  - { offset: 0x4A2496, size: 0x8, addend: 0x0, symName: __ZN4onnx11GetOpSchemaINS_20ReduceMin_Onnx_ver11EEENS_8OpSchemaEv, symObjAddr: 0x2E4C, symBinAddr: 0xDED384, symSize: 0x21C }
  - { offset: 0x4A2EF4, size: 0x8, addend: 0x0, symName: __ZN4onnx11GetOpSchemaINS_16ArgMax_Onnx_ver1EEENS_8OpSchemaEv, symObjAddr: 0x3068, symBinAddr: 0xDED5A0, symSize: 0x1EC }
  - { offset: 0x4A38B5, size: 0x8, addend: 0x0, symName: __ZN4onnx11GetOpSchemaINS_16ArgMin_Onnx_ver1EEENS_8OpSchemaEv, symObjAddr: 0x3254, symBinAddr: 0xDED78C, symSize: 0x1EC }
  - { offset: 0x4A4295, size: 0x8, addend: 0x0, symName: __ZN4onnx11GetOpSchemaINS_17ArgMax_Onnx_ver11EEENS_8OpSchemaEv, symObjAddr: 0x3440, symBinAddr: 0xDED978, symSize: 0x1EC }
  - { offset: 0x4A4C56, size: 0x8, addend: 0x0, symName: __ZN4onnx11GetOpSchemaINS_17ArgMin_Onnx_ver11EEENS_8OpSchemaEv, symObjAddr: 0x362C, symBinAddr: 0xDEDB64, symSize: 0x1EC }
  - { offset: 0x4A5617, size: 0x8, addend: 0x0, symName: __ZN4onnx11GetOpSchemaINS_20ReduceMax_Onnx_ver13EEENS_8OpSchemaEv, symObjAddr: 0x3818, symBinAddr: 0xDEDD50, symSize: 0x264 }
  - { offset: 0x4A609E, size: 0x8, addend: 0x0, symName: __ZN4onnx11GetOpSchemaINS_20ReduceMin_Onnx_ver13EEENS_8OpSchemaEv, symObjAddr: 0x3A7C, symBinAddr: 0xDEDFB4, symSize: 0x264 }
  - { offset: 0x4A6AF2, size: 0x8, addend: 0x0, symName: __ZN4onnx11GetOpSchemaINS_26ReduceSumSquare_Onnx_ver13EEENS_8OpSchemaEv, symObjAddr: 0x3CE0, symBinAddr: 0xDEE218, symSize: 0x264 }
  - { offset: 0x4A7546, size: 0x8, addend: 0x0, symName: __ZN4onnx11GetOpSchemaINS_21ReduceMean_Onnx_ver13EEENS_8OpSchemaEv, symObjAddr: 0x3F44, symBinAddr: 0xDEE47C, symSize: 0x264 }
  - { offset: 0x4A7F9A, size: 0x8, addend: 0x0, symName: __ZN4onnx11GetOpSchemaINS_21ReduceProd_Onnx_ver13EEENS_8OpSchemaEv, symObjAddr: 0x41A8, symBinAddr: 0xDEE6E0, symSize: 0x264 }
  - { offset: 0x4A89EE, size: 0x8, addend: 0x0, symName: __ZN4onnx11GetOpSchemaINS_23ReduceLogSum_Onnx_ver13EEENS_8OpSchemaEv, symObjAddr: 0x440C, symBinAddr: 0xDEE944, symSize: 0x264 }
  - { offset: 0x4A9442, size: 0x8, addend: 0x0, symName: __ZN4onnx11GetOpSchemaINS_26ReduceLogSumExp_Onnx_ver13EEENS_8OpSchemaEv, symObjAddr: 0x4670, symBinAddr: 0xDEEBA8, symSize: 0x264 }
  - { offset: 0x4A9E96, size: 0x8, addend: 0x0, symName: __ZN4onnx11GetOpSchemaINS_19ReduceL1_Onnx_ver13EEENS_8OpSchemaEv, symObjAddr: 0x48D4, symBinAddr: 0xDEEE0C, symSize: 0x264 }
  - { offset: 0x4AA8EA, size: 0x8, addend: 0x0, symName: __ZN4onnx11GetOpSchemaINS_19ReduceL2_Onnx_ver13EEENS_8OpSchemaEv, symObjAddr: 0x4B38, symBinAddr: 0xDEF070, symSize: 0x264 }
  - { offset: 0x4AB33E, size: 0x8, addend: 0x0, symName: __ZN4onnx11GetOpSchemaINS_20ReduceMax_Onnx_ver18EEENS_8OpSchemaEv, symObjAddr: 0x4D9C, symBinAddr: 0xDEF2D4, symSize: 0x264 }
  - { offset: 0x4ABD92, size: 0x8, addend: 0x0, symName: __ZN4onnx11GetOpSchemaINS_20ReduceMin_Onnx_ver18EEENS_8OpSchemaEv, symObjAddr: 0x5000, symBinAddr: 0xDEF538, symSize: 0x264 }
  - { offset: 0x4E1244, size: 0x8, addend: 0x0, symName: '__ZNSt3__110__function6__funcIZN4onnxL26ReduceDocGenerator_opset12EPKcbE3$_0NS_9allocatorIS5_EEFvRNS2_8OpSchemaEEED1Ev', symObjAddr: 0x5954, symBinAddr: 0xDEF79C, symSize: 0x4 }
  - { offset: 0x4E126F, size: 0x8, addend: 0x0, symName: '__ZNSt3__110__function6__funcIZN4onnxL26ReduceDocGenerator_opset12EPKcbE3$_0NS_9allocatorIS5_EEFvRNS2_8OpSchemaEEED0Ev', symObjAddr: 0x5958, symBinAddr: 0xDEF7A0, symSize: 0x4 }
  - { offset: 0x4E1473, size: 0x8, addend: 0x0, symName: '__ZNKSt3__110__function6__funcIZN4onnxL26ReduceDocGenerator_opset12EPKcbE3$_0NS_9allocatorIS5_EEFvRNS2_8OpSchemaEEE7__cloneEv', symObjAddr: 0x595C, symBinAddr: 0xDEF7A4, symSize: 0x38 }
  - { offset: 0x4E1792, size: 0x8, addend: 0x0, symName: '__ZNKSt3__110__function6__funcIZN4onnxL26ReduceDocGenerator_opset12EPKcbE3$_0NS_9allocatorIS5_EEFvRNS2_8OpSchemaEEE7__cloneEPNS0_6__baseISA_EE', symObjAddr: 0x5994, symBinAddr: 0xDEF7DC, symSize: 0x18 }
  - { offset: 0x4E17C8, size: 0x8, addend: 0x0, symName: '__ZNKSt3__110__function6__funcIZN4onnxL26ReduceDocGenerator_opset12EPKcbE3$_0NS_9allocatorIS5_EEFvRNS2_8OpSchemaEEE7__cloneEPNS0_6__baseISA_EE', symObjAddr: 0x5994, symBinAddr: 0xDEF7DC, symSize: 0x18 }
  - { offset: 0x4E17ED, size: 0x8, addend: 0x0, symName: '__ZNKSt3__110__function6__funcIZN4onnxL26ReduceDocGenerator_opset12EPKcbE3$_0NS_9allocatorIS5_EEFvRNS2_8OpSchemaEEE7__cloneEPNS0_6__baseISA_EE', symObjAddr: 0x5994, symBinAddr: 0xDEF7DC, symSize: 0x18 }
  - { offset: 0x4E18D6, size: 0x8, addend: 0x0, symName: '__ZNSt3__110__function6__funcIZN4onnxL26ReduceDocGenerator_opset12EPKcbE3$_0NS_9allocatorIS5_EEFvRNS2_8OpSchemaEEE7destroyEv', symObjAddr: 0x59AC, symBinAddr: 0xDEF7F4, symSize: 0x4 }
  - { offset: 0x4E1925, size: 0x8, addend: 0x0, symName: '__ZNSt3__110__function6__funcIZN4onnxL26ReduceDocGenerator_opset12EPKcbE3$_0NS_9allocatorIS5_EEFvRNS2_8OpSchemaEEE18destroy_deallocateEv', symObjAddr: 0x59B0, symBinAddr: 0xDEF7F8, symSize: 0x4 }
  - { offset: 0x4E1958, size: 0x8, addend: 0x0, symName: '__ZNSt3__110__function6__funcIZN4onnxL26ReduceDocGenerator_opset12EPKcbE3$_0NS_9allocatorIS5_EEFvRNS2_8OpSchemaEEE18destroy_deallocateEv', symObjAddr: 0x59B0, symBinAddr: 0xDEF7F8, symSize: 0x4 }
  - { offset: 0x4E197A, size: 0x8, addend: 0x0, symName: '__ZNSt3__110__function6__funcIZN4onnxL26ReduceDocGenerator_opset12EPKcbE3$_0NS_9allocatorIS5_EEFvRNS2_8OpSchemaEEE18destroy_deallocateEv', symObjAddr: 0x59B0, symBinAddr: 0xDEF7F8, symSize: 0x4 }
  - { offset: 0x4E19A5, size: 0x8, addend: 0x0, symName: '__ZNSt3__110__function6__funcIZN4onnxL26ReduceDocGenerator_opset12EPKcbE3$_0NS_9allocatorIS5_EEFvRNS2_8OpSchemaEEE18destroy_deallocateEv', symObjAddr: 0x59B0, symBinAddr: 0xDEF7F8, symSize: 0x4 }
  - { offset: 0x4E19CB, size: 0x8, addend: 0x0, symName: '__ZNSt3__110__function6__funcIZN4onnxL26ReduceDocGenerator_opset12EPKcbE3$_0NS_9allocatorIS5_EEFvRNS2_8OpSchemaEEE18destroy_deallocateEv', symObjAddr: 0x59B0, symBinAddr: 0xDEF7F8, symSize: 0x4 }
  - { offset: 0x4E20EE, size: 0x8, addend: 0x0, symName: '__ZNSt3__110__function6__funcIZN4onnxL26ReduceDocGenerator_opset12EPKcbE3$_0NS_9allocatorIS5_EEFvRNS2_8OpSchemaEEEclES9_', symObjAddr: 0x59B4, symBinAddr: 0xDEF7FC, symSize: 0x408 }
  - { offset: 0x4E3E73, size: 0x8, addend: 0x0, symName: __ZNSt3__16vectorINS_12basic_stringIcNS_11char_traitsIcEENS_9allocatorIcEEEENS4_IS6_EEE24__emplace_back_slow_pathIJRA14_KcEEEPS6_DpOT_, symObjAddr: 0x65EC, symBinAddr: 0xDEFC74, symSize: 0x1C4 }
  - { offset: 0x4E44F0, size: 0x8, addend: 0x0, symName: __ZNSt3__16vectorINS_12basic_stringIcNS_11char_traitsIcEENS_9allocatorIcEEEENS4_IS6_EEE24__emplace_back_slow_pathIJRA13_KcEEEPS6_DpOT_, symObjAddr: 0x6814, symBinAddr: 0xDEFE38, symSize: 0x1C4 }
  - { offset: 0x4E4B6D, size: 0x8, addend: 0x0, symName: '__ZNKSt3__110__function6__funcIZN4onnxL26ReduceDocGenerator_opset12EPKcbE3$_0NS_9allocatorIS5_EEFvRNS2_8OpSchemaEEE6targetERKSt9type_info', symObjAddr: 0x5DBC, symBinAddr: 0xDEFC04, symSize: 0x64 }
  - { offset: 0x4E4C20, size: 0x8, addend: 0x0, symName: '__ZNKSt3__110__function6__funcIZN4onnxL26ReduceDocGenerator_opset12EPKcbE3$_0NS_9allocatorIS5_EEFvRNS2_8OpSchemaEEE11target_typeEv', symObjAddr: 0x5E20, symBinAddr: 0xDEFC68, symSize: 0xC }
  - { offset: 0x4E55A5, size: 0x8, addend: 0x0, symName: __ZNSt3__16vectorINS_12basic_stringIcNS_11char_traitsIcEENS_9allocatorIcEEEENS4_IS6_EEE24__emplace_back_slow_pathIJRA14_KcEEEPS6_DpOT_, symObjAddr: 0x65EC, symBinAddr: 0xDEFC74, symSize: 0x1C4 }
  - { offset: 0x4E5C98, size: 0x8, addend: 0x0, symName: '__ZNSt3__110__function6__funcIZZN4onnxL26ReduceDocGenerator_opset12EPKcbENK3$_0clERNS2_8OpSchemaEEUlRNS2_16InferenceContextEE_NS_9allocatorISA_EEFvS9_EED1Ev', symObjAddr: 0x69D8, symBinAddr: 0xDEFFFC, symSize: 0x4 }
  - { offset: 0x4E5CC3, size: 0x8, addend: 0x0, symName: '__ZNSt3__110__function6__funcIZZN4onnxL26ReduceDocGenerator_opset12EPKcbENK3$_0clERNS2_8OpSchemaEEUlRNS2_16InferenceContextEE_NS_9allocatorISA_EEFvS9_EED0Ev', symObjAddr: 0x69DC, symBinAddr: 0xDF0000, symSize: 0x4 }
  - { offset: 0x4E5D78, size: 0x8, addend: 0x0, symName: '__ZNKSt3__110__function6__funcIZZN4onnxL26ReduceDocGenerator_opset12EPKcbENK3$_0clERNS2_8OpSchemaEEUlRNS2_16InferenceContextEE_NS_9allocatorISA_EEFvS9_EE7__cloneEv', symObjAddr: 0x69E0, symBinAddr: 0xDF0004, symSize: 0x24 }
  - { offset: 0x4E5EBB, size: 0x8, addend: 0x0, symName: '__ZNKSt3__110__function6__funcIZZN4onnxL26ReduceDocGenerator_opset12EPKcbENK3$_0clERNS2_8OpSchemaEEUlRNS2_16InferenceContextEE_NS_9allocatorISA_EEFvS9_EE7__cloneEPNS0_6__baseISD_EE', symObjAddr: 0x6A04, symBinAddr: 0xDF0028, symSize: 0x10 }
  - { offset: 0x4E5EEF, size: 0x8, addend: 0x0, symName: '__ZNKSt3__110__function6__funcIZZN4onnxL26ReduceDocGenerator_opset12EPKcbENK3$_0clERNS2_8OpSchemaEEUlRNS2_16InferenceContextEE_NS_9allocatorISA_EEFvS9_EE7__cloneEPNS0_6__baseISD_EE', symObjAddr: 0x6A04, symBinAddr: 0xDF0028, symSize: 0x10 }
  - { offset: 0x4E5F0B, size: 0x8, addend: 0x0, symName: '__ZNKSt3__110__function6__funcIZZN4onnxL26ReduceDocGenerator_opset12EPKcbENK3$_0clERNS2_8OpSchemaEEUlRNS2_16InferenceContextEE_NS_9allocatorISA_EEFvS9_EE7__cloneEPNS0_6__baseISD_EE', symObjAddr: 0x6A04, symBinAddr: 0xDF0028, symSize: 0x10 }
  - { offset: 0x4E5F27, size: 0x8, addend: 0x0, symName: '__ZNSt3__110__function6__funcIZZN4onnxL26ReduceDocGenerator_opset12EPKcbENK3$_0clERNS2_8OpSchemaEEUlRNS2_16InferenceContextEE_NS_9allocatorISA_EEFvS9_EE7destroyEv', symObjAddr: 0x6A14, symBinAddr: 0xDF0038, symSize: 0x4 }
  - { offset: 0x4E5F76, size: 0x8, addend: 0x0, symName: '__ZNSt3__110__function6__funcIZZN4onnxL26ReduceDocGenerator_opset12EPKcbENK3$_0clERNS2_8OpSchemaEEUlRNS2_16InferenceContextEE_NS_9allocatorISA_EEFvS9_EE18destroy_deallocateEv', symObjAddr: 0x6A18, symBinAddr: 0xDF003C, symSize: 0x4 }
  - { offset: 0x4E5FA9, size: 0x8, addend: 0x0, symName: '__ZNSt3__110__function6__funcIZZN4onnxL26ReduceDocGenerator_opset12EPKcbENK3$_0clERNS2_8OpSchemaEEUlRNS2_16InferenceContextEE_NS_9allocatorISA_EEFvS9_EE18destroy_deallocateEv', symObjAddr: 0x6A18, symBinAddr: 0xDF003C, symSize: 0x4 }
  - { offset: 0x4E5FCB, size: 0x8, addend: 0x0, symName: '__ZNSt3__110__function6__funcIZZN4onnxL26ReduceDocGenerator_opset12EPKcbENK3$_0clERNS2_8OpSchemaEEUlRNS2_16InferenceContextEE_NS_9allocatorISA_EEFvS9_EE18destroy_deallocateEv', symObjAddr: 0x6A18, symBinAddr: 0xDF003C, symSize: 0x4 }
  - { offset: 0x4E5FF6, size: 0x8, addend: 0x0, symName: '__ZNSt3__110__function6__funcIZZN4onnxL26ReduceDocGenerator_opset12EPKcbENK3$_0clERNS2_8OpSchemaEEUlRNS2_16InferenceContextEE_NS_9allocatorISA_EEFvS9_EE18destroy_deallocateEv', symObjAddr: 0x6A18, symBinAddr: 0xDF003C, symSize: 0x4 }
  - { offset: 0x4E601C, size: 0x8, addend: 0x0, symName: '__ZNSt3__110__function6__funcIZZN4onnxL26ReduceDocGenerator_opset12EPKcbENK3$_0clERNS2_8OpSchemaEEUlRNS2_16InferenceContextEE_NS_9allocatorISA_EEFvS9_EE18destroy_deallocateEv', symObjAddr: 0x6A18, symBinAddr: 0xDF003C, symSize: 0x4 }
  - { offset: 0x4E682E, size: 0x8, addend: 0x0, symName: '__ZNSt3__110__function6__funcIZZN4onnxL26ReduceDocGenerator_opset12EPKcbENK3$_0clERNS2_8OpSchemaEEUlRNS2_16InferenceContextEE_NS_9allocatorISA_EEFvS9_EEclES9_', symObjAddr: 0x6A1C, symBinAddr: 0xDF0040, symSize: 0x5E4 }
  - { offset: 0x4E810B, size: 0x8, addend: 0x0, symName: '__ZNKSt3__110__function6__funcIZZN4onnxL26ReduceDocGenerator_opset12EPKcbENK3$_0clERNS2_8OpSchemaEEUlRNS2_16InferenceContextEE_NS_9allocatorISA_EEFvS9_EE6targetERKSt9type_info', symObjAddr: 0x7000, symBinAddr: 0xDF0624, symSize: 0x64 }
  - { offset: 0x4E81BE, size: 0x8, addend: 0x0, symName: '__ZNKSt3__110__function6__funcIZZN4onnxL26ReduceDocGenerator_opset12EPKcbENK3$_0clERNS2_8OpSchemaEEUlRNS2_16InferenceContextEE_NS_9allocatorISA_EEFvS9_EE11target_typeEv', symObjAddr: 0x7064, symBinAddr: 0xDF0688, symSize: 0xC }
  - { offset: 0x4F08BD, size: 0x8, addend: 0x0, symName: '__ZNSt3__110__function6__funcIZN4onnxL29ArgReduceDocGenerator_opset12EPKcE3$_0NS_9allocatorIS5_EEFvRNS2_8OpSchemaEEED1Ev', symObjAddr: 0xAE10, symBinAddr: 0xDF0694, symSize: 0x4 }
  - { offset: 0x4F08E8, size: 0x8, addend: 0x0, symName: '__ZNSt3__110__function6__funcIZN4onnxL29ArgReduceDocGenerator_opset12EPKcE3$_0NS_9allocatorIS5_EEFvRNS2_8OpSchemaEEED0Ev', symObjAddr: 0xAE14, symBinAddr: 0xDF0698, symSize: 0x4 }
  - { offset: 0x4F099D, size: 0x8, addend: 0x0, symName: '__ZNKSt3__110__function6__funcIZN4onnxL29ArgReduceDocGenerator_opset12EPKcE3$_0NS_9allocatorIS5_EEFvRNS2_8OpSchemaEEE7__cloneEv', symObjAddr: 0xAE18, symBinAddr: 0xDF069C, symSize: 0x34 }
  - { offset: 0x4F0AE4, size: 0x8, addend: 0x0, symName: '__ZNKSt3__110__function6__funcIZN4onnxL29ArgReduceDocGenerator_opset12EPKcE3$_0NS_9allocatorIS5_EEFvRNS2_8OpSchemaEEE7__cloneEPNS0_6__baseISA_EE', symObjAddr: 0xAE4C, symBinAddr: 0xDF06D0, symSize: 0x14 }
  - { offset: 0x4F0B52, size: 0x8, addend: 0x0, symName: '__ZNSt3__110__function6__funcIZN4onnxL29ArgReduceDocGenerator_opset12EPKcE3$_0NS_9allocatorIS5_EEFvRNS2_8OpSchemaEEE7destroyEv', symObjAddr: 0xAE60, symBinAddr: 0xDF06E4, symSize: 0x4 }
  - { offset: 0x4F0BA1, size: 0x8, addend: 0x0, symName: '__ZNSt3__110__function6__funcIZN4onnxL29ArgReduceDocGenerator_opset12EPKcE3$_0NS_9allocatorIS5_EEFvRNS2_8OpSchemaEEE18destroy_deallocateEv', symObjAddr: 0xAE64, symBinAddr: 0xDF06E8, symSize: 0x4 }
  - { offset: 0x4F0BD4, size: 0x8, addend: 0x0, symName: '__ZNSt3__110__function6__funcIZN4onnxL29ArgReduceDocGenerator_opset12EPKcE3$_0NS_9allocatorIS5_EEFvRNS2_8OpSchemaEEE18destroy_deallocateEv', symObjAddr: 0xAE64, symBinAddr: 0xDF06E8, symSize: 0x4 }
  - { offset: 0x4F0BF6, size: 0x8, addend: 0x0, symName: '__ZNSt3__110__function6__funcIZN4onnxL29ArgReduceDocGenerator_opset12EPKcE3$_0NS_9allocatorIS5_EEFvRNS2_8OpSchemaEEE18destroy_deallocateEv', symObjAddr: 0xAE64, symBinAddr: 0xDF06E8, symSize: 0x4 }
  - { offset: 0x4F0C21, size: 0x8, addend: 0x0, symName: '__ZNSt3__110__function6__funcIZN4onnxL29ArgReduceDocGenerator_opset12EPKcE3$_0NS_9allocatorIS5_EEFvRNS2_8OpSchemaEEE18destroy_deallocateEv', symObjAddr: 0xAE64, symBinAddr: 0xDF06E8, symSize: 0x4 }
  - { offset: 0x4F0C47, size: 0x8, addend: 0x0, symName: '__ZNSt3__110__function6__funcIZN4onnxL29ArgReduceDocGenerator_opset12EPKcE3$_0NS_9allocatorIS5_EEFvRNS2_8OpSchemaEEE18destroy_deallocateEv', symObjAddr: 0xAE64, symBinAddr: 0xDF06E8, symSize: 0x4 }
  - { offset: 0x4F0EA5, size: 0x8, addend: 0x0, symName: '__ZNSt3__110__function6__funcIZN4onnxL29ArgReduceDocGenerator_opset12EPKcE3$_0NS_9allocatorIS5_EEFvRNS2_8OpSchemaEEEclES9_', symObjAddr: 0xAE68, symBinAddr: 0xDF06EC, symSize: 0x360 }
  - { offset: 0x4F1F6A, size: 0x8, addend: 0x0, symName: '__ZNKSt3__110__function6__funcIZN4onnxL29ArgReduceDocGenerator_opset12EPKcE3$_0NS_9allocatorIS5_EEFvRNS2_8OpSchemaEEE6targetERKSt9type_info', symObjAddr: 0xB1C8, symBinAddr: 0xDF0A4C, symSize: 0x64 }
  - { offset: 0x4F201D, size: 0x8, addend: 0x0, symName: '__ZNKSt3__110__function6__funcIZN4onnxL29ArgReduceDocGenerator_opset12EPKcE3$_0NS_9allocatorIS5_EEFvRNS2_8OpSchemaEEE11target_typeEv', symObjAddr: 0xB22C, symBinAddr: 0xDF0AB0, symSize: 0xC }
  - { offset: 0x4F2040, size: 0x8, addend: 0x0, symName: '__ZNSt3__110__function6__funcIZZN4onnxL29ArgReduceDocGenerator_opset12EPKcENK3$_0clERNS2_8OpSchemaEEUlRNS2_16InferenceContextEE_NS_9allocatorISA_EEFvS9_EED1Ev', symObjAddr: 0xB238, symBinAddr: 0xDF0ABC, symSize: 0x4 }
  - { offset: 0x4F206B, size: 0x8, addend: 0x0, symName: '__ZNSt3__110__function6__funcIZZN4onnxL29ArgReduceDocGenerator_opset12EPKcENK3$_0clERNS2_8OpSchemaEEUlRNS2_16InferenceContextEE_NS_9allocatorISA_EEFvS9_EED0Ev', symObjAddr: 0xB23C, symBinAddr: 0xDF0AC0, symSize: 0x4 }
  - { offset: 0x4F2120, size: 0x8, addend: 0x0, symName: '__ZNKSt3__110__function6__funcIZZN4onnxL29ArgReduceDocGenerator_opset12EPKcENK3$_0clERNS2_8OpSchemaEEUlRNS2_16InferenceContextEE_NS_9allocatorISA_EEFvS9_EE7__cloneEv', symObjAddr: 0xB240, symBinAddr: 0xDF0AC4, symSize: 0x24 }
  - { offset: 0x4F2263, size: 0x8, addend: 0x0, symName: '__ZNKSt3__110__function6__funcIZZN4onnxL29ArgReduceDocGenerator_opset12EPKcENK3$_0clERNS2_8OpSchemaEEUlRNS2_16InferenceContextEE_NS_9allocatorISA_EEFvS9_EE7__cloneEPNS0_6__baseISD_EE', symObjAddr: 0xB264, symBinAddr: 0xDF0AE8, symSize: 0x10 }
  - { offset: 0x4F2297, size: 0x8, addend: 0x0, symName: '__ZNKSt3__110__function6__funcIZZN4onnxL29ArgReduceDocGenerator_opset12EPKcENK3$_0clERNS2_8OpSchemaEEUlRNS2_16InferenceContextEE_NS_9allocatorISA_EEFvS9_EE7__cloneEPNS0_6__baseISD_EE', symObjAddr: 0xB264, symBinAddr: 0xDF0AE8, symSize: 0x10 }
  - { offset: 0x4F22B3, size: 0x8, addend: 0x0, symName: '__ZNKSt3__110__function6__funcIZZN4onnxL29ArgReduceDocGenerator_opset12EPKcENK3$_0clERNS2_8OpSchemaEEUlRNS2_16InferenceContextEE_NS_9allocatorISA_EEFvS9_EE7__cloneEPNS0_6__baseISD_EE', symObjAddr: 0xB264, symBinAddr: 0xDF0AE8, symSize: 0x10 }
  - { offset: 0x4F22CF, size: 0x8, addend: 0x0, symName: '__ZNSt3__110__function6__funcIZZN4onnxL29ArgReduceDocGenerator_opset12EPKcENK3$_0clERNS2_8OpSchemaEEUlRNS2_16InferenceContextEE_NS_9allocatorISA_EEFvS9_EE7destroyEv', symObjAddr: 0xB274, symBinAddr: 0xDF0AF8, symSize: 0x4 }
  - { offset: 0x4F231E, size: 0x8, addend: 0x0, symName: '__ZNSt3__110__function6__funcIZZN4onnxL29ArgReduceDocGenerator_opset12EPKcENK3$_0clERNS2_8OpSchemaEEUlRNS2_16InferenceContextEE_NS_9allocatorISA_EEFvS9_EE18destroy_deallocateEv', symObjAddr: 0xB278, symBinAddr: 0xDF0AFC, symSize: 0x4 }
  - { offset: 0x4F2351, size: 0x8, addend: 0x0, symName: '__ZNSt3__110__function6__funcIZZN4onnxL29ArgReduceDocGenerator_opset12EPKcENK3$_0clERNS2_8OpSchemaEEUlRNS2_16InferenceContextEE_NS_9allocatorISA_EEFvS9_EE18destroy_deallocateEv', symObjAddr: 0xB278, symBinAddr: 0xDF0AFC, symSize: 0x4 }
  - { offset: 0x4F2373, size: 0x8, addend: 0x0, symName: '__ZNSt3__110__function6__funcIZZN4onnxL29ArgReduceDocGenerator_opset12EPKcENK3$_0clERNS2_8OpSchemaEEUlRNS2_16InferenceContextEE_NS_9allocatorISA_EEFvS9_EE18destroy_deallocateEv', symObjAddr: 0xB278, symBinAddr: 0xDF0AFC, symSize: 0x4 }
  - { offset: 0x4F239E, size: 0x8, addend: 0x0, symName: '__ZNSt3__110__function6__funcIZZN4onnxL29ArgReduceDocGenerator_opset12EPKcENK3$_0clERNS2_8OpSchemaEEUlRNS2_16InferenceContextEE_NS_9allocatorISA_EEFvS9_EE18destroy_deallocateEv', symObjAddr: 0xB278, symBinAddr: 0xDF0AFC, symSize: 0x4 }
  - { offset: 0x4F23C4, size: 0x8, addend: 0x0, symName: '__ZNSt3__110__function6__funcIZZN4onnxL29ArgReduceDocGenerator_opset12EPKcENK3$_0clERNS2_8OpSchemaEEUlRNS2_16InferenceContextEE_NS_9allocatorISA_EEFvS9_EE18destroy_deallocateEv', symObjAddr: 0xB278, symBinAddr: 0xDF0AFC, symSize: 0x4 }
  - { offset: 0x4F24E1, size: 0x8, addend: 0x0, symName: '__ZNSt3__110__function6__funcIZZN4onnxL29ArgReduceDocGenerator_opset12EPKcENK3$_0clERNS2_8OpSchemaEEUlRNS2_16InferenceContextEE_NS_9allocatorISA_EEFvS9_EEclES9_', symObjAddr: 0xB27C, symBinAddr: 0xDF0B00, symSize: 0x528 }
  - { offset: 0x4F344B, size: 0x8, addend: 0x0, symName: '__ZNKSt3__110__function6__funcIZZN4onnxL29ArgReduceDocGenerator_opset12EPKcENK3$_0clERNS2_8OpSchemaEEUlRNS2_16InferenceContextEE_NS_9allocatorISA_EEFvS9_EE6targetERKSt9type_info', symObjAddr: 0xB7A4, symBinAddr: 0xDF1028, symSize: 0x64 }
  - { offset: 0x4F34FE, size: 0x8, addend: 0x0, symName: '__ZNKSt3__110__function6__funcIZZN4onnxL29ArgReduceDocGenerator_opset12EPKcENK3$_0clERNS2_8OpSchemaEEUlRNS2_16InferenceContextEE_NS_9allocatorISA_EEFvS9_EE11target_typeEv', symObjAddr: 0xB808, symBinAddr: 0xDF108C, symSize: 0xC }
  - { offset: 0x4F3633, size: 0x8, addend: 0x0, symName: '__ZNSt3__110__function6__funcIZN4onnxL25ReduceDocGenerator_opset1EPKcS4_iE3$_0NS_9allocatorIS5_EEFvRNS2_8OpSchemaEEED1Ev', symObjAddr: 0xC1A8, symBinAddr: 0xDF1098, symSize: 0x4 }
  - { offset: 0x4F365E, size: 0x8, addend: 0x0, symName: '__ZNSt3__110__function6__funcIZN4onnxL25ReduceDocGenerator_opset1EPKcS4_iE3$_0NS_9allocatorIS5_EEFvRNS2_8OpSchemaEEED0Ev', symObjAddr: 0xC1AC, symBinAddr: 0xDF109C, symSize: 0x4 }
  - { offset: 0x4F383C, size: 0x8, addend: 0x0, symName: '__ZNKSt3__110__function6__funcIZN4onnxL25ReduceDocGenerator_opset1EPKcS4_iE3$_0NS_9allocatorIS5_EEFvRNS2_8OpSchemaEEE7__cloneEv', symObjAddr: 0xC1B0, symBinAddr: 0xDF10A0, symSize: 0x40 }
  - { offset: 0x4F3B5B, size: 0x8, addend: 0x0, symName: '__ZNKSt3__110__function6__funcIZN4onnxL25ReduceDocGenerator_opset1EPKcS4_iE3$_0NS_9allocatorIS5_EEFvRNS2_8OpSchemaEEE7__cloneEPNS0_6__baseISA_EE', symObjAddr: 0xC1F0, symBinAddr: 0xDF10E0, symSize: 0x20 }
  - { offset: 0x4F3B91, size: 0x8, addend: 0x0, symName: '__ZNKSt3__110__function6__funcIZN4onnxL25ReduceDocGenerator_opset1EPKcS4_iE3$_0NS_9allocatorIS5_EEFvRNS2_8OpSchemaEEE7__cloneEPNS0_6__baseISA_EE', symObjAddr: 0xC1F0, symBinAddr: 0xDF10E0, symSize: 0x20 }
  - { offset: 0x4F3BB6, size: 0x8, addend: 0x0, symName: '__ZNKSt3__110__function6__funcIZN4onnxL25ReduceDocGenerator_opset1EPKcS4_iE3$_0NS_9allocatorIS5_EEFvRNS2_8OpSchemaEEE7__cloneEPNS0_6__baseISA_EE', symObjAddr: 0xC1F0, symBinAddr: 0xDF10E0, symSize: 0x20 }
  - { offset: 0x4F3C9F, size: 0x8, addend: 0x0, symName: '__ZNSt3__110__function6__funcIZN4onnxL25ReduceDocGenerator_opset1EPKcS4_iE3$_0NS_9allocatorIS5_EEFvRNS2_8OpSchemaEEE7destroyEv', symObjAddr: 0xC210, symBinAddr: 0xDF1100, symSize: 0x4 }
  - { offset: 0x4F3CEE, size: 0x8, addend: 0x0, symName: '__ZNSt3__110__function6__funcIZN4onnxL25ReduceDocGenerator_opset1EPKcS4_iE3$_0NS_9allocatorIS5_EEFvRNS2_8OpSchemaEEE18destroy_deallocateEv', symObjAddr: 0xC214, symBinAddr: 0xDF1104, symSize: 0x4 }
  - { offset: 0x4F3D21, size: 0x8, addend: 0x0, symName: '__ZNSt3__110__function6__funcIZN4onnxL25ReduceDocGenerator_opset1EPKcS4_iE3$_0NS_9allocatorIS5_EEFvRNS2_8OpSchemaEEE18destroy_deallocateEv', symObjAddr: 0xC214, symBinAddr: 0xDF1104, symSize: 0x4 }
  - { offset: 0x4F3D43, size: 0x8, addend: 0x0, symName: '__ZNSt3__110__function6__funcIZN4onnxL25ReduceDocGenerator_opset1EPKcS4_iE3$_0NS_9allocatorIS5_EEFvRNS2_8OpSchemaEEE18destroy_deallocateEv', symObjAddr: 0xC214, symBinAddr: 0xDF1104, symSize: 0x4 }
  - { offset: 0x4F3D6E, size: 0x8, addend: 0x0, symName: '__ZNSt3__110__function6__funcIZN4onnxL25ReduceDocGenerator_opset1EPKcS4_iE3$_0NS_9allocatorIS5_EEFvRNS2_8OpSchemaEEE18destroy_deallocateEv', symObjAddr: 0xC214, symBinAddr: 0xDF1104, symSize: 0x4 }
  - { offset: 0x4F3D94, size: 0x8, addend: 0x0, symName: '__ZNSt3__110__function6__funcIZN4onnxL25ReduceDocGenerator_opset1EPKcS4_iE3$_0NS_9allocatorIS5_EEFvRNS2_8OpSchemaEEE18destroy_deallocateEv', symObjAddr: 0xC214, symBinAddr: 0xDF1104, symSize: 0x4 }
  - { offset: 0x4F3FF2, size: 0x8, addend: 0x0, symName: '__ZNSt3__110__function6__funcIZN4onnxL25ReduceDocGenerator_opset1EPKcS4_iE3$_0NS_9allocatorIS5_EEFvRNS2_8OpSchemaEEEclES9_', symObjAddr: 0xC218, symBinAddr: 0xDF1108, symSize: 0x35C }
  - { offset: 0x4F50CF, size: 0x8, addend: 0x0, symName: '__ZNKSt3__110__function6__funcIZN4onnxL25ReduceDocGenerator_opset1EPKcS4_iE3$_0NS_9allocatorIS5_EEFvRNS2_8OpSchemaEEE6targetERKSt9type_info', symObjAddr: 0xC574, symBinAddr: 0xDF1464, symSize: 0x64 }
  - { offset: 0x4F5182, size: 0x8, addend: 0x0, symName: '__ZNKSt3__110__function6__funcIZN4onnxL25ReduceDocGenerator_opset1EPKcS4_iE3$_0NS_9allocatorIS5_EEFvRNS2_8OpSchemaEEE11target_typeEv', symObjAddr: 0xC5D8, symBinAddr: 0xDF14C8, symSize: 0xC }
  - { offset: 0x4F51A5, size: 0x8, addend: 0x0, symName: '__ZNSt3__110__function6__funcIZZN4onnxL25ReduceDocGenerator_opset1EPKcS4_iENK3$_0clERNS2_8OpSchemaEEUlRNS2_16InferenceContextEE_NS_9allocatorISA_EEFvS9_EED1Ev', symObjAddr: 0xC5E4, symBinAddr: 0xDF14D4, symSize: 0x4 }
  - { offset: 0x4F51D0, size: 0x8, addend: 0x0, symName: '__ZNSt3__110__function6__funcIZZN4onnxL25ReduceDocGenerator_opset1EPKcS4_iENK3$_0clERNS2_8OpSchemaEEUlRNS2_16InferenceContextEE_NS_9allocatorISA_EEFvS9_EED0Ev', symObjAddr: 0xC5E8, symBinAddr: 0xDF14D8, symSize: 0x4 }
  - { offset: 0x4F5285, size: 0x8, addend: 0x0, symName: '__ZNKSt3__110__function6__funcIZZN4onnxL25ReduceDocGenerator_opset1EPKcS4_iENK3$_0clERNS2_8OpSchemaEEUlRNS2_16InferenceContextEE_NS_9allocatorISA_EEFvS9_EE7__cloneEv', symObjAddr: 0xC5EC, symBinAddr: 0xDF14DC, symSize: 0x24 }
  - { offset: 0x4F53C8, size: 0x8, addend: 0x0, symName: '__ZNKSt3__110__function6__funcIZZN4onnxL25ReduceDocGenerator_opset1EPKcS4_iENK3$_0clERNS2_8OpSchemaEEUlRNS2_16InferenceContextEE_NS_9allocatorISA_EEFvS9_EE7__cloneEPNS0_6__baseISD_EE', symObjAddr: 0xC610, symBinAddr: 0xDF1500, symSize: 0x10 }
  - { offset: 0x4F53FC, size: 0x8, addend: 0x0, symName: '__ZNKSt3__110__function6__funcIZZN4onnxL25ReduceDocGenerator_opset1EPKcS4_iENK3$_0clERNS2_8OpSchemaEEUlRNS2_16InferenceContextEE_NS_9allocatorISA_EEFvS9_EE7__cloneEPNS0_6__baseISD_EE', symObjAddr: 0xC610, symBinAddr: 0xDF1500, symSize: 0x10 }
  - { offset: 0x4F5418, size: 0x8, addend: 0x0, symName: '__ZNKSt3__110__function6__funcIZZN4onnxL25ReduceDocGenerator_opset1EPKcS4_iENK3$_0clERNS2_8OpSchemaEEUlRNS2_16InferenceContextEE_NS_9allocatorISA_EEFvS9_EE7__cloneEPNS0_6__baseISD_EE', symObjAddr: 0xC610, symBinAddr: 0xDF1500, symSize: 0x10 }
  - { offset: 0x4F5434, size: 0x8, addend: 0x0, symName: '__ZNSt3__110__function6__funcIZZN4onnxL25ReduceDocGenerator_opset1EPKcS4_iENK3$_0clERNS2_8OpSchemaEEUlRNS2_16InferenceContextEE_NS_9allocatorISA_EEFvS9_EE7destroyEv', symObjAddr: 0xC620, symBinAddr: 0xDF1510, symSize: 0x4 }
  - { offset: 0x4F5483, size: 0x8, addend: 0x0, symName: '__ZNSt3__110__function6__funcIZZN4onnxL25ReduceDocGenerator_opset1EPKcS4_iENK3$_0clERNS2_8OpSchemaEEUlRNS2_16InferenceContextEE_NS_9allocatorISA_EEFvS9_EE18destroy_deallocateEv', symObjAddr: 0xC624, symBinAddr: 0xDF1514, symSize: 0x4 }
  - { offset: 0x4F54B6, size: 0x8, addend: 0x0, symName: '__ZNSt3__110__function6__funcIZZN4onnxL25ReduceDocGenerator_opset1EPKcS4_iENK3$_0clERNS2_8OpSchemaEEUlRNS2_16InferenceContextEE_NS_9allocatorISA_EEFvS9_EE18destroy_deallocateEv', symObjAddr: 0xC624, symBinAddr: 0xDF1514, symSize: 0x4 }
  - { offset: 0x4F54D8, size: 0x8, addend: 0x0, symName: '__ZNSt3__110__function6__funcIZZN4onnxL25ReduceDocGenerator_opset1EPKcS4_iENK3$_0clERNS2_8OpSchemaEEUlRNS2_16InferenceContextEE_NS_9allocatorISA_EEFvS9_EE18destroy_deallocateEv', symObjAddr: 0xC624, symBinAddr: 0xDF1514, symSize: 0x4 }
  - { offset: 0x4F5503, size: 0x8, addend: 0x0, symName: '__ZNSt3__110__function6__funcIZZN4onnxL25ReduceDocGenerator_opset1EPKcS4_iENK3$_0clERNS2_8OpSchemaEEUlRNS2_16InferenceContextEE_NS_9allocatorISA_EEFvS9_EE18destroy_deallocateEv', symObjAddr: 0xC624, symBinAddr: 0xDF1514, symSize: 0x4 }
  - { offset: 0x4F5529, size: 0x8, addend: 0x0, symName: '__ZNSt3__110__function6__funcIZZN4onnxL25ReduceDocGenerator_opset1EPKcS4_iENK3$_0clERNS2_8OpSchemaEEUlRNS2_16InferenceContextEE_NS_9allocatorISA_EEFvS9_EE18destroy_deallocateEv', symObjAddr: 0xC624, symBinAddr: 0xDF1514, symSize: 0x4 }
  - { offset: 0x4F5674, size: 0x8, addend: 0x0, symName: '__ZNSt3__110__function6__funcIZZN4onnxL25ReduceDocGenerator_opset1EPKcS4_iENK3$_0clERNS2_8OpSchemaEEUlRNS2_16InferenceContextEE_NS_9allocatorISA_EEFvS9_EEclES9_', symObjAddr: 0xC628, symBinAddr: 0xDF1518, symSize: 0x524 }
  - { offset: 0x4F6961, size: 0x8, addend: 0x0, symName: '__ZNKSt3__110__function6__funcIZZN4onnxL25ReduceDocGenerator_opset1EPKcS4_iENK3$_0clERNS2_8OpSchemaEEUlRNS2_16InferenceContextEE_NS_9allocatorISA_EEFvS9_EE6targetERKSt9type_info', symObjAddr: 0xCB4C, symBinAddr: 0xDF1A3C, symSize: 0x64 }
  - { offset: 0x4F6A14, size: 0x8, addend: 0x0, symName: '__ZNKSt3__110__function6__funcIZZN4onnxL25ReduceDocGenerator_opset1EPKcS4_iENK3$_0clERNS2_8OpSchemaEEUlRNS2_16InferenceContextEE_NS_9allocatorISA_EEFvS9_EE11target_typeEv', symObjAddr: 0xCBB0, symBinAddr: 0xDF1AA0, symSize: 0xC }
  - { offset: 0x4F6A37, size: 0x8, addend: 0x0, symName: '__ZNSt3__110__function6__funcIZN4onnxL28ArgReduceDocGenerator_opset1EPKcE3$_0NS_9allocatorIS5_EEFvRNS2_8OpSchemaEEED1Ev', symObjAddr: 0xCBBC, symBinAddr: 0xDF1AAC, symSize: 0x4 }
  - { offset: 0x4F6A62, size: 0x8, addend: 0x0, symName: '__ZNSt3__110__function6__funcIZN4onnxL28ArgReduceDocGenerator_opset1EPKcE3$_0NS_9allocatorIS5_EEFvRNS2_8OpSchemaEEED0Ev', symObjAddr: 0xCBC0, symBinAddr: 0xDF1AB0, symSize: 0x4 }
  - { offset: 0x4F6B17, size: 0x8, addend: 0x0, symName: '__ZNKSt3__110__function6__funcIZN4onnxL28ArgReduceDocGenerator_opset1EPKcE3$_0NS_9allocatorIS5_EEFvRNS2_8OpSchemaEEE7__cloneEv', symObjAddr: 0xCBC4, symBinAddr: 0xDF1AB4, symSize: 0x34 }
  - { offset: 0x4F6C5E, size: 0x8, addend: 0x0, symName: '__ZNKSt3__110__function6__funcIZN4onnxL28ArgReduceDocGenerator_opset1EPKcE3$_0NS_9allocatorIS5_EEFvRNS2_8OpSchemaEEE7__cloneEPNS0_6__baseISA_EE', symObjAddr: 0xCBF8, symBinAddr: 0xDF1AE8, symSize: 0x14 }
  - { offset: 0x4F6CCC, size: 0x8, addend: 0x0, symName: '__ZNSt3__110__function6__funcIZN4onnxL28ArgReduceDocGenerator_opset1EPKcE3$_0NS_9allocatorIS5_EEFvRNS2_8OpSchemaEEE7destroyEv', symObjAddr: 0xCC0C, symBinAddr: 0xDF1AFC, symSize: 0x4 }
  - { offset: 0x4F6D1B, size: 0x8, addend: 0x0, symName: '__ZNSt3__110__function6__funcIZN4onnxL28ArgReduceDocGenerator_opset1EPKcE3$_0NS_9allocatorIS5_EEFvRNS2_8OpSchemaEEE18destroy_deallocateEv', symObjAddr: 0xCC10, symBinAddr: 0xDF1B00, symSize: 0x4 }
  - { offset: 0x4F6D4E, size: 0x8, addend: 0x0, symName: '__ZNSt3__110__function6__funcIZN4onnxL28ArgReduceDocGenerator_opset1EPKcE3$_0NS_9allocatorIS5_EEFvRNS2_8OpSchemaEEE18destroy_deallocateEv', symObjAddr: 0xCC10, symBinAddr: 0xDF1B00, symSize: 0x4 }
  - { offset: 0x4F6D70, size: 0x8, addend: 0x0, symName: '__ZNSt3__110__function6__funcIZN4onnxL28ArgReduceDocGenerator_opset1EPKcE3$_0NS_9allocatorIS5_EEFvRNS2_8OpSchemaEEE18destroy_deallocateEv', symObjAddr: 0xCC10, symBinAddr: 0xDF1B00, symSize: 0x4 }
  - { offset: 0x4F6D9B, size: 0x8, addend: 0x0, symName: '__ZNSt3__110__function6__funcIZN4onnxL28ArgReduceDocGenerator_opset1EPKcE3$_0NS_9allocatorIS5_EEFvRNS2_8OpSchemaEEE18destroy_deallocateEv', symObjAddr: 0xCC10, symBinAddr: 0xDF1B00, symSize: 0x4 }
  - { offset: 0x4F6DC1, size: 0x8, addend: 0x0, symName: '__ZNSt3__110__function6__funcIZN4onnxL28ArgReduceDocGenerator_opset1EPKcE3$_0NS_9allocatorIS5_EEFvRNS2_8OpSchemaEEE18destroy_deallocateEv', symObjAddr: 0xCC10, symBinAddr: 0xDF1B00, symSize: 0x4 }
  - { offset: 0x4F7021, size: 0x8, addend: 0x0, symName: '__ZNSt3__110__function6__funcIZN4onnxL28ArgReduceDocGenerator_opset1EPKcE3$_0NS_9allocatorIS5_EEFvRNS2_8OpSchemaEEEclES9_', symObjAddr: 0xCC14, symBinAddr: 0xDF1B04, symSize: 0x338 }
  - { offset: 0x4F80F6, size: 0x8, addend: 0x0, symName: '__ZNKSt3__110__function6__funcIZN4onnxL28ArgReduceDocGenerator_opset1EPKcE3$_0NS_9allocatorIS5_EEFvRNS2_8OpSchemaEEE6targetERKSt9type_info', symObjAddr: 0xCF4C, symBinAddr: 0xDF1E3C, symSize: 0x64 }
  - { offset: 0x4F81A9, size: 0x8, addend: 0x0, symName: '__ZNKSt3__110__function6__funcIZN4onnxL28ArgReduceDocGenerator_opset1EPKcE3$_0NS_9allocatorIS5_EEFvRNS2_8OpSchemaEEE11target_typeEv', symObjAddr: 0xCFB0, symBinAddr: 0xDF1EA0, symSize: 0xC }
  - { offset: 0x4F81CC, size: 0x8, addend: 0x0, symName: '__ZNSt3__110__function6__funcIZZN4onnxL28ArgReduceDocGenerator_opset1EPKcENK3$_0clERNS2_8OpSchemaEEUlRNS2_16InferenceContextEE_NS_9allocatorISA_EEFvS9_EED1Ev', symObjAddr: 0xCFBC, symBinAddr: 0xDF1EAC, symSize: 0x4 }
  - { offset: 0x4F81F7, size: 0x8, addend: 0x0, symName: '__ZNSt3__110__function6__funcIZZN4onnxL28ArgReduceDocGenerator_opset1EPKcENK3$_0clERNS2_8OpSchemaEEUlRNS2_16InferenceContextEE_NS_9allocatorISA_EEFvS9_EED0Ev', symObjAddr: 0xCFC0, symBinAddr: 0xDF1EB0, symSize: 0x4 }
  - { offset: 0x4F82AC, size: 0x8, addend: 0x0, symName: '__ZNKSt3__110__function6__funcIZZN4onnxL28ArgReduceDocGenerator_opset1EPKcENK3$_0clERNS2_8OpSchemaEEUlRNS2_16InferenceContextEE_NS_9allocatorISA_EEFvS9_EE7__cloneEv', symObjAddr: 0xCFC4, symBinAddr: 0xDF1EB4, symSize: 0x24 }
  - { offset: 0x4F83EF, size: 0x8, addend: 0x0, symName: '__ZNKSt3__110__function6__funcIZZN4onnxL28ArgReduceDocGenerator_opset1EPKcENK3$_0clERNS2_8OpSchemaEEUlRNS2_16InferenceContextEE_NS_9allocatorISA_EEFvS9_EE7__cloneEPNS0_6__baseISD_EE', symObjAddr: 0xCFE8, symBinAddr: 0xDF1ED8, symSize: 0x10 }
  - { offset: 0x4F8423, size: 0x8, addend: 0x0, symName: '__ZNKSt3__110__function6__funcIZZN4onnxL28ArgReduceDocGenerator_opset1EPKcENK3$_0clERNS2_8OpSchemaEEUlRNS2_16InferenceContextEE_NS_9allocatorISA_EEFvS9_EE7__cloneEPNS0_6__baseISD_EE', symObjAddr: 0xCFE8, symBinAddr: 0xDF1ED8, symSize: 0x10 }
  - { offset: 0x4F843F, size: 0x8, addend: 0x0, symName: '__ZNKSt3__110__function6__funcIZZN4onnxL28ArgReduceDocGenerator_opset1EPKcENK3$_0clERNS2_8OpSchemaEEUlRNS2_16InferenceContextEE_NS_9allocatorISA_EEFvS9_EE7__cloneEPNS0_6__baseISD_EE', symObjAddr: 0xCFE8, symBinAddr: 0xDF1ED8, symSize: 0x10 }
  - { offset: 0x4F845B, size: 0x8, addend: 0x0, symName: '__ZNSt3__110__function6__funcIZZN4onnxL28ArgReduceDocGenerator_opset1EPKcENK3$_0clERNS2_8OpSchemaEEUlRNS2_16InferenceContextEE_NS_9allocatorISA_EEFvS9_EE7destroyEv', symObjAddr: 0xCFF8, symBinAddr: 0xDF1EE8, symSize: 0x4 }
  - { offset: 0x4F84AA, size: 0x8, addend: 0x0, symName: '__ZNSt3__110__function6__funcIZZN4onnxL28ArgReduceDocGenerator_opset1EPKcENK3$_0clERNS2_8OpSchemaEEUlRNS2_16InferenceContextEE_NS_9allocatorISA_EEFvS9_EE18destroy_deallocateEv', symObjAddr: 0xCFFC, symBinAddr: 0xDF1EEC, symSize: 0x4 }
  - { offset: 0x4F84DD, size: 0x8, addend: 0x0, symName: '__ZNSt3__110__function6__funcIZZN4onnxL28ArgReduceDocGenerator_opset1EPKcENK3$_0clERNS2_8OpSchemaEEUlRNS2_16InferenceContextEE_NS_9allocatorISA_EEFvS9_EE18destroy_deallocateEv', symObjAddr: 0xCFFC, symBinAddr: 0xDF1EEC, symSize: 0x4 }
  - { offset: 0x4F84FF, size: 0x8, addend: 0x0, symName: '__ZNSt3__110__function6__funcIZZN4onnxL28ArgReduceDocGenerator_opset1EPKcENK3$_0clERNS2_8OpSchemaEEUlRNS2_16InferenceContextEE_NS_9allocatorISA_EEFvS9_EE18destroy_deallocateEv', symObjAddr: 0xCFFC, symBinAddr: 0xDF1EEC, symSize: 0x4 }
  - { offset: 0x4F852A, size: 0x8, addend: 0x0, symName: '__ZNSt3__110__function6__funcIZZN4onnxL28ArgReduceDocGenerator_opset1EPKcENK3$_0clERNS2_8OpSchemaEEUlRNS2_16InferenceContextEE_NS_9allocatorISA_EEFvS9_EE18destroy_deallocateEv', symObjAddr: 0xCFFC, symBinAddr: 0xDF1EEC, symSize: 0x4 }
  - { offset: 0x4F8550, size: 0x8, addend: 0x0, symName: '__ZNSt3__110__function6__funcIZZN4onnxL28ArgReduceDocGenerator_opset1EPKcENK3$_0clERNS2_8OpSchemaEEUlRNS2_16InferenceContextEE_NS_9allocatorISA_EEFvS9_EE18destroy_deallocateEv', symObjAddr: 0xCFFC, symBinAddr: 0xDF1EEC, symSize: 0x4 }
  - { offset: 0x4F8678, size: 0x8, addend: 0x0, symName: '__ZNSt3__110__function6__funcIZZN4onnxL28ArgReduceDocGenerator_opset1EPKcENK3$_0clERNS2_8OpSchemaEEUlRNS2_16InferenceContextEE_NS_9allocatorISA_EEFvS9_EEclES9_', symObjAddr: 0xD000, symBinAddr: 0xDF1EF0, symSize: 0x478 }
  - { offset: 0x4F93EA, size: 0x8, addend: 0x0, symName: '__ZNKSt3__110__function6__funcIZZN4onnxL28ArgReduceDocGenerator_opset1EPKcENK3$_0clERNS2_8OpSchemaEEUlRNS2_16InferenceContextEE_NS_9allocatorISA_EEFvS9_EE6targetERKSt9type_info', symObjAddr: 0xD478, symBinAddr: 0xDF2368, symSize: 0x64 }
  - { offset: 0x4F949D, size: 0x8, addend: 0x0, symName: '__ZNKSt3__110__function6__funcIZZN4onnxL28ArgReduceDocGenerator_opset1EPKcENK3$_0clERNS2_8OpSchemaEEUlRNS2_16InferenceContextEE_NS_9allocatorISA_EEFvS9_EE11target_typeEv', symObjAddr: 0xD4DC, symBinAddr: 0xDF23CC, symSize: 0xC }
  - { offset: 0x4F94C0, size: 0x8, addend: 0x0, symName: '__ZNSt3__110__function6__funcIZN4onnxL29ArgReduceDocGenerator_opset11EPKcE3$_0NS_9allocatorIS5_EEFvRNS2_8OpSchemaEEED1Ev', symObjAddr: 0xD4E8, symBinAddr: 0xDF23D8, symSize: 0x4 }
  - { offset: 0x4F94EB, size: 0x8, addend: 0x0, symName: '__ZNSt3__110__function6__funcIZN4onnxL29ArgReduceDocGenerator_opset11EPKcE3$_0NS_9allocatorIS5_EEFvRNS2_8OpSchemaEEED0Ev', symObjAddr: 0xD4EC, symBinAddr: 0xDF23DC, symSize: 0x4 }
  - { offset: 0x4F95A0, size: 0x8, addend: 0x0, symName: '__ZNKSt3__110__function6__funcIZN4onnxL29ArgReduceDocGenerator_opset11EPKcE3$_0NS_9allocatorIS5_EEFvRNS2_8OpSchemaEEE7__cloneEv', symObjAddr: 0xD4F0, symBinAddr: 0xDF23E0, symSize: 0x34 }
  - { offset: 0x4F96E7, size: 0x8, addend: 0x0, symName: '__ZNKSt3__110__function6__funcIZN4onnxL29ArgReduceDocGenerator_opset11EPKcE3$_0NS_9allocatorIS5_EEFvRNS2_8OpSchemaEEE7__cloneEPNS0_6__baseISA_EE', symObjAddr: 0xD524, symBinAddr: 0xDF2414, symSize: 0x14 }
  - { offset: 0x4F9755, size: 0x8, addend: 0x0, symName: '__ZNSt3__110__function6__funcIZN4onnxL29ArgReduceDocGenerator_opset11EPKcE3$_0NS_9allocatorIS5_EEFvRNS2_8OpSchemaEEE7destroyEv', symObjAddr: 0xD538, symBinAddr: 0xDF2428, symSize: 0x4 }
  - { offset: 0x4F97A4, size: 0x8, addend: 0x0, symName: '__ZNSt3__110__function6__funcIZN4onnxL29ArgReduceDocGenerator_opset11EPKcE3$_0NS_9allocatorIS5_EEFvRNS2_8OpSchemaEEE18destroy_deallocateEv', symObjAddr: 0xD53C, symBinAddr: 0xDF242C, symSize: 0x4 }
  - { offset: 0x4F97D7, size: 0x8, addend: 0x0, symName: '__ZNSt3__110__function6__funcIZN4onnxL29ArgReduceDocGenerator_opset11EPKcE3$_0NS_9allocatorIS5_EEFvRNS2_8OpSchemaEEE18destroy_deallocateEv', symObjAddr: 0xD53C, symBinAddr: 0xDF242C, symSize: 0x4 }
  - { offset: 0x4F97F9, size: 0x8, addend: 0x0, symName: '__ZNSt3__110__function6__funcIZN4onnxL29ArgReduceDocGenerator_opset11EPKcE3$_0NS_9allocatorIS5_EEFvRNS2_8OpSchemaEEE18destroy_deallocateEv', symObjAddr: 0xD53C, symBinAddr: 0xDF242C, symSize: 0x4 }
  - { offset: 0x4F9824, size: 0x8, addend: 0x0, symName: '__ZNSt3__110__function6__funcIZN4onnxL29ArgReduceDocGenerator_opset11EPKcE3$_0NS_9allocatorIS5_EEFvRNS2_8OpSchemaEEE18destroy_deallocateEv', symObjAddr: 0xD53C, symBinAddr: 0xDF242C, symSize: 0x4 }
  - { offset: 0x4F984A, size: 0x8, addend: 0x0, symName: '__ZNSt3__110__function6__funcIZN4onnxL29ArgReduceDocGenerator_opset11EPKcE3$_0NS_9allocatorIS5_EEFvRNS2_8OpSchemaEEE18destroy_deallocateEv', symObjAddr: 0xD53C, symBinAddr: 0xDF242C, symSize: 0x4 }
  - { offset: 0x4F9AAA, size: 0x8, addend: 0x0, symName: '__ZNSt3__110__function6__funcIZN4onnxL29ArgReduceDocGenerator_opset11EPKcE3$_0NS_9allocatorIS5_EEFvRNS2_8OpSchemaEEEclES9_', symObjAddr: 0xD540, symBinAddr: 0xDF2430, symSize: 0x34C }
  - { offset: 0x4FAC51, size: 0x8, addend: 0x0, symName: '__ZNKSt3__110__function6__funcIZN4onnxL29ArgReduceDocGenerator_opset11EPKcE3$_0NS_9allocatorIS5_EEFvRNS2_8OpSchemaEEE6targetERKSt9type_info', symObjAddr: 0xD88C, symBinAddr: 0xDF277C, symSize: 0x64 }
  - { offset: 0x4FAD04, size: 0x8, addend: 0x0, symName: '__ZNKSt3__110__function6__funcIZN4onnxL29ArgReduceDocGenerator_opset11EPKcE3$_0NS_9allocatorIS5_EEFvRNS2_8OpSchemaEEE11target_typeEv', symObjAddr: 0xD8F0, symBinAddr: 0xDF27E0, symSize: 0xC }
  - { offset: 0x4FAD27, size: 0x8, addend: 0x0, symName: '__ZNSt3__110__function6__funcIZZN4onnxL29ArgReduceDocGenerator_opset11EPKcENK3$_0clERNS2_8OpSchemaEEUlRNS2_16InferenceContextEE_NS_9allocatorISA_EEFvS9_EED1Ev', symObjAddr: 0xD8FC, symBinAddr: 0xDF27EC, symSize: 0x4 }
  - { offset: 0x4FAD52, size: 0x8, addend: 0x0, symName: '__ZNSt3__110__function6__funcIZZN4onnxL29ArgReduceDocGenerator_opset11EPKcENK3$_0clERNS2_8OpSchemaEEUlRNS2_16InferenceContextEE_NS_9allocatorISA_EEFvS9_EED0Ev', symObjAddr: 0xD900, symBinAddr: 0xDF27F0, symSize: 0x4 }
  - { offset: 0x4FAE07, size: 0x8, addend: 0x0, symName: '__ZNKSt3__110__function6__funcIZZN4onnxL29ArgReduceDocGenerator_opset11EPKcENK3$_0clERNS2_8OpSchemaEEUlRNS2_16InferenceContextEE_NS_9allocatorISA_EEFvS9_EE7__cloneEv', symObjAddr: 0xD904, symBinAddr: 0xDF27F4, symSize: 0x24 }
  - { offset: 0x4FAF4A, size: 0x8, addend: 0x0, symName: '__ZNKSt3__110__function6__funcIZZN4onnxL29ArgReduceDocGenerator_opset11EPKcENK3$_0clERNS2_8OpSchemaEEUlRNS2_16InferenceContextEE_NS_9allocatorISA_EEFvS9_EE7__cloneEPNS0_6__baseISD_EE', symObjAddr: 0xD928, symBinAddr: 0xDF2818, symSize: 0x10 }
  - { offset: 0x4FAF7E, size: 0x8, addend: 0x0, symName: '__ZNKSt3__110__function6__funcIZZN4onnxL29ArgReduceDocGenerator_opset11EPKcENK3$_0clERNS2_8OpSchemaEEUlRNS2_16InferenceContextEE_NS_9allocatorISA_EEFvS9_EE7__cloneEPNS0_6__baseISD_EE', symObjAddr: 0xD928, symBinAddr: 0xDF2818, symSize: 0x10 }
  - { offset: 0x4FAF9A, size: 0x8, addend: 0x0, symName: '__ZNKSt3__110__function6__funcIZZN4onnxL29ArgReduceDocGenerator_opset11EPKcENK3$_0clERNS2_8OpSchemaEEUlRNS2_16InferenceContextEE_NS_9allocatorISA_EEFvS9_EE7__cloneEPNS0_6__baseISD_EE', symObjAddr: 0xD928, symBinAddr: 0xDF2818, symSize: 0x10 }
  - { offset: 0x4FAFB6, size: 0x8, addend: 0x0, symName: '__ZNSt3__110__function6__funcIZZN4onnxL29ArgReduceDocGenerator_opset11EPKcENK3$_0clERNS2_8OpSchemaEEUlRNS2_16InferenceContextEE_NS_9allocatorISA_EEFvS9_EE7destroyEv', symObjAddr: 0xD938, symBinAddr: 0xDF2828, symSize: 0x4 }
  - { offset: 0x4FB005, size: 0x8, addend: 0x0, symName: '__ZNSt3__110__function6__funcIZZN4onnxL29ArgReduceDocGenerator_opset11EPKcENK3$_0clERNS2_8OpSchemaEEUlRNS2_16InferenceContextEE_NS_9allocatorISA_EEFvS9_EE18destroy_deallocateEv', symObjAddr: 0xD93C, symBinAddr: 0xDF282C, symSize: 0x4 }
  - { offset: 0x4FB038, size: 0x8, addend: 0x0, symName: '__ZNSt3__110__function6__funcIZZN4onnxL29ArgReduceDocGenerator_opset11EPKcENK3$_0clERNS2_8OpSchemaEEUlRNS2_16InferenceContextEE_NS_9allocatorISA_EEFvS9_EE18destroy_deallocateEv', symObjAddr: 0xD93C, symBinAddr: 0xDF282C, symSize: 0x4 }
  - { offset: 0x4FB05A, size: 0x8, addend: 0x0, symName: '__ZNSt3__110__function6__funcIZZN4onnxL29ArgReduceDocGenerator_opset11EPKcENK3$_0clERNS2_8OpSchemaEEUlRNS2_16InferenceContextEE_NS_9allocatorISA_EEFvS9_EE18destroy_deallocateEv', symObjAddr: 0xD93C, symBinAddr: 0xDF282C, symSize: 0x4 }
  - { offset: 0x4FB085, size: 0x8, addend: 0x0, symName: '__ZNSt3__110__function6__funcIZZN4onnxL29ArgReduceDocGenerator_opset11EPKcENK3$_0clERNS2_8OpSchemaEEUlRNS2_16InferenceContextEE_NS_9allocatorISA_EEFvS9_EE18destroy_deallocateEv', symObjAddr: 0xD93C, symBinAddr: 0xDF282C, symSize: 0x4 }
  - { offset: 0x4FB0AB, size: 0x8, addend: 0x0, symName: '__ZNSt3__110__function6__funcIZZN4onnxL29ArgReduceDocGenerator_opset11EPKcENK3$_0clERNS2_8OpSchemaEEUlRNS2_16InferenceContextEE_NS_9allocatorISA_EEFvS9_EE18destroy_deallocateEv', symObjAddr: 0xD93C, symBinAddr: 0xDF282C, symSize: 0x4 }
  - { offset: 0x4FB1D3, size: 0x8, addend: 0x0, symName: '__ZNSt3__110__function6__funcIZZN4onnxL29ArgReduceDocGenerator_opset11EPKcENK3$_0clERNS2_8OpSchemaEEUlRNS2_16InferenceContextEE_NS_9allocatorISA_EEFvS9_EEclES9_', symObjAddr: 0xD940, symBinAddr: 0xDF2830, symSize: 0x528 }
  - { offset: 0x4FC150, size: 0x8, addend: 0x0, symName: '__ZNKSt3__110__function6__funcIZZN4onnxL29ArgReduceDocGenerator_opset11EPKcENK3$_0clERNS2_8OpSchemaEEUlRNS2_16InferenceContextEE_NS_9allocatorISA_EEFvS9_EE6targetERKSt9type_info', symObjAddr: 0xDE68, symBinAddr: 0xDF2D58, symSize: 0x64 }
  - { offset: 0x4FC203, size: 0x8, addend: 0x0, symName: '__ZNKSt3__110__function6__funcIZZN4onnxL29ArgReduceDocGenerator_opset11EPKcENK3$_0clERNS2_8OpSchemaEEUlRNS2_16InferenceContextEE_NS_9allocatorISA_EEFvS9_EE11target_typeEv', symObjAddr: 0xDECC, symBinAddr: 0xDF2DBC, symSize: 0xC }
  - { offset: 0x52218F, size: 0x8, addend: 0x0, symName: __ZN4onnx17ReduceOpGeneratorEPKcS1_bbS1_RKNSt3__18functionIFbRKNS_24FunctionBodyBuildContextERKNS_8OpSchemaERNS_13FunctionProtoEEEEb, symObjAddr: 0x0, symBinAddr: 0xDF2DC8, symSize: 0x1A8 }
  - { offset: 0x53004F, size: 0x8, addend: 0x0, symName: '__ZNSt3__110__function6__funcIZN4onnx17ReduceOpGeneratorEPKcS4_bbS4_RKNS_8functionIFbRKNS2_24FunctionBodyBuildContextERKNS2_8OpSchemaERNS2_13FunctionProtoEEEEbE3$_0NS_9allocatorISI_EEFvRS9_EED1Ev', symObjAddr: 0x1E0, symBinAddr: 0xDF2F70, symSize: 0x58 }
  - { offset: 0x530202, size: 0x8, addend: 0x0, symName: '__ZNSt3__110__function6__funcIZN4onnx17ReduceOpGeneratorEPKcS4_bbS4_RKNS_8functionIFbRKNS2_24FunctionBodyBuildContextERKNS2_8OpSchemaERNS2_13FunctionProtoEEEEbE3$_0NS_9allocatorISI_EEFvRS9_EED0Ev', symObjAddr: 0x238, symBinAddr: 0xDF2FC8, symSize: 0x58 }
  - { offset: 0x53064E, size: 0x8, addend: 0x0, symName: '__ZNKSt3__110__function6__funcIZN4onnx17ReduceOpGeneratorEPKcS4_bbS4_RKNS_8functionIFbRKNS2_24FunctionBodyBuildContextERKNS2_8OpSchemaERNS2_13FunctionProtoEEEEbE3$_0NS_9allocatorISI_EEFvRS9_EE7__cloneEv', symObjAddr: 0x290, symBinAddr: 0xDF3020, symSize: 0xAC }
  - { offset: 0x530B15, size: 0x8, addend: 0x0, symName: '__ZNKSt3__110__function6__funcIZN4onnx17ReduceOpGeneratorEPKcS4_bbS4_RKNS_8functionIFbRKNS2_24FunctionBodyBuildContextERKNS2_8OpSchemaERNS2_13FunctionProtoEEEEbE3$_0NS_9allocatorISI_EEFvRS9_EE7__cloneEPNS0_6__baseISM_EE', symObjAddr: 0x33C, symBinAddr: 0xDF30CC, symSize: 0x98 }
  - { offset: 0x530D13, size: 0x8, addend: 0x0, symName: '__ZNSt3__110__function6__funcIZN4onnx17ReduceOpGeneratorEPKcS4_bbS4_RKNS_8functionIFbRKNS2_24FunctionBodyBuildContextERKNS2_8OpSchemaERNS2_13FunctionProtoEEEEbE3$_0NS_9allocatorISI_EEFvRS9_EE7destroyEv', symObjAddr: 0x3D4, symBinAddr: 0xDF3164, symSize: 0x38 }
  - { offset: 0x530D3C, size: 0x8, addend: 0x0, symName: '__ZNSt3__110__function6__funcIZN4onnx17ReduceOpGeneratorEPKcS4_bbS4_RKNS_8functionIFbRKNS2_24FunctionBodyBuildContextERKNS2_8OpSchemaERNS2_13FunctionProtoEEEEbE3$_0NS_9allocatorISI_EEFvRS9_EE7destroyEv', symObjAddr: 0x3D4, symBinAddr: 0xDF3164, symSize: 0x38 }
  - { offset: 0x530D5A, size: 0x8, addend: 0x0, symName: '__ZNSt3__110__function6__funcIZN4onnx17ReduceOpGeneratorEPKcS4_bbS4_RKNS_8functionIFbRKNS2_24FunctionBodyBuildContextERKNS2_8OpSchemaERNS2_13FunctionProtoEEEEbE3$_0NS_9allocatorISI_EEFvRS9_EE7destroyEv', symObjAddr: 0x3D4, symBinAddr: 0xDF3164, symSize: 0x38 }
  - { offset: 0x530D77, size: 0x8, addend: 0x0, symName: '__ZNSt3__110__function6__funcIZN4onnx17ReduceOpGeneratorEPKcS4_bbS4_RKNS_8functionIFbRKNS2_24FunctionBodyBuildContextERKNS2_8OpSchemaERNS2_13FunctionProtoEEEEbE3$_0NS_9allocatorISI_EEFvRS9_EE7destroyEv', symObjAddr: 0x3D4, symBinAddr: 0xDF3164, symSize: 0x38 }
  - { offset: 0x530D94, size: 0x8, addend: 0x0, symName: '__ZNSt3__110__function6__funcIZN4onnx17ReduceOpGeneratorEPKcS4_bbS4_RKNS_8functionIFbRKNS2_24FunctionBodyBuildContextERKNS2_8OpSchemaERNS2_13FunctionProtoEEEEbE3$_0NS_9allocatorISI_EEFvRS9_EE7destroyEv', symObjAddr: 0x3D4, symBinAddr: 0xDF3164, symSize: 0x38 }
  - { offset: 0x530DB1, size: 0x8, addend: 0x0, symName: '__ZNSt3__110__function6__funcIZN4onnx17ReduceOpGeneratorEPKcS4_bbS4_RKNS_8functionIFbRKNS2_24FunctionBodyBuildContextERKNS2_8OpSchemaERNS2_13FunctionProtoEEEEbE3$_0NS_9allocatorISI_EEFvRS9_EE7destroyEv', symObjAddr: 0x3D4, symBinAddr: 0xDF3164, symSize: 0x38 }
  - { offset: 0x530DCE, size: 0x8, addend: 0x0, symName: '__ZNSt3__110__function6__funcIZN4onnx17ReduceOpGeneratorEPKcS4_bbS4_RKNS_8functionIFbRKNS2_24FunctionBodyBuildContextERKNS2_8OpSchemaERNS2_13FunctionProtoEEEEbE3$_0NS_9allocatorISI_EEFvRS9_EE7destroyEv', symObjAddr: 0x3D4, symBinAddr: 0xDF3164, symSize: 0x38 }
  - { offset: 0x530E82, size: 0x8, addend: 0x0, symName: '__ZNSt3__110__function6__funcIZN4onnx17ReduceOpGeneratorEPKcS4_bbS4_RKNS_8functionIFbRKNS2_24FunctionBodyBuildContextERKNS2_8OpSchemaERNS2_13FunctionProtoEEEEbE3$_0NS_9allocatorISI_EEFvRS9_EE18destroy_deallocateEv', symObjAddr: 0x40C, symBinAddr: 0xDF319C, symSize: 0x4C }
  - { offset: 0x5319DB, size: 0x8, addend: 0x0, symName: '__ZNSt3__110__function6__funcIZN4onnx17ReduceOpGeneratorEPKcS4_bbS4_RKNS_8functionIFbRKNS2_24FunctionBodyBuildContextERKNS2_8OpSchemaERNS2_13FunctionProtoEEEEbE3$_0NS_9allocatorISI_EEFvRS9_EEclESL_', symObjAddr: 0x458, symBinAddr: 0xDF31E8, symSize: 0x5D0 }
  - { offset: 0x5343C1, size: 0x8, addend: 0x0, symName: '__ZNKSt3__110__function6__funcIZN4onnx17ReduceOpGeneratorEPKcS4_bbS4_RKNS_8functionIFbRKNS2_24FunctionBodyBuildContextERKNS2_8OpSchemaERNS2_13FunctionProtoEEEEbE3$_0NS_9allocatorISI_EEFvRS9_EE6targetERKSt9type_info', symObjAddr: 0xA28, symBinAddr: 0xDF37B8, symSize: 0x64 }
  - { offset: 0x53448B, size: 0x8, addend: 0x0, symName: '__ZNKSt3__110__function6__funcIZN4onnx17ReduceOpGeneratorEPKcS4_bbS4_RKNS_8functionIFbRKNS2_24FunctionBodyBuildContextERKNS2_8OpSchemaERNS2_13FunctionProtoEEEEbE3$_0NS_9allocatorISI_EEFvRS9_EE11target_typeEv', symObjAddr: 0xA8C, symBinAddr: 0xDF381C, symSize: 0xC }
  - { offset: 0x5354B8, size: 0x8, addend: 0x0, symName: '__ZNSt3__110__function6__funcIZZN4onnx17ReduceOpGeneratorEPKcS4_bbS4_RKNS_8functionIFbRKNS2_24FunctionBodyBuildContextERKNS2_8OpSchemaERNS2_13FunctionProtoEEEEbENK3$_0clERS9_EUlRNS2_16InferenceContextEE_NS_9allocatorISM_EEFvSL_EED1Ev', symObjAddr: 0x15C4, symBinAddr: 0xDF3828, symSize: 0x4 }
  - { offset: 0x5354E3, size: 0x8, addend: 0x0, symName: '__ZNSt3__110__function6__funcIZZN4onnx17ReduceOpGeneratorEPKcS4_bbS4_RKNS_8functionIFbRKNS2_24FunctionBodyBuildContextERKNS2_8OpSchemaERNS2_13FunctionProtoEEEEbENK3$_0clERS9_EUlRNS2_16InferenceContextEE_NS_9allocatorISM_EEFvSL_EED0Ev', symObjAddr: 0x15C8, symBinAddr: 0xDF382C, symSize: 0x4 }
  - { offset: 0x535598, size: 0x8, addend: 0x0, symName: '__ZNKSt3__110__function6__funcIZZN4onnx17ReduceOpGeneratorEPKcS4_bbS4_RKNS_8functionIFbRKNS2_24FunctionBodyBuildContextERKNS2_8OpSchemaERNS2_13FunctionProtoEEEEbENK3$_0clERS9_EUlRNS2_16InferenceContextEE_NS_9allocatorISM_EEFvSL_EE7__cloneEv', symObjAddr: 0x15CC, symBinAddr: 0xDF3830, symSize: 0x24 }
  - { offset: 0x5356DB, size: 0x8, addend: 0x0, symName: '__ZNKSt3__110__function6__funcIZZN4onnx17ReduceOpGeneratorEPKcS4_bbS4_RKNS_8functionIFbRKNS2_24FunctionBodyBuildContextERKNS2_8OpSchemaERNS2_13FunctionProtoEEEEbENK3$_0clERS9_EUlRNS2_16InferenceContextEE_NS_9allocatorISM_EEFvSL_EE7__cloneEPNS0_6__baseISP_EE', symObjAddr: 0x15F0, symBinAddr: 0xDF3854, symSize: 0x10 }
  - { offset: 0x53570F, size: 0x8, addend: 0x0, symName: '__ZNKSt3__110__function6__funcIZZN4onnx17ReduceOpGeneratorEPKcS4_bbS4_RKNS_8functionIFbRKNS2_24FunctionBodyBuildContextERKNS2_8OpSchemaERNS2_13FunctionProtoEEEEbENK3$_0clERS9_EUlRNS2_16InferenceContextEE_NS_9allocatorISM_EEFvSL_EE7__cloneEPNS0_6__baseISP_EE', symObjAddr: 0x15F0, symBinAddr: 0xDF3854, symSize: 0x10 }
  - { offset: 0x53572B, size: 0x8, addend: 0x0, symName: '__ZNKSt3__110__function6__funcIZZN4onnx17ReduceOpGeneratorEPKcS4_bbS4_RKNS_8functionIFbRKNS2_24FunctionBodyBuildContextERKNS2_8OpSchemaERNS2_13FunctionProtoEEEEbENK3$_0clERS9_EUlRNS2_16InferenceContextEE_NS_9allocatorISM_EEFvSL_EE7__cloneEPNS0_6__baseISP_EE', symObjAddr: 0x15F0, symBinAddr: 0xDF3854, symSize: 0x10 }
  - { offset: 0x535747, size: 0x8, addend: 0x0, symName: '__ZNSt3__110__function6__funcIZZN4onnx17ReduceOpGeneratorEPKcS4_bbS4_RKNS_8functionIFbRKNS2_24FunctionBodyBuildContextERKNS2_8OpSchemaERNS2_13FunctionProtoEEEEbENK3$_0clERS9_EUlRNS2_16InferenceContextEE_NS_9allocatorISM_EEFvSL_EE7destroyEv', symObjAddr: 0x1600, symBinAddr: 0xDF3864, symSize: 0x4 }
  - { offset: 0x535796, size: 0x8, addend: 0x0, symName: '__ZNSt3__110__function6__funcIZZN4onnx17ReduceOpGeneratorEPKcS4_bbS4_RKNS_8functionIFbRKNS2_24FunctionBodyBuildContextERKNS2_8OpSchemaERNS2_13FunctionProtoEEEEbENK3$_0clERS9_EUlRNS2_16InferenceContextEE_NS_9allocatorISM_EEFvSL_EE18destroy_deallocateEv', symObjAddr: 0x1604, symBinAddr: 0xDF3868, symSize: 0x4 }
  - { offset: 0x5357C9, size: 0x8, addend: 0x0, symName: '__ZNSt3__110__function6__funcIZZN4onnx17ReduceOpGeneratorEPKcS4_bbS4_RKNS_8functionIFbRKNS2_24FunctionBodyBuildContextERKNS2_8OpSchemaERNS2_13FunctionProtoEEEEbENK3$_0clERS9_EUlRNS2_16InferenceContextEE_NS_9allocatorISM_EEFvSL_EE18destroy_deallocateEv', symObjAddr: 0x1604, symBinAddr: 0xDF3868, symSize: 0x4 }
  - { offset: 0x5357EB, size: 0x8, addend: 0x0, symName: '__ZNSt3__110__function6__funcIZZN4onnx17ReduceOpGeneratorEPKcS4_bbS4_RKNS_8functionIFbRKNS2_24FunctionBodyBuildContextERKNS2_8OpSchemaERNS2_13FunctionProtoEEEEbENK3$_0clERS9_EUlRNS2_16InferenceContextEE_NS_9allocatorISM_EEFvSL_EE18destroy_deallocateEv', symObjAddr: 0x1604, symBinAddr: 0xDF3868, symSize: 0x4 }
  - { offset: 0x535816, size: 0x8, addend: 0x0, symName: '__ZNSt3__110__function6__funcIZZN4onnx17ReduceOpGeneratorEPKcS4_bbS4_RKNS_8functionIFbRKNS2_24FunctionBodyBuildContextERKNS2_8OpSchemaERNS2_13FunctionProtoEEEEbENK3$_0clERS9_EUlRNS2_16InferenceContextEE_NS_9allocatorISM_EEFvSL_EE18destroy_deallocateEv', symObjAddr: 0x1604, symBinAddr: 0xDF3868, symSize: 0x4 }
  - { offset: 0x53583C, size: 0x8, addend: 0x0, symName: '__ZNSt3__110__function6__funcIZZN4onnx17ReduceOpGeneratorEPKcS4_bbS4_RKNS_8functionIFbRKNS2_24FunctionBodyBuildContextERKNS2_8OpSchemaERNS2_13FunctionProtoEEEEbENK3$_0clERS9_EUlRNS2_16InferenceContextEE_NS_9allocatorISM_EEFvSL_EE18destroy_deallocateEv', symObjAddr: 0x1604, symBinAddr: 0xDF3868, symSize: 0x4 }
  - { offset: 0x5361A8, size: 0x8, addend: 0x0, symName: '__ZNSt3__110__function6__funcIZZN4onnx17ReduceOpGeneratorEPKcS4_bbS4_RKNS_8functionIFbRKNS2_24FunctionBodyBuildContextERKNS2_8OpSchemaERNS2_13FunctionProtoEEEEbENK3$_0clERS9_EUlRNS2_16InferenceContextEE_NS_9allocatorISM_EEFvSL_EEclESL_', symObjAddr: 0x1608, symBinAddr: 0xDF386C, symSize: 0x7D4 }
  - { offset: 0x5387DD, size: 0x8, addend: 0x0, symName: '__ZNKSt3__110__function6__funcIZZN4onnx17ReduceOpGeneratorEPKcS4_bbS4_RKNS_8functionIFbRKNS2_24FunctionBodyBuildContextERKNS2_8OpSchemaERNS2_13FunctionProtoEEEEbENK3$_0clERS9_EUlRNS2_16InferenceContextEE_NS_9allocatorISM_EEFvSL_EE6targetERKSt9type_info', symObjAddr: 0x1DDC, symBinAddr: 0xDF4040, symSize: 0x64 }
  - { offset: 0x538890, size: 0x8, addend: 0x0, symName: '__ZNKSt3__110__function6__funcIZZN4onnx17ReduceOpGeneratorEPKcS4_bbS4_RKNS_8functionIFbRKNS2_24FunctionBodyBuildContextERKNS2_8OpSchemaERNS2_13FunctionProtoEEEEbENK3$_0clERS9_EUlRNS2_16InferenceContextEE_NS_9allocatorISM_EEFvSL_EE11target_typeEv', symObjAddr: 0x1E40, symBinAddr: 0xDF40A4, symSize: 0xC }
  - { offset: 0x53B68E, size: 0x8, addend: 0x0, symName: __ZN4onnx16OpSchemaRegistry21loaded_schema_versionE, symObjAddr: 0x2E330, symBinAddr: 0x16A0F10, symSize: 0x0 }
  - { offset: 0x5477E5, size: 0x8, addend: 0x0, symName: __ZN4onnx14RegisterSchemaERKNS_8OpSchemaEibb, symObjAddr: 0x0, symBinAddr: 0xDFC580, symSize: 0xA0 }
  - { offset: 0x5478FF, size: 0x8, addend: 0x0, symName: __ZN4onnx14RegisterSchemaEONS_8OpSchemaEibb, symObjAddr: 0xA0, symBinAddr: 0xDFC620, symSize: 0xD0 }
  - { offset: 0x5479DC, size: 0x8, addend: 0x0, symName: __ZN4onnx16DeregisterSchemaERKNSt3__112basic_stringIcNS0_11char_traitsIcEENS0_9allocatorIcEEEEiS8_, symObjAddr: 0x658, symBinAddr: 0xDFC6F0, symSize: 0x4 }
  - { offset: 0x547A21, size: 0x8, addend: 0x0, symName: __ZN4onnx16DeregisterSchemaERKNSt3__112basic_stringIcNS0_11char_traitsIcEENS0_9allocatorIcEEEEiS8_, symObjAddr: 0x658, symBinAddr: 0xDFC6F0, symSize: 0x4 }
  - { offset: 0x547A41, size: 0x8, addend: 0x0, symName: __ZN4onnx10MakeStringIJNSt3__112basic_stringIcNS1_11char_traitsIcEENS1_9allocatorIcEEEEA24_cS7_EEES7_DpRKT_, symObjAddr: 0x1898, symBinAddr: 0xDFD8D4, symSize: 0x208 }
  - { offset: 0x548121, size: 0x8, addend: 0x0, symName: __ZN4onnx10MakeStringIJNSt3__112basic_stringIcNS1_11char_traitsIcEENS1_9allocatorIcEEEEA23_cS7_EEES7_DpRKT_, symObjAddr: 0x1AA0, symBinAddr: 0xDFDADC, symSize: 0x208 }
  - { offset: 0x548801, size: 0x8, addend: 0x0, symName: __ZN4onnx10MakeStringIJNSt3__112basic_stringIcNS1_11char_traitsIcEENS1_9allocatorIcEEEEA11_cS7_A25_cS7_EEES7_DpRKT_, symObjAddr: 0x1610, symBinAddr: 0xDFD684, symSize: 0x250 }
  - { offset: 0x5490A0, size: 0x8, addend: 0x0, symName: __ZN4onnx10MakeStringIJNSt3__112basic_stringIcNS1_11char_traitsIcEENS1_9allocatorIcEEEEA17_ciA20_ciA7_ciA3_cEEES7_DpRKT_, symObjAddr: 0x4CD0, symBinAddr: 0xE0082C, symSize: 0x278 }
  - { offset: 0x549ABB, size: 0x8, addend: 0x0, symName: __ZN4onnx10MakeStringIJNSt3__112basic_stringIcNS1_11char_traitsIcEENS1_9allocatorIcEEEEA17_ciA29_cEEES7_DpRKT_, symObjAddr: 0x4F48, symBinAddr: 0xE00AA4, symSize: 0x218 }
  - { offset: 0x54A1F6, size: 0x8, addend: 0x0, symName: __ZN4onnx10MakeStringIJNSt3__112basic_stringIcNS1_11char_traitsIcEENS1_9allocatorIcEEEEA18_ciA20_ciA7_ciA3_cEEES7_DpRKT_, symObjAddr: 0x5160, symBinAddr: 0xE00CBC, symSize: 0x278 }
  - { offset: 0x54AC11, size: 0x8, addend: 0x0, symName: __ZN4onnx10MakeStringIJNSt3__112basic_stringIcNS1_11char_traitsIcEENS1_9allocatorIcEEEEA18_ciA30_cEEES7_DpRKT_, symObjAddr: 0x53D8, symBinAddr: 0xE00F34, symSize: 0x218 }
  - { offset: 0x54B6B8, size: 0x8, addend: 0x0, symName: __ZN4onnx10MakeStringIJA7_cNSt3__112basic_stringIcNS2_11char_traitsIcEENS2_9allocatorIcEEEEA11_ciA55_cEEES8_DpRKT_, symObjAddr: 0x2E9C, symBinAddr: 0xDFEE54, symSize: 0x234 }
  - { offset: 0x54BED4, size: 0x8, addend: 0x0, symName: __ZN4onnx10MakeStringIJA7_cNSt3__112basic_stringIcNS2_11char_traitsIcEENS2_9allocatorIcEEEEA12_ciA55_cEEES8_DpRKT_, symObjAddr: 0x3338, symBinAddr: 0xDFF2F0, symSize: 0x234 }
  - { offset: 0x54C6F0, size: 0x8, addend: 0x0, symName: __ZN4onnx10MakeStringIJA12_cNSt3__112basic_stringIcNS2_11char_traitsIcEENS2_9allocatorIcEEEEA44_cEEES8_DpRKT_, symObjAddr: 0x3F18, symBinAddr: 0xDFFBE0, symSize: 0x200 }
  - { offset: 0x54CDCC, size: 0x8, addend: 0x0, symName: __ZN4onnx10MakeStringIJA21_cNSt3__112basic_stringIcNS2_11char_traitsIcEENS2_9allocatorIcEEEEA14_cEEES8_DpRKT_, symObjAddr: 0x4318, symBinAddr: 0xDFFFE0, symSize: 0x200 }
  - { offset: 0x54D8E8, size: 0x8, addend: 0x0, symName: __ZN4onnx10MakeStringIJA31_cNSt3__112basic_stringIcNS2_11char_traitsIcEENS2_9allocatorIcEEEEA15_cS8_A13_cS8_A2_cEEES8_DpRKT_, symObjAddr: 0x3998, symBinAddr: 0xDFF750, symSize: 0x290 }
  - { offset: 0x54E35E, size: 0x8, addend: 0x0, symName: __ZN4onnx10MakeStringIJA25_cNSt3__112basic_stringIcNS2_11char_traitsIcEENS2_9allocatorIcEEEEA15_cS8_EEES8_DpRKT_, symObjAddr: 0x376C, symBinAddr: 0xDFF524, symSize: 0x22C }
  - { offset: 0x54EB18, size: 0x8, addend: 0x0, symName: __ZN4onnx10MakeStringIJA11_cNSt3__112basic_stringIcNS2_11char_traitsIcEENS2_9allocatorIcEEEEA37_ciEEES8_DpRKT_, symObjAddr: 0x2A1C, symBinAddr: 0xDFE9D4, symSize: 0x218 }
  - { offset: 0x54F253, size: 0x8, addend: 0x0, symName: __ZN4onnx10MakeStringIJA7_cNSt3__112basic_stringIcNS2_11char_traitsIcEENS2_9allocatorIcEEEEA20_ciA18_cmS9_EEES8_DpRKT_, symObjAddr: 0x2C34, symBinAddr: 0xDFEBEC, symSize: 0x268 }
  - { offset: 0x54FBCB, size: 0x8, addend: 0x0, symName: __ZN4onnx10MakeStringIJA7_cNSt3__112basic_stringIcNS2_11char_traitsIcEENS2_9allocatorIcEEEEA21_ciA18_cmA20_cEEES8_DpRKT_, symObjAddr: 0x30D0, symBinAddr: 0xDFF088, symSize: 0x268 }
  - { offset: 0x550543, size: 0x8, addend: 0x0, symName: __ZN4onnx10MakeStringIJA12_cNSt3__112basic_stringIcNS2_11char_traitsIcEENS2_9allocatorIcEEEEA41_cEEES8_DpRKT_, symObjAddr: 0x4118, symBinAddr: 0xDFFDE0, symSize: 0x200 }
  - { offset: 0x550C1F, size: 0x8, addend: 0x0, symName: __ZN4onnx10MakeStringIJA12_cNSt3__112basic_stringIcNS2_11char_traitsIcEENS2_9allocatorIcEEEEA32_cEEES8_DpRKT_, symObjAddr: 0x3D18, symBinAddr: 0xDFF9E0, symSize: 0x200 }
  - { offset: 0x552C56, size: 0x8, addend: 0x0, symName: __ZN4onnx10ReplaceAllERNSt3__112basic_stringIcNS0_11char_traitsIcEENS0_9allocatorIcEEEEPKcS9_, symObjAddr: 0x1F118, symBinAddr: 0xE153C8, symSize: 0x1D4 }
  - { offset: 0x58229C, size: 0x8, addend: 0x0, symName: __ZN4onnx10MakeStringIJA12_cNSt3__112basic_stringIcNS2_11char_traitsIcEENS2_9allocatorIcEEEEA32_cEEES8_DpRKT_, symObjAddr: 0x3D18, symBinAddr: 0xDFF9E0, symSize: 0x200 }
  - { offset: 0x58579B, size: 0x8, addend: 0x0, symName: __ZNSt3__134__uninitialized_allocator_relocateB8ne190102INS_9allocatorIN4onnx8OpSchema19TypeConstraintParamEEES4_EEvRT_PT0_S9_S9_, symObjAddr: 0x26420, symBinAddr: 0xE15C30, symSize: 0x134 }
  - { offset: 0x5857F5, size: 0x8, addend: 0x0, symName: __ZNSt3__134__uninitialized_allocator_relocateB8ne190102INS_9allocatorIN4onnx8OpSchema19TypeConstraintParamEEES4_EEvRT_PT0_S9_S9_, symObjAddr: 0x26420, symBinAddr: 0xE15C30, symSize: 0x134 }
  - { offset: 0x59790B, size: 0x8, addend: 0x0, symName: __ZN4onnx16OpSchemaRegistry8InstanceEv, symObjAddr: 0xA58, symBinAddr: 0xDFCACC, symSize: 0xC }
  - { offset: 0x59792D, size: 0x8, addend: 0x0, symName: __ZZN4onnx16OpSchemaRegistry8InstanceEvE8instance, symObjAddr: 0x2E338, symBinAddr: 0x16A0F18, symSize: 0x0 }
  - { offset: 0x597938, size: 0x8, addend: 0x0, symName: __ZN4onnx8OpSchema36numeric_types_for_math_reduction_ir4Ev, symObjAddr: 0xD118, symBinAddr: 0xE06308, symSize: 0x338 }
  - { offset: 0x59795C, size: 0x8, addend: 0x0, symName: __MergedGlobals, symObjAddr: 0x4F6AD0, symBinAddr: 0x16A5CB8, symSize: 0x0 }
  - { offset: 0x597D32, size: 0x8, addend: 0x0, symName: __ZN4onnx8OpSchema32numeric_types_for_math_reductionEv, symObjAddr: 0xD450, symBinAddr: 0xE06640, symSize: 0x2F4 }
  - { offset: 0x597D56, size: 0x8, addend: 0x0, symName: __MergedGlobals, symObjAddr: 0x4F6AD0, symBinAddr: 0x16A5CB8, symSize: 0x0 }
  - { offset: 0x598118, size: 0x8, addend: 0x0, symName: __ZN4onnx8OpSchema21all_numeric_types_ir4Ev, symObjAddr: 0xF668, symBinAddr: 0xE06934, symSize: 0x450 }
  - { offset: 0x59813C, size: 0x8, addend: 0x0, symName: __MergedGlobals, symObjAddr: 0x4F6AD0, symBinAddr: 0x16A5CB8, symSize: 0x0 }
  - { offset: 0x598562, size: 0x8, addend: 0x0, symName: __ZN4onnx8OpSchema17all_numeric_typesEv, symObjAddr: 0xFAB8, symBinAddr: 0xE06D84, symSize: 0x40C }
  - { offset: 0x598586, size: 0x8, addend: 0x0, symName: __MergedGlobals, symObjAddr: 0x4F6AD0, symBinAddr: 0x16A5CB8, symSize: 0x0 }
  - { offset: 0x598998, size: 0x8, addend: 0x0, symName: __ZN4onnx8OpSchema16all_tensor_typesEv, symObjAddr: 0x102D0, symBinAddr: 0xE07190, symSize: 0x524 }
  - { offset: 0x5989BC, size: 0x8, addend: 0x0, symName: __MergedGlobals, symObjAddr: 0x4F6AD0, symBinAddr: 0x16A5CB8, symSize: 0x0 }
  - { offset: 0x598E1E, size: 0x8, addend: 0x0, symName: __ZN4onnx8OpSchema20all_tensor_types_ir4Ev, symObjAddr: 0x107F4, symBinAddr: 0xE076B4, symSize: 0x568 }
  - { offset: 0x598E42, size: 0x8, addend: 0x0, symName: __MergedGlobals, symObjAddr: 0x4F6AD0, symBinAddr: 0x16A5CB8, symSize: 0x0 }
  - { offset: 0x5992B8, size: 0x8, addend: 0x0, symName: __ZN4onnx8OpSchema43all_non_complex_numeric_types_plus_bool_ir4Ev, symObjAddr: 0x10D5C, symBinAddr: 0xE07C1C, symSize: 0x498 }
  - { offset: 0x5992DC, size: 0x8, addend: 0x0, symName: __MergedGlobals, symObjAddr: 0x4F6AD0, symBinAddr: 0x16A5CB8, symSize: 0x0 }
  - { offset: 0x599716, size: 0x8, addend: 0x0, symName: __ZN4onnx8OpSchema19all_float_types_ir4Ev, symObjAddr: 0x111F4, symBinAddr: 0xE080B4, symSize: 0x200 }
  - { offset: 0x59973A, size: 0x8, addend: 0x0, symName: __MergedGlobals, symObjAddr: 0x4F6AD0, symBinAddr: 0x16A5CB8, symSize: 0x0 }
  - { offset: 0x599AFA, size: 0x8, addend: 0x0, symName: __ZN4onnx8OpSchema30all_float_types_plus_Xint8_ir4Ev, symObjAddr: 0x113F4, symBinAddr: 0xE082B4, symSize: 0x2AC }
  - { offset: 0x599B1E, size: 0x8, addend: 0x0, symName: __MergedGlobals, symObjAddr: 0x4F6AD0, symBinAddr: 0x16A5CB8, symSize: 0x0 }
  - { offset: 0x599ECC, size: 0x8, addend: 0x0, symName: __ZN4onnx8OpSchema19all_float_types_ir9Ev, symObjAddr: 0x116A0, symBinAddr: 0xE08560, symSize: 0x338 }
  - { offset: 0x599EF0, size: 0x8, addend: 0x0, symName: __MergedGlobals, symObjAddr: 0x4F6AD0, symBinAddr: 0x16A5CB8, symSize: 0x0 }
  - { offset: 0x59A2C6, size: 0x8, addend: 0x0, symName: __ZN4onnx8OpSchema20all_tensor_types_ir9Ev, symObjAddr: 0x119D8, symBinAddr: 0xE08898, symSize: 0x680 }
  - { offset: 0x59A2EA, size: 0x8, addend: 0x0, symName: __MergedGlobals, symObjAddr: 0x4F6AD0, symBinAddr: 0x16A5CB8, symSize: 0x0 }
  - { offset: 0x59A7B0, size: 0x8, addend: 0x0, symName: __ZN4onnx8OpSchema21all_tensor_types_ir10Ev, symObjAddr: 0x12058, symBinAddr: 0xE08F18, symSize: 0x70C }
  - { offset: 0x59A7D4, size: 0x8, addend: 0x0, symName: __MergedGlobals, symObjAddr: 0x4F6AD0, symBinAddr: 0x16A5CB8, symSize: 0x0 }
  - { offset: 0x59ACC2, size: 0x8, addend: 0x0, symName: __ZN4onnx8OpSchema33all_non_complex_tensor_types_ir10Ev, symObjAddr: 0x12764, symBinAddr: 0xE09624, symSize: 0x680 }
  - { offset: 0x59ACE6, size: 0x8, addend: 0x0, symName: __MergedGlobals, symObjAddr: 0x4F6AD0, symBinAddr: 0x16A5CB8, symSize: 0x0 }
  - { offset: 0x59B1AC, size: 0x8, addend: 0x0, symName: __ZN4onnx8OpSchema21all_tensor_types_ir11Ev, symObjAddr: 0x12DE4, symBinAddr: 0xE09CA4, symSize: 0x754 }
  - { offset: 0x59B1D0, size: 0x8, addend: 0x0, symName: __MergedGlobals, symObjAddr: 0x4F6AD0, symBinAddr: 0x16A5CB8, symSize: 0x0 }
  - { offset: 0x59B6D2, size: 0x8, addend: 0x0, symName: __ZN4onnx8OpSchema33all_non_complex_tensor_types_ir11Ev, symObjAddr: 0x13538, symBinAddr: 0xE0A3F8, symSize: 0x6C8 }
  - { offset: 0x59B6F6, size: 0x8, addend: 0x0, symName: __MergedGlobals, symObjAddr: 0x4F6AD0, symBinAddr: 0x16A5CB8, symSize: 0x0 }
  - { offset: 0x59BBD0, size: 0x8, addend: 0x0, symName: __ZN4onnx8OpSchema21all_tensor_types_ir12Ev, symObjAddr: 0x13C00, symBinAddr: 0xE0AAC0, symSize: 0x798 }
  - { offset: 0x59BBF4, size: 0x8, addend: 0x0, symName: __MergedGlobals, symObjAddr: 0x4F6AD0, symBinAddr: 0x16A5CB8, symSize: 0x0 }
  - { offset: 0x59C10A, size: 0x8, addend: 0x0, symName: __ZN4onnx8OpSchema33all_non_complex_tensor_types_ir12Ev, symObjAddr: 0x14398, symBinAddr: 0xE0B258, symSize: 0x70C }
  - { offset: 0x59C12E, size: 0x8, addend: 0x0, symName: __MergedGlobals, symObjAddr: 0x4F6AD0, symBinAddr: 0x16A5CB8, symSize: 0x0 }
  - { offset: 0x59C61C, size: 0x8, addend: 0x0, symName: __ZN4onnx8OpSchema21all_tensor_types_ir13Ev, symObjAddr: 0x14AA4, symBinAddr: 0xE0B964, symSize: 0x824 }
  - { offset: 0x59C640, size: 0x8, addend: 0x0, symName: __MergedGlobals, symObjAddr: 0x4F6AD0, symBinAddr: 0x16A5CB8, symSize: 0x0 }
  - { offset: 0x59CB7E, size: 0x8, addend: 0x0, symName: __ZN4onnx8OpSchema33all_non_complex_tensor_types_ir13Ev, symObjAddr: 0x152C8, symBinAddr: 0xE0C188, symSize: 0x798 }
  - { offset: 0x59CBA2, size: 0x8, addend: 0x0, symName: __MergedGlobals, symObjAddr: 0x4F6AD0, symBinAddr: 0x16A5CB8, symSize: 0x0 }
  - { offset: 0x59D0B8, size: 0x8, addend: 0x0, symName: __ZN4onnx8OpSchema32all_non_string_tensor_types_ir13Ev, symObjAddr: 0x15A60, symBinAddr: 0xE0C920, symSize: 0x7E0 }
  - { offset: 0x59D0DC, size: 0x8, addend: 0x0, symName: __MergedGlobals, symObjAddr: 0x4F6AD0, symBinAddr: 0x16A5CB8, symSize: 0x0 }
  - { offset: 0x59D606, size: 0x8, addend: 0x0, symName: __ZN4onnx8OpSchema25all_tensor_sequence_typesEv, symObjAddr: 0x16240, symBinAddr: 0xE0D100, symSize: 0x524 }
  - { offset: 0x59D62A, size: 0x8, addend: 0x0, symName: __MergedGlobals, symObjAddr: 0x4F6AD0, symBinAddr: 0x16A5CB8, symSize: 0x0 }
  - { offset: 0x59DA8C, size: 0x8, addend: 0x0, symName: __ZN4onnx8OpSchema29all_tensor_sequence_types_ir4Ev, symObjAddr: 0x16764, symBinAddr: 0xE0D624, symSize: 0x568 }
  - { offset: 0x59DAB0, size: 0x8, addend: 0x0, symName: __MergedGlobals, symObjAddr: 0x4F6AD0, symBinAddr: 0x16A5CB8, symSize: 0x0 }
  - { offset: 0x59DF26, size: 0x8, addend: 0x0, symName: __ZN4onnx8OpSchema29all_tensor_sequence_types_ir9Ev, symObjAddr: 0x16CCC, symBinAddr: 0xE0DB8C, symSize: 0x680 }
  - { offset: 0x59DF4A, size: 0x8, addend: 0x0, symName: __MergedGlobals, symObjAddr: 0x4F6AD0, symBinAddr: 0x16A5CB8, symSize: 0x0 }
  - { offset: 0x59E410, size: 0x8, addend: 0x0, symName: __ZN4onnx8OpSchema30all_tensor_sequence_types_ir10Ev, symObjAddr: 0x1734C, symBinAddr: 0xE0E20C, symSize: 0x70C }
  - { offset: 0x59E434, size: 0x8, addend: 0x0, symName: __MergedGlobals, symObjAddr: 0x4F6AD0, symBinAddr: 0x16A5CB8, symSize: 0x0 }
  - { offset: 0x59E922, size: 0x8, addend: 0x0, symName: __ZN4onnx8OpSchema30all_tensor_sequence_types_ir11Ev, symObjAddr: 0x17A58, symBinAddr: 0xE0E918, symSize: 0x754 }
  - { offset: 0x59E946, size: 0x8, addend: 0x0, symName: __MergedGlobals, symObjAddr: 0x4F6AD0, symBinAddr: 0x16A5CB8, symSize: 0x0 }
  - { offset: 0x59EE48, size: 0x8, addend: 0x0, symName: __ZN4onnx8OpSchema30all_tensor_sequence_types_ir12Ev, symObjAddr: 0x181AC, symBinAddr: 0xE0F06C, symSize: 0x798 }
  - { offset: 0x59EE6C, size: 0x8, addend: 0x0, symName: __MergedGlobals, symObjAddr: 0x4F6AD0, symBinAddr: 0x16A5CB8, symSize: 0x0 }
  - { offset: 0x59F382, size: 0x8, addend: 0x0, symName: __ZN4onnx8OpSchema30all_tensor_sequence_types_ir13Ev, symObjAddr: 0x18944, symBinAddr: 0xE0F804, symSize: 0x824 }
  - { offset: 0x59F3A6, size: 0x8, addend: 0x0, symName: __MergedGlobals, symObjAddr: 0x4F6AD0, symBinAddr: 0x16A5CB8, symSize: 0x0 }
  - { offset: 0x59F8E4, size: 0x8, addend: 0x0, symName: __ZN4onnx8OpSchema18all_optional_typesEv, symObjAddr: 0x19168, symBinAddr: 0xE10028, symSize: 0x93C }
  - { offset: 0x59F908, size: 0x8, addend: 0x0, symName: __MergedGlobals, symObjAddr: 0x4F6AD0, symBinAddr: 0x16A5CB8, symSize: 0x0 }
  - { offset: 0x59FE96, size: 0x8, addend: 0x0, symName: __ZN4onnx8OpSchema22all_optional_types_ir4Ev, symObjAddr: 0x19AA4, symBinAddr: 0xE10964, symSize: 0x9C8 }
  - { offset: 0x59FEBA, size: 0x8, addend: 0x0, symName: __MergedGlobals, symObjAddr: 0x4F6AD0, symBinAddr: 0x16A5CB8, symSize: 0x0 }
  - { offset: 0x5A0471, size: 0x8, addend: 0x0, symName: __ZN4onnx8OpSchema22all_optional_types_ir9Ev, symObjAddr: 0x1A46C, symBinAddr: 0xE1132C, symSize: 0xAE0 }
  - { offset: 0x5A0495, size: 0x8, addend: 0x0, symName: __MergedGlobals, symObjAddr: 0x4F6AD0, symBinAddr: 0x16A5CB8, symSize: 0x0 }
  - { offset: 0x5A0A9C, size: 0x8, addend: 0x0, symName: __ZN4onnx8OpSchema23all_optional_types_ir10Ev, symObjAddr: 0x1AF4C, symBinAddr: 0xE11E0C, symSize: 0xB6C }
  - { offset: 0x5A0AC0, size: 0x8, addend: 0x0, symName: __MergedGlobals, symObjAddr: 0x4F6AD0, symBinAddr: 0x16A5CB8, symSize: 0x0 }
  - { offset: 0x5A10EF, size: 0x8, addend: 0x0, symName: __ZN4onnx8OpSchema23all_optional_types_ir11Ev, symObjAddr: 0x1BAB8, symBinAddr: 0xE12978, symSize: 0xBB4 }
  - { offset: 0x5A1113, size: 0x8, addend: 0x0, symName: __MergedGlobals, symObjAddr: 0x4F6AD0, symBinAddr: 0x16A5CB8, symSize: 0x0 }
  - { offset: 0x5A1756, size: 0x8, addend: 0x0, symName: __ZN4onnx8OpSchema23all_optional_types_ir12Ev, symObjAddr: 0x1C66C, symBinAddr: 0xE1352C, symSize: 0xBF8 }
  - { offset: 0x5A177A, size: 0x8, addend: 0x0, symName: __MergedGlobals, symObjAddr: 0x4F6AD0, symBinAddr: 0x16A5CB8, symSize: 0x0 }
  - { offset: 0x5A1DD1, size: 0x8, addend: 0x0, symName: __ZN4onnx8OpSchema23all_optional_types_ir13Ev, symObjAddr: 0x1D264, symBinAddr: 0xE14124, symSize: 0xC84 }
  - { offset: 0x5A1DF5, size: 0x8, addend: 0x0, symName: __MergedGlobals, symObjAddr: 0x4F6AD0, symBinAddr: 0x16A5CB8, symSize: 0x0 }
  - { offset: 0x5A2D38, size: 0x8, addend: 0x0, symName: __ZN4onnx16OpSchemaRegistry20DomainToVersionRange8InstanceEv, symObjAddr: 0x1EFD0, symBinAddr: 0xE152B8, symSize: 0x9C }
  - { offset: 0x5A2D59, size: 0x8, addend: 0x0, symName: __MergedGlobals, symObjAddr: 0x4F6AD0, symBinAddr: 0x16A5CB8, symSize: 0x0 }
  - { offset: 0x5A2D93, size: 0x8, addend: 0x0, symName: __ZN4onnx16OpSchemaRegistry33GetMapWithoutEnsuringRegistrationEv, symObjAddr: 0x1F070, symBinAddr: 0xE15358, symSize: 0x38 }
  - { offset: 0x5A2DB4, size: 0x8, addend: 0x0, symName: __MergedGlobals, symObjAddr: 0x4F6AD0, symBinAddr: 0x16A5CB8, symSize: 0x0 }
  - { offset: 0x5A3F3A, size: 0x8, addend: 0x0, symName: __ZN4onnx8OpSchema10NumOutputsENSt3__113unordered_setIiNS1_4hashIiEENS1_8equal_toIiEENS1_9allocatorIiEEEE, symObjAddr: 0x5E9C, symBinAddr: 0xE01794, symSize: 0x21C }
  - { offset: 0x5A769D, size: 0x8, addend: 0x0, symName: __ZN4onnx8OpSchema8FinalizeEv, symObjAddr: 0x1DEE8, symBinAddr: 0xE14DA8, symSize: 0x508 }
  - { offset: 0x5A8BE3, size: 0x8, addend: 0x0, symName: __ZN4onnx8OpSchema12SinceVersionEi, symObjAddr: 0x55F0, symBinAddr: 0xE0114C, symSize: 0x4BC }
  - { offset: 0x5ABD8F, size: 0x8, addend: 0x0, symName: __ZN4onnx16OpSchemaRegistry18OpSchemaDeregisterERKNSt3__112basic_stringIcNS1_11char_traitsIcEENS1_9allocatorIcEEEEiS9_, symObjAddr: 0x65C, symBinAddr: 0xDFC6F4, symSize: 0x3B8 }
  - { offset: 0x5AD094, size: 0x8, addend: 0x0, symName: __ZN4onnx16OpSchemaRegistry18OpSchemaDeregisterERKNSt3__112basic_stringIcNS1_11char_traitsIcEENS1_9allocatorIcEEEEiS9_.cold.1, symObjAddr: 0x2C644, symBinAddr: 0x1256C1C, symSize: 0x48 }
  - { offset: 0x5AD0C2, size: 0x8, addend: 0x0, symName: __ZNK4onnx8OpSchema15FormalParameter8GetTypesEv, symObjAddr: 0xA18, symBinAddr: 0xDFCAAC, symSize: 0x8 }
  - { offset: 0x5AD0E4, size: 0x8, addend: 0x0, symName: __ZNK4onnx8OpSchema15FormalParameter10GetTypeStrEv, symObjAddr: 0xA28, symBinAddr: 0xDFCAB4, symSize: 0x8 }
  - { offset: 0x5AD106, size: 0x8, addend: 0x0, symName: __ZNK4onnx8OpSchema15FormalParameter9GetOptionEv, symObjAddr: 0xA38, symBinAddr: 0xDFCABC, symSize: 0x8 }
  - { offset: 0x5AD128, size: 0x8, addend: 0x0, symName: __ZNK4onnx8OpSchema15FormalParameter16GetIsHomogeneousEv, symObjAddr: 0xA40, symBinAddr: 0xDFCAC4, symSize: 0x8 }
  - { offset: 0x5AD93D, size: 0x8, addend: 0x0, symName: __ZNK4onnx8OpSchema20CheckInputOutputTypeERNS_16InferenceContextE, symObjAddr: 0xA64, symBinAddr: 0xDFCAD8, symSize: 0x6EC }
  - { offset: 0x5AEFC8, size: 0x8, addend: 0x0, symName: __ZNK4onnx8OpSchema14VerifyInputNumEiNSt3__117basic_string_viewIcNS1_11char_traitsIcEEEE, symObjAddr: 0x1150, symBinAddr: 0xDFD1C4, symSize: 0x260 }
  - { offset: 0x5AF5E2, size: 0x8, addend: 0x0, symName: __ZNK4onnx8OpSchema15VerifyOutputNumEiNSt3__117basic_string_viewIcNS1_11char_traitsIcEEEE, symObjAddr: 0x13B0, symBinAddr: 0xDFD424, symSize: 0x260 }
  - { offset: 0x5AFCCB, size: 0x8, addend: 0x0, symName: __ZNSt3__112__hash_tableINS_17__hash_value_typeINS_12basic_stringIcNS_11char_traitsIcEENS_9allocatorIcEEEES7_EENS_22__unordered_map_hasherIS7_S8_NS_4hashIS7_EENS_8equal_toIS7_EELb1EEENS_21__unordered_map_equalIS7_S8_SD_SB_Lb1EEENS5_IS8_EEE25__emplace_unique_key_argsIS7_JRKS7_SL_EEENS_4pairINS_15__hash_iteratorIPNS_11__hash_nodeIS8_PvEEEEbEERKT_DpOT0_, symObjAddr: 0x28F3C, symBinAddr: 0xE168B8, symSize: 0x438 }
  - { offset: 0x5B12A4, size: 0x8, addend: 0x0, symName: __ZNK4onnx8OpSchema16VerifyFailPrefixENSt3__117basic_string_viewIcNS1_11char_traitsIcEEEE, symObjAddr: 0x4580, symBinAddr: 0xE001E0, symSize: 0x64C }
  - { offset: 0x5B40FB, size: 0x8, addend: 0x0, symName: __ZNK4onnx8OpSchema6VerifyERKNS_9NodeProtoE, symObjAddr: 0x1D2C, symBinAddr: 0xDFDCE4, symSize: 0xCF0 }
  - { offset: 0x5B95C4, size: 0x8, addend: 0x0, symName: __ZNSt3__110__function12__value_funcIFbRKN4onnx24FunctionBodyBuildContextERKNS2_8OpSchemaERNS2_13FunctionProtoEEE4swapB8ne190102ERSC_, symObjAddr: 0x29F14, symBinAddr: 0xE16DD4, symSize: 0x198 }
  - { offset: 0x5B96F1, size: 0x8, addend: 0x0, symName: __ZNK4onnx8OpSchema37UpdateFunctionProtoOpsetImportVersionERNS_13FunctionProtoEi, symObjAddr: 0x5AAC, symBinAddr: 0xE01608, symSize: 0x180 }
  - { offset: 0x5B9EC4, size: 0x8, addend: 0x0, symName: __ZN4onnx8OpSchema9DeprecateEv, symObjAddr: 0x5C2C, symBinAddr: 0xE01788, symSize: 0xC }
  - { offset: 0x5BA877, size: 0x8, addend: 0x0, symName: __ZNSt3__110__function12__value_funcIFbiEE4swapB8ne190102ERS3_, symObjAddr: 0x2A9AC, symBinAddr: 0xE170AC, symSize: 0x198 }
  - { offset: 0x5BB1CE, size: 0x8, addend: 0x0, symName: __ZN4onnx8OpSchema29TypeAndShapeInferenceFunctionENSt3__18functionIFvRNS_16InferenceContextEEEE, symObjAddr: 0x6100, symBinAddr: 0xE019B0, symSize: 0xB4 }
  - { offset: 0x5BB2FB, size: 0x8, addend: 0x0, symName: __ZN4onnx8OpSchema30PartialDataPropagationFunctionENSt3__18functionIFvRNS_22DataPropagationContextEEEE, symObjAddr: 0x61B4, symBinAddr: 0xE01A64, symSize: 0xB4 }
  - { offset: 0x5BB3AD, size: 0x8, addend: 0x0, symName: __ZN4onnx8OpSchema15SetSupportLevelENS0_11SupportTypeE, symObjAddr: 0x6268, symBinAddr: 0xE01B18, symSize: 0x8 }
  - { offset: 0x5BB3E4, size: 0x8, addend: 0x0, symName: __ZN4onnx8OpSchema7SetNameENSt3__112basic_stringIcNS1_11char_traitsIcEENS1_9allocatorIcEEEE, symObjAddr: 0x6270, symBinAddr: 0xE01B20, symSize: 0x50 }
  - { offset: 0x5BB5A8, size: 0x8, addend: 0x0, symName: __ZN4onnx8OpSchema7SetNameEPKc, symObjAddr: 0x62C0, symBinAddr: 0xE01B70, symSize: 0x110 }
  - { offset: 0x5BB9B9, size: 0x8, addend: 0x0, symName: __ZN4onnx8OpSchema11SetLocationEPKci, symObjAddr: 0x6430, symBinAddr: 0xE01C80, symSize: 0x118 }
  - { offset: 0x5BBD80, size: 0x8, addend: 0x0, symName: __ZN4onnx8OpSchema9SetDomainENSt3__112basic_stringIcNS1_11char_traitsIcEENS1_9allocatorIcEEEE, symObjAddr: 0x6548, symBinAddr: 0xE01D98, symSize: 0x50 }
  - { offset: 0x5BBF06, size: 0x8, addend: 0x0, symName: __ZN4onnx8OpSchema9SetDomainEPKc, symObjAddr: 0x6598, symBinAddr: 0xE01DE8, symSize: 0x110 }
  - { offset: 0x5BC349, size: 0x8, addend: 0x0, symName: __ZNSt3__112__hash_tableINS_17__hash_value_typeINS_12basic_stringIcNS_11char_traitsIcEENS_9allocatorIcEEEEN4onnx8OpSchema9AttributeEEENS_22__unordered_map_hasherIS7_SB_NS_4hashIS7_EENS_8equal_toIS7_EELb1EEENS_21__unordered_map_equalIS7_SB_SG_SE_Lb1EEENS5_ISB_EEE25__emplace_unique_key_argsIS7_JS7_SA_EEENS_4pairINS_15__hash_iteratorIPNS_11__hash_nodeISB_PvEEEEbEERKT_DpOT0_, symObjAddr: 0x2AE44, symBinAddr: 0xE17544, symSize: 0x468 }
  - { offset: 0x5BCD7D, size: 0x8, addend: 0x0, symName: __ZN4onnx8OpSchema4AttrENSt3__112basic_stringIcNS1_11char_traitsIcEENS1_9allocatorIcEEEES7_NS_28AttributeProto_AttributeTypeEb, symObjAddr: 0x676C, symBinAddr: 0xE01EF8, symSize: 0x1D8 }
  - { offset: 0x5BD725, size: 0x8, addend: 0x0, symName: __ZN4onnx8OpSchema9AttributeD1Ev, symObjAddr: 0x6944, symBinAddr: 0xE020D0, symSize: 0x60 }
  - { offset: 0x5BD978, size: 0x8, addend: 0x0, symName: __ZN4onnx8OpSchema4AttrEPKcS2_NS_28AttributeProto_AttributeTypeEb, symObjAddr: 0x69A4, symBinAddr: 0xE02130, symSize: 0x204 }
  - { offset: 0x5BE3B0, size: 0x8, addend: 0x0, symName: __ZN4onnx8OpSchema4AttrEPKcS2_NS_28AttributeProto_AttributeTypeES2_, symObjAddr: 0x6BA8, symBinAddr: 0xE02334, symSize: 0x2D0 }
  - { offset: 0x5BF22E, size: 0x8, addend: 0x0, symName: __ZN4onnx8OpSchema4AttrENSt3__112basic_stringIcNS1_11char_traitsIcEENS1_9allocatorIcEEEES7_NS_28AttributeProto_AttributeTypeERKS7_, symObjAddr: 0x6E78, symBinAddr: 0xE02604, symSize: 0x330 }
  - { offset: 0x5C002F, size: 0x8, addend: 0x0, symName: __ZN4onnx8OpSchema4AttrENSt3__112basic_stringIcNS1_11char_traitsIcEENS1_9allocatorIcEEEES7_NS_28AttributeProto_AttributeTypeERKx, symObjAddr: 0x71A8, symBinAddr: 0xE02934, symSize: 0x30C }
  - { offset: 0x5C0BE3, size: 0x8, addend: 0x0, symName: __ZN4onnx8OpSchema4AttrEPKcS2_NS_28AttributeProto_AttributeTypeERKx, symObjAddr: 0x762C, symBinAddr: 0xE02C40, symSize: 0x204 }
  - { offset: 0x5C1663, size: 0x8, addend: 0x0, symName: __ZN4onnx8OpSchema4AttrENSt3__112basic_stringIcNS1_11char_traitsIcEENS1_9allocatorIcEEEES7_NS_28AttributeProto_AttributeTypeERKf, symObjAddr: 0x7830, symBinAddr: 0xE02E44, symSize: 0x308 }
  - { offset: 0x5C2196, size: 0x8, addend: 0x0, symName: __ZN4onnx8OpSchema4AttrEPKcS2_NS_28AttributeProto_AttributeTypeERKf, symObjAddr: 0x7B38, symBinAddr: 0xE0314C, symSize: 0x204 }
  - { offset: 0x5C2BCE, size: 0x8, addend: 0x0, symName: __ZN4onnx8OpSchema4AttrEPKcS2_NS_28AttributeProto_AttributeTypeERKNSt3__112basic_stringIcNS4_11char_traitsIcEENS4_9allocatorIcEEEE, symObjAddr: 0x7D3C, symBinAddr: 0xE03350, symSize: 0x204 }
  - { offset: 0x5C36F2, size: 0x8, addend: 0x0, symName: __ZN4onnx8OpSchema4AttrENSt3__112basic_stringIcNS1_11char_traitsIcEENS1_9allocatorIcEEEES7_NS_28AttributeProto_AttributeTypeERKNS1_6vectorIxNS5_IxEEEE, symObjAddr: 0x8990, symBinAddr: 0xE03554, symSize: 0x384 }
  - { offset: 0x5C44CC, size: 0x8, addend: 0x0, symName: __ZN4onnx8OpSchema4AttrENSt3__112basic_stringIcNS1_11char_traitsIcEENS1_9allocatorIcEEEES7_NS_28AttributeProto_AttributeTypeERKNS1_6vectorIS7_NS5_IS7_EEEE, symObjAddr: 0x90A0, symBinAddr: 0xE038D8, symSize: 0x400 }
  - { offset: 0x5C52E0, size: 0x8, addend: 0x0, symName: __ZN4onnx8OpSchema24AllowUncheckedAttributesEv, symObjAddr: 0x9F08, symBinAddr: 0xE03CD8, symSize: 0xC }
  - { offset: 0x5C5458, size: 0x8, addend: 0x0, symName: __ZN4onnx8OpSchema5InputEiNS0_15FormalParameterE, symObjAddr: 0x9F14, symBinAddr: 0xE03CE4, symSize: 0x12C }
  - { offset: 0x5C59DF, size: 0x8, addend: 0x0, symName: __ZNSt3__16vectorIN4onnx8OpSchema15FormalParameterENS_9allocatorIS3_EEE8__appendEm, symObjAddr: 0x25D94, symBinAddr: 0xE155A4, symSize: 0x1B0 }
  - { offset: 0x5C63E1, size: 0x8, addend: 0x0, symName: __ZNSt3__112__hash_tableIPKNS_12basic_stringIcNS_11char_traitsIcEENS_9allocatorIcEEEENS_4hashIS8_EENS_8equal_toIS8_EENS4_IS8_EEE13__move_assignERSE_NS_17integral_constantIbLb1EEE, symObjAddr: 0x2610C, symBinAddr: 0xE1591C, symSize: 0xEC }
  - { offset: 0x5C6C52, size: 0x8, addend: 0x0, symName: __ZN4onnx8OpSchema5InputEiNSt3__112basic_stringIcNS1_11char_traitsIcEENS1_9allocatorIcEEEERKS7_S7_NS0_21FormalParameterOptionEbiNS0_23DifferentiationCategoryE, symObjAddr: 0xA040, symBinAddr: 0xE03E10, symSize: 0x234 }
  - { offset: 0x5C7BFA, size: 0x8, addend: 0x0, symName: __ZN4onnx8OpSchema5InputEiPKcS2_S2_NS0_21FormalParameterOptionEbiNS0_23DifferentiationCategoryE, symObjAddr: 0xA310, symBinAddr: 0xE04044, symSize: 0x338 }
  - { offset: 0x5C8AEE, size: 0x8, addend: 0x0, symName: __ZN4onnx8OpSchema6OutputEiNS0_15FormalParameterE, symObjAddr: 0xA648, symBinAddr: 0xE0437C, symSize: 0x12C }
  - { offset: 0x5C9075, size: 0x8, addend: 0x0, symName: __ZN4onnx8OpSchema6OutputEiNSt3__112basic_stringIcNS1_11char_traitsIcEENS1_9allocatorIcEEEERKS7_S7_NS0_21FormalParameterOptionEbiNS0_23DifferentiationCategoryE, symObjAddr: 0xA774, symBinAddr: 0xE044A8, symSize: 0x234 }
  - { offset: 0x5C9CCA, size: 0x8, addend: 0x0, symName: __ZN4onnx8OpSchema6OutputEiPKcS2_S2_NS0_21FormalParameterOptionEbiNS0_23DifferentiationCategoryE, symObjAddr: 0xA9A8, symBinAddr: 0xE046DC, symSize: 0x338 }
  - { offset: 0x5CAFE6, size: 0x8, addend: 0x0, symName: __ZN4onnx8OpSchema14TypeConstraintENSt3__112basic_stringIcNS1_11char_traitsIcEENS1_9allocatorIcEEEENS1_6vectorIS7_NS5_IS7_EEEES7_, symObjAddr: 0xACE0, symBinAddr: 0xE04A14, symSize: 0x2E8 }
  - { offset: 0x5CC051, size: 0x8, addend: 0x0, symName: __ZNSt3__112__hash_tableINS_17__hash_value_typeINS_12basic_stringIcNS_11char_traitsIcEENS_9allocatorIcEEEENS_4pairINS_13unordered_setIPKS7_NS_4hashISB_EENS_8equal_toISB_EENS5_ISB_EEEES7_EEEENS_22__unordered_map_hasherIS7_SJ_NSC_IS7_EENSE_IS7_EELb1EEENS_21__unordered_map_equalIS7_SJ_SM_SL_Lb1EEENS5_ISJ_EEE4findIS7_EENS_15__hash_iteratorIPNS_11__hash_nodeISJ_PvEEEERKT_, symObjAddr: 0x2B3A0, symBinAddr: 0xE17AA0, symSize: 0x1E8 }
  - { offset: 0x5CC35F, size: 0x8, addend: 0x0, symName: __ZNSt3__112__hash_tableIPKNS_12basic_stringIcNS_11char_traitsIcEENS_9allocatorIcEEEENS_4hashIS8_EENS_8equal_toIS8_EENS4_IS8_EEE25__emplace_unique_key_argsIS8_JS8_EEENS_4pairINS_15__hash_iteratorIPNS_11__hash_nodeIS8_PvEEEEbEERKT_DpOT0_, symObjAddr: 0x2B588, symBinAddr: 0xE17C88, symSize: 0x358 }
  - { offset: 0x5CCD2B, size: 0x8, addend: 0x0, symName: __ZNSt3__112__hash_tableINS_17__hash_value_typeINS_12basic_stringIcNS_11char_traitsIcEENS_9allocatorIcEEEENS_4pairINS_13unordered_setIPKS7_NS_4hashISB_EENS_8equal_toISB_EENS5_ISB_EEEES7_EEEENS_22__unordered_map_hasherIS7_SJ_NSC_IS7_EENSE_IS7_EELb1EEENS_21__unordered_map_equalIS7_SJ_SM_SL_Lb1EEENS5_ISJ_EEE25__emplace_unique_key_argsIS7_JRS7_SI_EEENS8_INS_15__hash_iteratorIPNS_11__hash_nodeISJ_PvEEEEbEERKT_DpOT0_, symObjAddr: 0x2B8E0, symBinAddr: 0xE17FE0, symSize: 0x43C }
  - { offset: 0x5CD401, size: 0x8, addend: 0x0, symName: __ZNSt3__16vectorIN4onnx8OpSchema19TypeConstraintParamENS_9allocatorIS3_EEE24__emplace_back_slow_pathIJNS_12basic_stringIcNS_11char_traitsIcEENS4_IcEEEENS0_ISC_NS4_ISC_EEEESC_EEEPS3_DpOT_, symObjAddr: 0x261F8, symBinAddr: 0xE15A08, symSize: 0x1F8 }
  - { offset: 0x5CDB67, size: 0x8, addend: 0x0, symName: __ZNSt3__14pairINS_13unordered_setIPKNS_12basic_stringIcNS_11char_traitsIcEENS_9allocatorIcEEEENS_4hashIS9_EENS_8equal_toIS9_EENS5_IS9_EEEES7_ED1Ev, symObjAddr: 0xAFC8, symBinAddr: 0xE04CFC, symSize: 0x58 }
  - { offset: 0x5CE366, size: 0x8, addend: 0x0, symName: __ZN4onnx8OpSchema14TypeConstraintEPKcSt16initializer_listIS2_ES2_, symObjAddr: 0xB068, symBinAddr: 0xE04D54, symSize: 0x404 }
  - { offset: 0x5CF8C6, size: 0x8, addend: 0x0, symName: __ZNSt3__16vectorINS_12basic_stringIcNS_11char_traitsIcEENS_9allocatorIcEEEENS4_IS6_EEE24__emplace_back_slow_pathIJRKPKcEEEPS6_DpOT_, symObjAddr: 0x266AC, symBinAddr: 0xE15E44, symSize: 0x1C8 }
  - { offset: 0x5D046F, size: 0x8, addend: 0x0, symName: __ZN4onnx8OpSchema16ParseAndSetTypesEPNSt3__16vectorINS0_15FormalParameterENS1_9allocatorIS3_EEEE, symObjAddr: 0xB4DC, symBinAddr: 0xE05158, symSize: 0x180 }
  - { offset: 0x5D0C79, size: 0x8, addend: 0x0, symName: __ZNSt3__112__hash_tableIPKNS_12basic_stringIcNS_11char_traitsIcEENS_9allocatorIcEEEENS_4hashIS8_EENS_8equal_toIS8_EENS4_IS8_EEE14__assign_multiINS_21__hash_const_iteratorIPNS_11__hash_nodeIS8_PvEEEEEEvT_SM_, symObjAddr: 0x2BE30, symBinAddr: 0xE18530, symSize: 0x15C }
  - { offset: 0x5D1422, size: 0x8, addend: 0x0, symName: __ZN4onnx8OpSchema38SetContextDependentFunctionBodyBuilderENSt3__18functionIFbRKNS_24FunctionBodyBuildContextERKS0_RNS_13FunctionProtoEEEEi, symObjAddr: 0xB65C, symBinAddr: 0xE052D8, symSize: 0x25C }
  - { offset: 0x5D1E63, size: 0x8, addend: 0x0, symName: __ZNK4onnx8OpSchema29BuildContextDependentFunctionERKNS_24FunctionBodyBuildContextERNS_13FunctionProtoEi, symObjAddr: 0xB8B8, symBinAddr: 0xE05534, symSize: 0x348 }
  - { offset: 0x5D2A5E, size: 0x8, addend: 0x0, symName: __ZNK4onnx8OpSchema31ValidateReferencedOpsInFunctionEPKNS_13FunctionProtoEiiPNSt3__113unordered_setINS4_12basic_stringIcNS4_11char_traitsIcEENS4_9allocatorIcEEEENS4_4hashISB_EENS4_8equal_toISB_EENS9_ISB_EEEE, symObjAddr: 0xBC00, symBinAddr: 0xE0587C, symSize: 0x1F0 }
  - { offset: 0x5D3C46, size: 0x8, addend: 0x0, symName: __ZN4onnx8OpSchema12FunctionBodyEPKci, symObjAddr: 0xBDF0, symBinAddr: 0xE05A6C, symSize: 0x398 }
  - { offset: 0x5D4E0E, size: 0x8, addend: 0x0, symName: __ZN4onnx8OpSchema12FunctionBodyERKNSt3__16vectorINS_9NodeProtoENS1_9allocatorIS3_EEEEi, symObjAddr: 0xC228, symBinAddr: 0xE05E04, symSize: 0x21C }
  - { offset: 0x5D581A, size: 0x8, addend: 0x0, symName: __ZNK4onnx8OpSchema11GetFunctionEib, symObjAddr: 0xC6E0, symBinAddr: 0xE06020, symSize: 0xFC }
  - { offset: 0x5D5859, size: 0x8, addend: 0x0, symName: __ZNK4onnx8OpSchema11GetFunctionEib, symObjAddr: 0xC6E0, symBinAddr: 0xE06020, symSize: 0xFC }
  - { offset: 0x5D5B7E, size: 0x8, addend: 0x0, symName: __ZNK4onnx16OpSchemaRegistry9GetSchemaERKNSt3__112basic_stringIcNS1_11char_traitsIcEENS1_9allocatorIcEEEEiS9_, symObjAddr: 0xC7DC, symBinAddr: 0xE0611C, symSize: 0x10 }
  - { offset: 0x5D5C5B, size: 0x8, addend: 0x0, symName: __ZN4onnx8OpSchema9FillUsingERKNSt3__18functionIFvRS0_EEE, symObjAddr: 0xC7EC, symBinAddr: 0xE0612C, symSize: 0x38 }
  - { offset: 0x5D5E71, size: 0x8, addend: 0x0, symName: __ZNK4onnx8OpSchema13BuildFunctionERNS_13FunctionProtoE, symObjAddr: 0xC824, symBinAddr: 0xE06164, symSize: 0x1A4 }
  - { offset: 0x5D72ED, size: 0x8, addend: 0x0, symName: __ZN4onnx8OpSchema18SetNodeDeterminismENS0_15NodeDeterminismE, symObjAddr: 0x1E6C0, symBinAddr: 0xE152B0, symSize: 0x8 }
  - { offset: 0x5D7343, size: 0x8, addend: 0x0, symName: __ZN4onnx16OpSchemaRegistry20DomainToVersionRangeC2Ev, symObjAddr: 0x26E88, symBinAddr: 0xE1600C, symSize: 0x3C0 }
  - { offset: 0x5D8C84, size: 0x8, addend: 0x0, symName: __ZN4onnx16OpSchemaRegistry20DomainToVersionRangeD1Ev, symObjAddr: 0x1F06C, symBinAddr: 0xE15354, symSize: 0x4 }
  - { offset: 0x5D8CB3, size: 0x8, addend: 0x0, symName: __ZN4onnx16OpSchemaRegistry20DomainToVersionRangeD1Ev, symObjAddr: 0x1F06C, symBinAddr: 0xE15354, symSize: 0x4 }
  - { offset: 0x5D8CC6, size: 0x8, addend: 0x0, symName: __ZN4onnx16OpSchemaRegistry20DomainToVersionRangeD2Ev, symObjAddr: 0x27CC0, symBinAddr: 0xE16808, symSize: 0xB0 }
  - { offset: 0x5D96D9, size: 0x8, addend: 0x0, symName: __ZNSt3__113unordered_mapINS_12basic_stringIcNS_11char_traitsIcEENS_9allocatorIcEEEENS0_IS6_NS_3mapIiN4onnx8OpSchemaENS_4lessIiEENS4_INS_4pairIKiS9_EEEEEENS_4hashIS6_EENS_8equal_toIS6_EENS4_INSC_IKS6_SG_EEEEEESI_SK_NS4_INSC_ISL_SO_EEEEED1B8ne190102Ev, symObjAddr: 0x1F0A8, symBinAddr: 0xE15390, symSize: 0x38 }
  - { offset: 0x5D9D65, size: 0x8, addend: 0x0, symName: __ZN4onnx16OpSchemaRegistryD1Ev, symObjAddr: 0x1F2F4, symBinAddr: 0xE1559C, symSize: 0x4 }
  - { offset: 0x5D9D91, size: 0x8, addend: 0x0, symName: __ZN4onnx16OpSchemaRegistryD0Ev, symObjAddr: 0x1F2F8, symBinAddr: 0xE155A0, symSize: 0x4 }
  - { offset: 0x5E7A2A, size: 0x8, addend: 0x0, symName: __ZNSt3__16vectorIN4onnx8OpSchema15FormalParameterENS_9allocatorIS3_EEE26__swap_out_circular_bufferERNS_14__split_bufferIS3_RS5_EE, symObjAddr: 0x25F44, symBinAddr: 0xE15754, symSize: 0x178 }
  - { offset: 0x5E7F20, size: 0x8, addend: 0x0, symName: __ZNSt3__114__split_bufferIN4onnx8OpSchema15FormalParameterERNS_9allocatorIS3_EEED1Ev, symObjAddr: 0x260BC, symBinAddr: 0xE158CC, symSize: 0x50 }
  - { offset: 0x5E8504, size: 0x8, addend: 0x0, symName: __ZNSt3__114__split_bufferIN4onnx8OpSchema19TypeConstraintParamERNS_9allocatorIS3_EEED1Ev, symObjAddr: 0x263F0, symBinAddr: 0xE15C00, symSize: 0x30 }
  - { offset: 0x5E85EE, size: 0x8, addend: 0x0, symName: __ZNSt3__114__split_bufferIN4onnx8OpSchema19TypeConstraintParamERNS_9allocatorIS3_EEE5clearB8ne190102Ev, symObjAddr: 0x26554, symBinAddr: 0xE15D64, symSize: 0xE0 }
  - { offset: 0x5E97B6, size: 0x8, addend: 0x0, symName: __ZNSt3__112__hash_tableINS_17__hash_value_typeINS_12basic_stringIcNS_11char_traitsIcEENS_9allocatorIcEEEENS_4pairIiiEEEENS_22__unordered_map_hasherIS7_SA_NS_4hashIS7_EENS_8equal_toIS7_EELb1EEENS_21__unordered_map_equalIS7_SA_SF_SD_Lb1EEENS5_ISA_EEE25__emplace_unique_key_argsIS7_JRKNS_21piecewise_construct_tENS_5tupleIJOS7_EEENSP_IJEEEEEENS8_INS_15__hash_iteratorIPNS_11__hash_nodeISA_PvEEEEbEERKT_DpOT0_, symObjAddr: 0x27248, symBinAddr: 0xE163CC, symSize: 0x43C }
  - { offset: 0x5EB025, size: 0x8, addend: 0x0, symName: __ZN4onnx16OpSchemaRegistry20DomainToVersionRangeD2Ev, symObjAddr: 0x27CC0, symBinAddr: 0xE16808, symSize: 0xB0 }
  - { offset: 0x5EC038, size: 0x8, addend: 0x0, symName: __ZNSt3__112__hash_tableINS_17__hash_value_typeINS_12basic_stringIcNS_11char_traitsIcEENS_9allocatorIcEEEES7_EENS_22__unordered_map_hasherIS7_S8_NS_4hashIS7_EENS_8equal_toIS7_EELb1EEENS_21__unordered_map_equalIS7_S8_SD_SB_Lb1EEENS5_IS8_EEE21__construct_node_hashIRKS7_JSL_EEENS_10unique_ptrINS_11__hash_nodeIS8_PvEENS_22__hash_node_destructorINS5_ISP_EEEEEEmOT_DpOT0_, symObjAddr: 0x29374, symBinAddr: 0xE16CF0, symSize: 0xE4 }
  - { offset: 0x5ED0C2, size: 0x8, addend: 0x0, symName: __ZNSt3__113unordered_setIiNS_4hashIiEENS_8equal_toIiEENS_9allocatorIiEEEC2ERKS7_, symObjAddr: 0x2A3AC, symBinAddr: 0xE16F6C, symSize: 0x140 }
  - { offset: 0x5EE1F4, size: 0x8, addend: 0x0, symName: '__ZNSt3__110__function6__funcIZN4onnx8OpSchema10NumOutputsENS_13unordered_setIiNS_4hashIiEENS_8equal_toIiEENS_9allocatorIiEEEEE3$_0NS9_ISC_EEFbiEED1Ev', symObjAddr: 0x2AB44, symBinAddr: 0xE17244, symSize: 0x54 }
  - { offset: 0x5EE5FA, size: 0x8, addend: 0x0, symName: '__ZNSt3__110__function6__funcIZN4onnx8OpSchema10NumOutputsENS_13unordered_setIiNS_4hashIiEENS_8equal_toIiEENS_9allocatorIiEEEEE3$_0NS9_ISC_EEFbiEED0Ev', symObjAddr: 0x2AB98, symBinAddr: 0xE17298, symSize: 0x54 }
  - { offset: 0x5EED19, size: 0x8, addend: 0x0, symName: '__ZNKSt3__110__function6__funcIZN4onnx8OpSchema10NumOutputsENS_13unordered_setIiNS_4hashIiEENS_8equal_toIiEENS_9allocatorIiEEEEE3$_0NS9_ISC_EEFbiEE7__cloneEv', symObjAddr: 0x2ABEC, symBinAddr: 0xE172EC, symSize: 0x54 }
  - { offset: 0x5EF14A, size: 0x8, addend: 0x0, symName: '__ZNKSt3__110__function6__funcIZN4onnx8OpSchema10NumOutputsENS_13unordered_setIiNS_4hashIiEENS_8equal_toIiEENS_9allocatorIiEEEEE3$_0NS9_ISC_EEFbiEE7__cloneEPNS0_6__baseISE_EE', symObjAddr: 0x2AC40, symBinAddr: 0xE17340, symSize: 0x1C }
  - { offset: 0x5EF2B5, size: 0x8, addend: 0x0, symName: '__ZNSt3__110__function6__funcIZN4onnx8OpSchema10NumOutputsENS_13unordered_setIiNS_4hashIiEENS_8equal_toIiEENS_9allocatorIiEEEEE3$_0NS9_ISC_EEFbiEE7destroyEv', symObjAddr: 0x2AC5C, symBinAddr: 0xE1735C, symSize: 0x4C }
  - { offset: 0x5EF650, size: 0x8, addend: 0x0, symName: '__ZNSt3__110__function6__funcIZN4onnx8OpSchema10NumOutputsENS_13unordered_setIiNS_4hashIiEENS_8equal_toIiEENS_9allocatorIiEEEEE3$_0NS9_ISC_EEFbiEE18destroy_deallocateEv', symObjAddr: 0x2ACA8, symBinAddr: 0xE173A8, symSize: 0x48 }
  - { offset: 0x5EFB36, size: 0x8, addend: 0x0, symName: '__ZNSt3__110__function6__funcIZN4onnx8OpSchema10NumOutputsENS_13unordered_setIiNS_4hashIiEENS_8equal_toIiEENS_9allocatorIiEEEEE3$_0NS9_ISC_EEFbiEEclEOi', symObjAddr: 0x2ACF0, symBinAddr: 0xE173F0, symSize: 0xE4 }
  - { offset: 0x5EFC6E, size: 0x8, addend: 0x0, symName: '__ZNKSt3__110__function6__funcIZN4onnx8OpSchema10NumOutputsENS_13unordered_setIiNS_4hashIiEENS_8equal_toIiEENS_9allocatorIiEEEEE3$_0NS9_ISC_EEFbiEE6targetERKSt9type_info', symObjAddr: 0x2ADD4, symBinAddr: 0xE174D4, symSize: 0x64 }
  - { offset: 0x5EFD21, size: 0x8, addend: 0x0, symName: '__ZNKSt3__110__function6__funcIZN4onnx8OpSchema10NumOutputsENS_13unordered_setIiNS_4hashIiEENS_8equal_toIiEENS_9allocatorIiEEEEE3$_0NS9_ISC_EEFbiEE11target_typeEv', symObjAddr: 0x2AE38, symBinAddr: 0xE17538, symSize: 0xC }
  - { offset: 0x5EFE4A, size: 0x8, addend: 0x0, symName: __ZNSt3__14pairIKNS_12basic_stringIcNS_11char_traitsIcEENS_9allocatorIcEEEEN4onnx8OpSchema9AttributeEEC2B8ne190102IS6_SA_Li0EEEOT_OT0_, symObjAddr: 0x2B2AC, symBinAddr: 0xE179AC, symSize: 0xF4 }
  - { offset: 0x5F02FD, size: 0x8, addend: 0x0, symName: __ZNSt3__112__hash_tableINS_17__hash_value_typeINS_12basic_stringIcNS_11char_traitsIcEENS_9allocatorIcEEEENS_4pairINS_13unordered_setIPKS7_NS_4hashISB_EENS_8equal_toISB_EENS5_ISB_EEEES7_EEEENS_22__unordered_map_hasherIS7_SJ_NSC_IS7_EENSE_IS7_EELb1EEENS_21__unordered_map_equalIS7_SJ_SM_SL_Lb1EEENS5_ISJ_EEE21__construct_node_hashIRS7_JSI_EEENS_10unique_ptrINS_11__hash_nodeISJ_PvEENS_22__hash_node_destructorINS5_ISX_EEEEEEmOT_DpOT0_, symObjAddr: 0x2BD1C, symBinAddr: 0xE1841C, symSize: 0x114 }
  - { offset: 0x5F0B0D, size: 0x8, addend: 0x0, symName: __ZNSt3__112__hash_tableIPKNS_12basic_stringIcNS_11char_traitsIcEENS_9allocatorIcEEEENS_4hashIS8_EENS_8equal_toIS8_EENS4_IS8_EEE19__node_insert_multiEPNS_11__hash_nodeIS8_PvEE, symObjAddr: 0x2BF8C, symBinAddr: 0xE1868C, symSize: 0x150 }
  - { offset: 0x5F0E04, size: 0x8, addend: 0x0, symName: __ZNSt3__112__hash_tableIPKNS_12basic_stringIcNS_11char_traitsIcEENS_9allocatorIcEEEENS_4hashIS8_EENS_8equal_toIS8_EENS4_IS8_EEE27__node_insert_multi_prepareEmRS8_, symObjAddr: 0x2C0DC, symBinAddr: 0xE187DC, symSize: 0x27C }
  - { offset: 0x5F10F5, size: 0x8, addend: 0x0, symName: __ZNSt3__112__hash_tableIPKNS_12basic_stringIcNS_11char_traitsIcEENS_9allocatorIcEEEENS_4hashIS8_EENS_8equal_toIS8_EENS4_IS8_EEE11__do_rehashILb0EEEvm, symObjAddr: 0x2C358, symBinAddr: 0xE18A58, symSize: 0x1C8 }
  - { offset: 0x5F1575, size: 0x8, addend: 0x0, symName: __ZNSt3__120__shared_ptr_emplaceIN4onnx13FunctionProtoENS_9allocatorIS2_EEED1Ev, symObjAddr: 0x2C520, symBinAddr: 0xE18C20, symSize: 0x10 }
  - { offset: 0x5F15A7, size: 0x8, addend: 0x0, symName: __ZNSt3__120__shared_ptr_emplaceIN4onnx13FunctionProtoENS_9allocatorIS2_EEED1Ev, symObjAddr: 0x2C520, symBinAddr: 0xE18C20, symSize: 0x10 }
  - { offset: 0x5F15C9, size: 0x8, addend: 0x0, symName: __ZNSt3__120__shared_ptr_emplaceIN4onnx13FunctionProtoENS_9allocatorIS2_EEED1Ev, symObjAddr: 0x2C520, symBinAddr: 0xE18C20, symSize: 0x10 }
  - { offset: 0x5F15FF, size: 0x8, addend: 0x0, symName: __ZNSt3__120__shared_ptr_emplaceIN4onnx13FunctionProtoENS_9allocatorIS2_EEED0Ev, symObjAddr: 0x2C530, symBinAddr: 0xE18C30, symSize: 0x20 }
  - { offset: 0x5F16D0, size: 0x8, addend: 0x0, symName: __ZNSt3__120__shared_ptr_emplaceIN4onnx13FunctionProtoENS_9allocatorIS2_EEE16__on_zero_sharedEv, symObjAddr: 0x2C550, symBinAddr: 0xE18C50, symSize: 0x8 }
  - { offset: 0x5F16F9, size: 0x8, addend: 0x0, symName: __ZNSt3__120__shared_ptr_emplaceIN4onnx13FunctionProtoENS_9allocatorIS2_EEE16__on_zero_sharedEv, symObjAddr: 0x2C550, symBinAddr: 0xE18C50, symSize: 0x8 }
  - { offset: 0x5F1717, size: 0x8, addend: 0x0, symName: __ZNSt3__120__shared_ptr_emplaceIN4onnx13FunctionProtoENS_9allocatorIS2_EEE16__on_zero_sharedEv, symObjAddr: 0x2C550, symBinAddr: 0xE18C50, symSize: 0x8 }
  - { offset: 0x5F175E, size: 0x8, addend: 0x0, symName: __ZNSt3__120__shared_ptr_emplaceIN4onnx13FunctionProtoENS_9allocatorIS2_EEE21__on_zero_shared_weakEv, symObjAddr: 0x2C558, symBinAddr: 0xE18C58, symSize: 0x4 }
  - { offset: 0x5F1791, size: 0x8, addend: 0x0, symName: __ZNSt3__120__shared_ptr_emplaceIN4onnx13FunctionProtoENS_9allocatorIS2_EEE21__on_zero_shared_weakEv, symObjAddr: 0x2C558, symBinAddr: 0xE18C58, symSize: 0x4 }
  - { offset: 0x5F17B3, size: 0x8, addend: 0x0, symName: __ZNSt3__120__shared_ptr_emplaceIN4onnx13FunctionProtoENS_9allocatorIS2_EEE21__on_zero_shared_weakEv, symObjAddr: 0x2C558, symBinAddr: 0xE18C58, symSize: 0x4 }
  - { offset: 0x5F17D5, size: 0x8, addend: 0x0, symName: __ZNSt3__120__shared_ptr_emplaceIN4onnx13FunctionProtoENS_9allocatorIS2_EEE21__on_zero_shared_weakEv, symObjAddr: 0x2C558, symBinAddr: 0xE18C58, symSize: 0x4 }
  - { offset: 0x5F1802, size: 0x8, addend: 0x0, symName: __ZNSt3__120__shared_ptr_emplaceIN4onnx13FunctionProtoENS_9allocatorIS2_EEE21__on_zero_shared_weakEv, symObjAddr: 0x2C558, symBinAddr: 0xE18C58, symSize: 0x4 }
  - { offset: 0x5F182A, size: 0x8, addend: 0x0, symName: __ZNSt3__120__shared_ptr_emplaceIN4onnx13FunctionProtoENS_9allocatorIS2_EEE21__on_zero_shared_weakEv, symObjAddr: 0x2C558, symBinAddr: 0xE18C58, symSize: 0x4 }
  - { offset: 0x5F1856, size: 0x8, addend: 0x0, symName: _OUTLINED_FUNCTION_0, symObjAddr: 0x2C7D8, symBinAddr: 0xE18C5C, symSize: 0x14 }
  - { offset: 0x5F186E, size: 0x8, addend: 0x0, symName: _OUTLINED_FUNCTION_1, symObjAddr: 0x2C7EC, symBinAddr: 0xE18C70, symSize: 0x8 }
  - { offset: 0x60BF82, size: 0x8, addend: 0x0, symName: __ZN4onnx4defs8sequence5utils26SplitToSequenceOpGeneratorERKNSt3__16vectorINS3_12basic_stringIcNS3_11char_traitsIcEENS3_9allocatorIcEEEENS8_ISA_EEEESE_, symObjAddr: 0x0, symBinAddr: 0xE22FC0, symSize: 0x1FC }
  - { offset: 0x6184C0, size: 0x8, addend: 0x0, symName: __ZN4onnx10MakeStringIJA23_cA41_ciA8_ciEEENSt3__112basic_stringIcNS4_11char_traitsIcEENS4_9allocatorIcEEEEDpRKT_, symObjAddr: 0x232C, symBinAddr: 0xE24960, symSize: 0x220 }
  - { offset: 0x619399, size: 0x8, addend: 0x0, symName: __ZN4onnx10MakeStringIJA23_cA78_cxA22_cxEEENSt3__112basic_stringIcNS4_11char_traitsIcEENS4_9allocatorIcEEEEDpRKT_, symObjAddr: 0x31BC, symBinAddr: 0xE24B80, symSize: 0x220 }
  - { offset: 0x6275DD, size: 0x8, addend: 0x0, symName: '__ZZN4onnx4defs8sequence5utils26SplitToSequenceOpGeneratorERKNSt3__16vectorINS3_12basic_stringIcNS3_11char_traitsIcEENS3_9allocatorIcEEEENS8_ISA_EEEESE_EN3$_0D1Ev', symObjAddr: 0x26C, symBinAddr: 0xE231BC, symSize: 0xB8 }
  - { offset: 0x628308, size: 0x8, addend: 0x0, symName: '__ZNSt3__110__function6__funcIZN4onnx4defs8sequence5utils26SplitToSequenceOpGeneratorERKNS_6vectorINS_12basic_stringIcNS_11char_traitsIcEENS_9allocatorIcEEEENSA_ISC_EEEESG_E3$_0NSA_ISH_EEFvRNS2_8OpSchemaEEED1Ev', symObjAddr: 0x6CC, symBinAddr: 0xE23274, symSize: 0xC4 }
  - { offset: 0x6283BB, size: 0x8, addend: 0x0, symName: '__ZNSt3__110__function6__funcIZN4onnx4defs8sequence5utils26SplitToSequenceOpGeneratorERKNS_6vectorINS_12basic_stringIcNS_11char_traitsIcEENS_9allocatorIcEEEENSA_ISC_EEEESG_E3$_0NSA_ISH_EEFvRNS2_8OpSchemaEEED1Ev', symObjAddr: 0x6CC, symBinAddr: 0xE23274, symSize: 0xC4 }
  - { offset: 0x6289C1, size: 0x8, addend: 0x0, symName: '__ZNSt3__110__function6__funcIZN4onnx4defs8sequence5utils26SplitToSequenceOpGeneratorERKNS_6vectorINS_12basic_stringIcNS_11char_traitsIcEENS_9allocatorIcEEEENSA_ISC_EEEESG_E3$_0NSA_ISH_EEFvRNS2_8OpSchemaEEED0Ev', symObjAddr: 0x790, symBinAddr: 0xE23338, symSize: 0xC4 }
  - { offset: 0x629260, size: 0x8, addend: 0x0, symName: '__ZNKSt3__110__function6__funcIZN4onnx4defs8sequence5utils26SplitToSequenceOpGeneratorERKNS_6vectorINS_12basic_stringIcNS_11char_traitsIcEENS_9allocatorIcEEEENSA_ISC_EEEESG_E3$_0NSA_ISH_EEFvRNS2_8OpSchemaEEE7__cloneEv', symObjAddr: 0x854, symBinAddr: 0xE233FC, symSize: 0xBC }
  - { offset: 0x6297A5, size: 0x8, addend: 0x0, symName: '__ZNKSt3__110__function6__funcIZN4onnx4defs8sequence5utils26SplitToSequenceOpGeneratorERKNS_6vectorINS_12basic_stringIcNS_11char_traitsIcEENS_9allocatorIcEEEENSA_ISC_EEEESG_E3$_0NSA_ISH_EEFvRNS2_8OpSchemaEEE7__cloneEPNS0_6__baseISL_EE', symObjAddr: 0x910, symBinAddr: 0xE234B8, symSize: 0x94 }
  - { offset: 0x629A1A, size: 0x8, addend: 0x0, symName: '__ZNSt3__110__function6__funcIZN4onnx4defs8sequence5utils26SplitToSequenceOpGeneratorERKNS_6vectorINS_12basic_stringIcNS_11char_traitsIcEENS_9allocatorIcEEEENSA_ISC_EEEESG_E3$_0NSA_ISH_EEFvRNS2_8OpSchemaEEE7destroyEv', symObjAddr: 0x9A4, symBinAddr: 0xE2354C, symSize: 0xD0 }
  - { offset: 0x629FB5, size: 0x8, addend: 0x0, symName: '__ZNSt3__110__function6__funcIZN4onnx4defs8sequence5utils26SplitToSequenceOpGeneratorERKNS_6vectorINS_12basic_stringIcNS_11char_traitsIcEENS_9allocatorIcEEEENSA_ISC_EEEESG_E3$_0NSA_ISH_EEFvRNS2_8OpSchemaEEE18destroy_deallocateEv', symObjAddr: 0xA74, symBinAddr: 0xE2361C, symSize: 0xB8 }
  - { offset: 0x62A9A6, size: 0x8, addend: 0x0, symName: '__ZNSt3__110__function6__funcIZN4onnx4defs8sequence5utils26SplitToSequenceOpGeneratorERKNS_6vectorINS_12basic_stringIcNS_11char_traitsIcEENS_9allocatorIcEEEENSA_ISC_EEEESG_E3$_0NSA_ISH_EEFvRNS2_8OpSchemaEEEclESK_', symObjAddr: 0xB2C, symBinAddr: 0xE236D4, symSize: 0x4C8 }
  - { offset: 0x62C42A, size: 0x8, addend: 0x0, symName: '__ZNKSt3__110__function6__funcIZN4onnx4defs8sequence5utils26SplitToSequenceOpGeneratorERKNS_6vectorINS_12basic_stringIcNS_11char_traitsIcEENS_9allocatorIcEEEENSA_ISC_EEEESG_E3$_0NSA_ISH_EEFvRNS2_8OpSchemaEEE6targetERKSt9type_info', symObjAddr: 0xFF4, symBinAddr: 0xE23B9C, symSize: 0x64 }
  - { offset: 0x62C4F4, size: 0x8, addend: 0x0, symName: '__ZNKSt3__110__function6__funcIZN4onnx4defs8sequence5utils26SplitToSequenceOpGeneratorERKNS_6vectorINS_12basic_stringIcNS_11char_traitsIcEENS_9allocatorIcEEEENSA_ISC_EEEESG_E3$_0NSA_ISH_EEFvRNS2_8OpSchemaEEE11target_typeEv', symObjAddr: 0x1058, symBinAddr: 0xE23C00, symSize: 0xC }
  - { offset: 0x62C7F2, size: 0x8, addend: 0x0, symName: '__ZNSt3__110__function6__funcIZZN4onnx4defs8sequence5utils26SplitToSequenceOpGeneratorERKNS_6vectorINS_12basic_stringIcNS_11char_traitsIcEENS_9allocatorIcEEEENSA_ISC_EEEESG_ENK3$_0clERNS2_8OpSchemaEEUlRNS2_16InferenceContextEE_NSA_ISM_EEFvSL_EED1Ev', symObjAddr: 0x13C4, symBinAddr: 0xE23C0C, symSize: 0x4 }
  - { offset: 0x62CAA8, size: 0x8, addend: 0x0, symName: '__ZNSt3__110__function6__funcIZZN4onnx4defs8sequence5utils26SplitToSequenceOpGeneratorERKNS_6vectorINS_12basic_stringIcNS_11char_traitsIcEENS_9allocatorIcEEEENSA_ISC_EEEESG_ENK3$_0clERNS2_8OpSchemaEEUlRNS2_16InferenceContextEE_NSA_ISM_EEFvSL_EED1Ev', symObjAddr: 0x13C4, symBinAddr: 0xE23C0C, symSize: 0x4 }
  - { offset: 0x62CAD3, size: 0x8, addend: 0x0, symName: '__ZNSt3__110__function6__funcIZZN4onnx4defs8sequence5utils26SplitToSequenceOpGeneratorERKNS_6vectorINS_12basic_stringIcNS_11char_traitsIcEENS_9allocatorIcEEEENSA_ISC_EEEESG_ENK3$_0clERNS2_8OpSchemaEEUlRNS2_16InferenceContextEE_NSA_ISM_EEFvSL_EED0Ev', symObjAddr: 0x13C8, symBinAddr: 0xE23C10, symSize: 0x4 }
  - { offset: 0x62CB88, size: 0x8, addend: 0x0, symName: '__ZNKSt3__110__function6__funcIZZN4onnx4defs8sequence5utils26SplitToSequenceOpGeneratorERKNS_6vectorINS_12basic_stringIcNS_11char_traitsIcEENS_9allocatorIcEEEENSA_ISC_EEEESG_ENK3$_0clERNS2_8OpSchemaEEUlRNS2_16InferenceContextEE_NSA_ISM_EEFvSL_EE7__cloneEv', symObjAddr: 0x13CC, symBinAddr: 0xE23C14, symSize: 0x24 }
  - { offset: 0x62CCCB, size: 0x8, addend: 0x0, symName: '__ZNKSt3__110__function6__funcIZZN4onnx4defs8sequence5utils26SplitToSequenceOpGeneratorERKNS_6vectorINS_12basic_stringIcNS_11char_traitsIcEENS_9allocatorIcEEEENSA_ISC_EEEESG_ENK3$_0clERNS2_8OpSchemaEEUlRNS2_16InferenceContextEE_NSA_ISM_EEFvSL_EE7__cloneEPNS0_6__baseISO_EE', symObjAddr: 0x13F0, symBinAddr: 0xE23C38, symSize: 0x10 }
  - { offset: 0x62CCFF, size: 0x8, addend: 0x0, symName: '__ZNKSt3__110__function6__funcIZZN4onnx4defs8sequence5utils26SplitToSequenceOpGeneratorERKNS_6vectorINS_12basic_stringIcNS_11char_traitsIcEENS_9allocatorIcEEEENSA_ISC_EEEESG_ENK3$_0clERNS2_8OpSchemaEEUlRNS2_16InferenceContextEE_NSA_ISM_EEFvSL_EE7__cloneEPNS0_6__baseISO_EE', symObjAddr: 0x13F0, symBinAddr: 0xE23C38, symSize: 0x10 }
  - { offset: 0x62CD1B, size: 0x8, addend: 0x0, symName: '__ZNKSt3__110__function6__funcIZZN4onnx4defs8sequence5utils26SplitToSequenceOpGeneratorERKNS_6vectorINS_12basic_stringIcNS_11char_traitsIcEENS_9allocatorIcEEEENSA_ISC_EEEESG_ENK3$_0clERNS2_8OpSchemaEEUlRNS2_16InferenceContextEE_NSA_ISM_EEFvSL_EE7__cloneEPNS0_6__baseISO_EE', symObjAddr: 0x13F0, symBinAddr: 0xE23C38, symSize: 0x10 }
  - { offset: 0x62CD37, size: 0x8, addend: 0x0, symName: '__ZNSt3__110__function6__funcIZZN4onnx4defs8sequence5utils26SplitToSequenceOpGeneratorERKNS_6vectorINS_12basic_stringIcNS_11char_traitsIcEENS_9allocatorIcEEEENSA_ISC_EEEESG_ENK3$_0clERNS2_8OpSchemaEEUlRNS2_16InferenceContextEE_NSA_ISM_EEFvSL_EE7destroyEv', symObjAddr: 0x1400, symBinAddr: 0xE23C48, symSize: 0x4 }
  - { offset: 0x62CD86, size: 0x8, addend: 0x0, symName: '__ZNSt3__110__function6__funcIZZN4onnx4defs8sequence5utils26SplitToSequenceOpGeneratorERKNS_6vectorINS_12basic_stringIcNS_11char_traitsIcEENS_9allocatorIcEEEENSA_ISC_EEEESG_ENK3$_0clERNS2_8OpSchemaEEUlRNS2_16InferenceContextEE_NSA_ISM_EEFvSL_EE18destroy_deallocateEv', symObjAddr: 0x1404, symBinAddr: 0xE23C4C, symSize: 0x4 }
  - { offset: 0x62CDB9, size: 0x8, addend: 0x0, symName: '__ZNSt3__110__function6__funcIZZN4onnx4defs8sequence5utils26SplitToSequenceOpGeneratorERKNS_6vectorINS_12basic_stringIcNS_11char_traitsIcEENS_9allocatorIcEEEENSA_ISC_EEEESG_ENK3$_0clERNS2_8OpSchemaEEUlRNS2_16InferenceContextEE_NSA_ISM_EEFvSL_EE18destroy_deallocateEv', symObjAddr: 0x1404, symBinAddr: 0xE23C4C, symSize: 0x4 }
  - { offset: 0x62CDDB, size: 0x8, addend: 0x0, symName: '__ZNSt3__110__function6__funcIZZN4onnx4defs8sequence5utils26SplitToSequenceOpGeneratorERKNS_6vectorINS_12basic_stringIcNS_11char_traitsIcEENS_9allocatorIcEEEENSA_ISC_EEEESG_ENK3$_0clERNS2_8OpSchemaEEUlRNS2_16InferenceContextEE_NSA_ISM_EEFvSL_EE18destroy_deallocateEv', symObjAddr: 0x1404, symBinAddr: 0xE23C4C, symSize: 0x4 }
  - { offset: 0x62CE06, size: 0x8, addend: 0x0, symName: '__ZNSt3__110__function6__funcIZZN4onnx4defs8sequence5utils26SplitToSequenceOpGeneratorERKNS_6vectorINS_12basic_stringIcNS_11char_traitsIcEENS_9allocatorIcEEEENSA_ISC_EEEESG_ENK3$_0clERNS2_8OpSchemaEEUlRNS2_16InferenceContextEE_NSA_ISM_EEFvSL_EE18destroy_deallocateEv', symObjAddr: 0x1404, symBinAddr: 0xE23C4C, symSize: 0x4 }
  - { offset: 0x62CE2C, size: 0x8, addend: 0x0, symName: '__ZNSt3__110__function6__funcIZZN4onnx4defs8sequence5utils26SplitToSequenceOpGeneratorERKNS_6vectorINS_12basic_stringIcNS_11char_traitsIcEENS_9allocatorIcEEEENSA_ISC_EEEESG_ENK3$_0clERNS2_8OpSchemaEEUlRNS2_16InferenceContextEE_NSA_ISM_EEFvSL_EE18destroy_deallocateEv', symObjAddr: 0x1404, symBinAddr: 0xE23C4C, symSize: 0x4 }
  - { offset: 0x62DB5A, size: 0x8, addend: 0x0, symName: '__ZNSt3__110__function6__funcIZZN4onnx4defs8sequence5utils26SplitToSequenceOpGeneratorERKNS_6vectorINS_12basic_stringIcNS_11char_traitsIcEENS_9allocatorIcEEEENSA_ISC_EEEESG_ENK3$_0clERNS2_8OpSchemaEEUlRNS2_16InferenceContextEE_NSA_ISM_EEFvSL_EEclESL_', symObjAddr: 0x1408, symBinAddr: 0xE23C50, symSize: 0xCA0 }
  - { offset: 0x630909, size: 0x8, addend: 0x0, symName: __ZNSt3__16vectorIxNS_9allocatorIxEEE18__insert_with_sizeB8ne190102INS_11__wrap_iterIPKiEES8_EENS5_IPxEENS5_IPKxEET_T0_l, symObjAddr: 0x36DC, symBinAddr: 0xE24DA0, symSize: 0x40C }
  - { offset: 0x6311FB, size: 0x8, addend: 0x0, symName: '__ZNKSt3__110__function6__funcIZZN4onnx4defs8sequence5utils26SplitToSequenceOpGeneratorERKNS_6vectorINS_12basic_stringIcNS_11char_traitsIcEENS_9allocatorIcEEEENSA_ISC_EEEESG_ENK3$_0clERNS2_8OpSchemaEEUlRNS2_16InferenceContextEE_NSA_ISM_EEFvSL_EE6targetERKSt9type_info', symObjAddr: 0x20A8, symBinAddr: 0xE248F0, symSize: 0x64 }
  - { offset: 0x6312AE, size: 0x8, addend: 0x0, symName: '__ZNKSt3__110__function6__funcIZZN4onnx4defs8sequence5utils26SplitToSequenceOpGeneratorERKNS_6vectorINS_12basic_stringIcNS_11char_traitsIcEENS_9allocatorIcEEEENSA_ISC_EEEESG_ENK3$_0clERNS2_8OpSchemaEEUlRNS2_16InferenceContextEE_NSA_ISM_EEFvSL_EE11target_typeEv', symObjAddr: 0x210C, symBinAddr: 0xE24954, symSize: 0xC }
  - { offset: 0x632183, size: 0x8, addend: 0x0, symName: __ZNSt3__16vectorIxNS_9allocatorIxEEE18__insert_with_sizeB8ne190102INS_11__wrap_iterIPKiEES8_EENS5_IPxEENS5_IPKxEET_T0_l, symObjAddr: 0x36DC, symBinAddr: 0xE24DA0, symSize: 0x40C }
  - { offset: 0x63E7E5, size: 0x8, addend: 0x0, symName: __ZN4onnx40propagateElemTypeFromTensorInputToOutputERNS_16InferenceContextEmm, symObjAddr: 0x0, symBinAddr: 0xE251AC, symSize: 0x3B4 }
  - { offset: 0x63F116, size: 0x8, addend: 0x0, symName: __ZN4onnx10MakeStringIJA22_cA20_cEEENSt3__112basic_stringIcNS3_11char_traitsIcEENS3_9allocatorIcEEEEDpRKT_, symObjAddr: 0x3B4, symBinAddr: 0xE25560, symSize: 0x1DC }
  - { offset: 0x63F71B, size: 0x8, addend: 0x0, symName: __ZN4onnx10MakeStringIJA22_cA23_cmA9_cEEENSt3__112basic_stringIcNS4_11char_traitsIcEENS4_9allocatorIcEEEEDpRKT_, symObjAddr: 0x7E8, symBinAddr: 0xE2595C, symSize: 0x210 }
  - { offset: 0x63FE52, size: 0x8, addend: 0x0, symName: __ZN4onnx10MakeStringIJA22_cA7_cmA54_cNS_9TypeProto9ValueCaseEEEENSt3__112basic_stringIcNS6_11char_traitsIcEENS6_9allocatorIcEEEEDpRKT_, symObjAddr: 0x5C8, symBinAddr: 0xE2573C, symSize: 0x220 }
  - { offset: 0x6405EF, size: 0x8, addend: 0x0, symName: __ZN4onnx10MakeStringIJA22_cA8_cmA54_cNS_9TypeProto9ValueCaseEEEENSt3__112basic_stringIcNS6_11char_traitsIcEENS6_9allocatorIcEEEEDpRKT_, symObjAddr: 0x9F8, symBinAddr: 0xE25B6C, symSize: 0x220 }
  - { offset: 0x64706A, size: 0x8, addend: 0x0, symName: __ZN4onnx34propagateElemTypeFromInputToOutputERNS_16InferenceContextEmm, symObjAddr: 0xC18, symBinAddr: 0xE25D8C, symSize: 0x98C }
  - { offset: 0x64897A, size: 0x8, addend: 0x0, symName: __ZN4onnx10MakeStringIJA22_cA7_cmA43_cEEENSt3__112basic_stringIcNS4_11char_traitsIcEENS4_9allocatorIcEEEEDpRKT_, symObjAddr: 0x15A4, symBinAddr: 0xE26718, symSize: 0x210 }
  - { offset: 0x6490B1, size: 0x8, addend: 0x0, symName: __ZN4onnx10MakeStringIJA22_cA7_cmA27_cEEENSt3__112basic_stringIcNS4_11char_traitsIcEENS4_9allocatorIcEEEEDpRKT_, symObjAddr: 0x5C2C, symBinAddr: 0xE29EE8, symSize: 0x210 }
  - { offset: 0x649C5E, size: 0x8, addend: 0x0, symName: __ZN4onnx10MakeStringIJA22_cA32_cmA9_cEEENSt3__112basic_stringIcNS4_11char_traitsIcEENS4_9allocatorIcEEEEDpRKT_, symObjAddr: 0x5418, symBinAddr: 0xE29CD8, symSize: 0x210 }
  - { offset: 0x64A395, size: 0x8, addend: 0x0, symName: __ZN4onnx10MakeStringIJA22_cA25_cmA9_cEEENSt3__112basic_stringIcNS4_11char_traitsIcEENS4_9allocatorIcEEEEDpRKT_, symObjAddr: 0x5E3C, symBinAddr: 0xE2A0F8, symSize: 0x210 }
  - { offset: 0x64ABEF, size: 0x8, addend: 0x0, symName: __ZN4onnx16mergeInShapeInfoERKNS_16TensorShapeProtoERNS_16TypeProto_TensorE, symObjAddr: 0x17B4, symBinAddr: 0xE26928, symSize: 0x84 }
  - { offset: 0x64AD46, size: 0x8, addend: 0x0, symName: __ZN4onnxL16mergeInShapeInfoERKNS_16TensorShapeProtoERS0_, symObjAddr: 0x1838, symBinAddr: 0xE269AC, symSize: 0x158 }
  - { offset: 0x64B4E5, size: 0x8, addend: 0x0, symName: __ZN4onnx10MakeStringIJA23_cA71_ciA11_ciEEENSt3__112basic_stringIcNS4_11char_traitsIcEENS4_9allocatorIcEEEEDpRKT_, symObjAddr: 0x604C, symBinAddr: 0xE2A308, symSize: 0x220 }
  - { offset: 0x64BCA5, size: 0x8, addend: 0x0, symName: __ZN4onnx16mergeInShapeInfoERKNS_16TypeProto_TensorERS0_, symObjAddr: 0x1A14, symBinAddr: 0xE26B04, symSize: 0xA4 }
  - { offset: 0x64BEB1, size: 0x8, addend: 0x0, symName: __ZN4onnx14UnionShapeInfoERKNS_16TensorShapeProtoERNS_16TypeProto_TensorE, symObjAddr: 0x1B5C, symBinAddr: 0xE26BA8, symSize: 0x54 }
  - { offset: 0x64BEEC, size: 0x8, addend: 0x0, symName: __ZN4onnx14UnionShapeInfoERKNS_16TensorShapeProtoERNS_16TypeProto_TensorE, symObjAddr: 0x1B5C, symBinAddr: 0xE26BA8, symSize: 0x54 }
  - { offset: 0x64BF12, size: 0x8, addend: 0x0, symName: __ZN4onnx14UnionShapeInfoERKNS_16TensorShapeProtoERNS_16TypeProto_TensorE, symObjAddr: 0x1B5C, symBinAddr: 0xE26BA8, symSize: 0x54 }
  - { offset: 0x64BF2D, size: 0x8, addend: 0x0, symName: __ZN4onnx14UnionShapeInfoERKNS_16TensorShapeProtoERNS_16TypeProto_TensorE, symObjAddr: 0x1B5C, symBinAddr: 0xE26BA8, symSize: 0x54 }
  - { offset: 0x64C08C, size: 0x8, addend: 0x0, symName: __ZN4onnxL14UnionShapeInfoERKNS_16TensorShapeProtoERS0_, symObjAddr: 0x7330, symBinAddr: 0xE2AB20, symSize: 0x1A8 }
  - { offset: 0x64C794, size: 0x8, addend: 0x0, symName: __ZN4onnx13UnionTypeInfoERKNS_9TypeProtoERS0_, symObjAddr: 0x1C04, symBinAddr: 0xE26BFC, symSize: 0x8E4 }
  - { offset: 0x64E045, size: 0x8, addend: 0x0, symName: __ZN4onnx10MakeStringIJA22_cA36_cEEENSt3__112basic_stringIcNS3_11char_traitsIcEENS3_9allocatorIcEEEEDpRKT_, symObjAddr: 0x2FBC, symBinAddr: 0xE27FB4, symSize: 0x1DC }
  - { offset: 0x64E64A, size: 0x8, addend: 0x0, symName: __ZN4onnx10MakeStringIJA22_cA32_cA11_cNSt3__112basic_stringIcNS4_11char_traitsIcEENS4_9allocatorIcEEEES3_SA_EEESA_DpRKT_, symObjAddr: 0x272C, symBinAddr: 0xE27724, symSize: 0x26C }
  - { offset: 0x64EFCD, size: 0x8, addend: 0x0, symName: __ZN4onnx10MakeStringIJA22_cA17_cA11_cNS_9TypeProto9ValueCaseES3_S5_EEENSt3__112basic_stringIcNS6_11char_traitsIcEENS6_9allocatorIcEEEEDpRKT_, symObjAddr: 0x24E8, symBinAddr: 0xE274E0, symSize: 0x244 }
  - { offset: 0x64F852, size: 0x8, addend: 0x0, symName: __ZN4onnx10MakeStringIJA22_cA43_cEEENSt3__112basic_stringIcNS3_11char_traitsIcEENS3_9allocatorIcEEEEDpRKT_, symObjAddr: 0x2C04, symBinAddr: 0xE27BFC, symSize: 0x1DC }
  - { offset: 0x64FE57, size: 0x8, addend: 0x0, symName: __ZN4onnx10MakeStringIJA22_cA34_cEEENSt3__112basic_stringIcNS3_11char_traitsIcEENS3_9allocatorIcEEEEDpRKT_, symObjAddr: 0x2DE0, symBinAddr: 0xE27DD8, symSize: 0x1DC }
  - { offset: 0x65045C, size: 0x8, addend: 0x0, symName: __ZN4onnx10MakeStringIJA22_cA39_cA11_cNSt3__112basic_stringIcNS4_11char_traitsIcEENS4_9allocatorIcEEEES3_SA_EEESA_DpRKT_, symObjAddr: 0x2998, symBinAddr: 0xE27990, symSize: 0x26C }
  - { offset: 0x65158F, size: 0x8, addend: 0x0, symName: __ZN4onnx31propagateElemTypeWithValidationEPKNS_9TypeProtoEPS0_, symObjAddr: 0x3198, symBinAddr: 0xE28190, symSize: 0x904 }
  - { offset: 0x652D64, size: 0x8, addend: 0x0, symName: __ZN4onnx10MakeStringIJA22_cA23_ciA41_ciEEENSt3__112basic_stringIcNS4_11char_traitsIcEENS4_9allocatorIcEEEEDpRKT_, symObjAddr: 0x6A74, symBinAddr: 0xE2A714, symSize: 0x220 }
  - { offset: 0x65389F, size: 0x8, addend: 0x0, symName: __ZN4onnx10MakeStringIJA22_cA79_cNS_9TypeProto9ValueCaseEEEENSt3__112basic_stringIcNS5_11char_traitsIcEENS5_9allocatorIcEEEEDpRKT_, symObjAddr: 0x3A9C, symBinAddr: 0xE28A94, symSize: 0x1EC }
  - { offset: 0x653EFC, size: 0x8, addend: 0x0, symName: __ZN4onnx10MakeStringIJA22_cA62_cNS_9TypeProto9ValueCaseEEEENSt3__112basic_stringIcNS5_11char_traitsIcEENS5_9allocatorIcEEEEDpRKT_, symObjAddr: 0x6888, symBinAddr: 0xE2A528, symSize: 0x1EC }
  - { offset: 0x654559, size: 0x8, addend: 0x0, symName: __ZN4onnx10MakeStringIJA22_cA46_cNS_9TypeProto9ValueCaseEEEENSt3__112basic_stringIcNS5_11char_traitsIcEENS5_9allocatorIcEEEEDpRKT_, symObjAddr: 0x6C94, symBinAddr: 0xE2A934, symSize: 0x1EC }
  - { offset: 0x654C77, size: 0x8, addend: 0x0, symName: __ZN4onnx13getShapeInputERKNS_16InferenceContextEmRb, symObjAddr: 0x3C88, symBinAddr: 0xE28C80, symSize: 0xC }
  - { offset: 0x654CF4, size: 0x8, addend: 0x0, symName: __ZN4onnx13getShapeInputERKNS_16InferenceContextEmbRb, symObjAddr: 0x3C94, symBinAddr: 0xE28C8C, symSize: 0x4B8 }
  - { offset: 0x655E80, size: 0x8, addend: 0x0, symName: __ZN4onnx10MakeStringIJA23_cA51_cEEENSt3__112basic_stringIcNS3_11char_traitsIcEENS3_9allocatorIcEEEEDpRKT_, symObjAddr: 0x45EC, symBinAddr: 0xE29144, symSize: 0x1DC }
  - { offset: 0x65745D, size: 0x8, addend: 0x0, symName: __ZN4onnx34getAttributeProtoElemTypeAndLengthEPKNS_14AttributeProtoE, symObjAddr: 0x47C8, symBinAddr: 0xE29320, symSize: 0x198 }
  - { offset: 0x657A66, size: 0x8, addend: 0x0, symName: __ZN4onnx10MakeStringIJA22_cA11_cNSt3__112basic_stringIcNS3_11char_traitsIcEENS3_9allocatorIcEEEEA37_ciA2_cEEES9_DpRKT_, symObjAddr: 0x4960, symBinAddr: 0xE294B8, symSize: 0x258 }
  - { offset: 0x6585D8, size: 0x8, addend: 0x0, symName: __ZN4onnx32getAttributeElementTypeAndLengthERKNS_16InferenceContextERKSt16initializer_listINSt3__112basic_stringIcNS4_11char_traitsIcEENS4_9allocatorIcEEEEE, symObjAddr: 0x4BB8, symBinAddr: 0xE29710, symSize: 0x1B8 }
  - { offset: 0x6589F4, size: 0x8, addend: 0x0, symName: __ZN4onnx9stringifyISt16initializer_listINSt3__112basic_stringIcNS2_11char_traitsIcEENS2_9allocatorIcEEEEEEES8_RKT_, symObjAddr: 0x4F70, symBinAddr: 0xE29AC8, symSize: 0x210 }
  - { offset: 0x658FD9, size: 0x8, addend: 0x0, symName: __ZN4onnx10MakeStringIJA23_cA47_cNSt3__112basic_stringIcNS3_11char_traitsIcEENS3_9allocatorIcEEEEEEES9_DpRKT_, symObjAddr: 0x4D70, symBinAddr: 0xE298C8, symSize: 0x200 }
  - { offset: 0x668A33, size: 0x8, addend: 0x0, symName: __ZN4onnx13Transpose_docE, symObjAddr: 0x3FC78, symBinAddr: 0x16A0F20, symSize: 0x0 }
  - { offset: 0x6741FA, size: 0x8, addend: 0x0, symName: __ZN4onnx11GetOpSchemaINS_15Cast_Onnx_ver25EEENS_8OpSchemaEv, symObjAddr: 0x0, symBinAddr: 0xE2ACC8, symSize: 0x670 }
  - { offset: 0x676542, size: 0x8, addend: 0x0, symName: __ZN4onnx11GetOpSchemaINS_19CastLike_Onnx_ver25EEENS_8OpSchemaEv, symObjAddr: 0x868, symBinAddr: 0xE2B338, symSize: 0x698 }
  - { offset: 0x678898, size: 0x8, addend: 0x0, symName: __ZN4onnx11GetOpSchemaINS_18BitCast_Onnx_ver26EEENS_8OpSchemaEv, symObjAddr: 0xF00, symBinAddr: 0xE2B9D0, symSize: 0x53C }
  - { offset: 0x67A65C, size: 0x8, addend: 0x0, symName: __ZN4onnx11GetOpSchemaINS_18Reshape_Onnx_ver25EEENS_8OpSchemaEv, symObjAddr: 0x143C, symBinAddr: 0xE2BF0C, symSize: 0x418 }
  - { offset: 0x67BA20, size: 0x8, addend: 0x0, symName: __ZN4onnx11GetOpSchemaINS_16Shape_Onnx_ver25EEENS_8OpSchemaEv, symObjAddr: 0x1854, symBinAddr: 0xE2C324, symSize: 0x4A0 }
  - { offset: 0x67CFF5, size: 0x8, addend: 0x0, symName: __ZN4onnx11GetOpSchemaINS_15Size_Onnx_ver25EEENS_8OpSchemaEv, symObjAddr: 0x1CF4, symBinAddr: 0xE2C7C4, symSize: 0x450 }
  - { offset: 0x67E5C7, size: 0x8, addend: 0x0, symName: __ZN4onnx11GetOpSchemaINS_17Concat_Onnx_ver13EEENS_8OpSchemaEv, symObjAddr: 0x2144, symBinAddr: 0xE2CC14, symSize: 0x43C }
  - { offset: 0x67FB7F, size: 0x8, addend: 0x0, symName: __ZN4onnx11GetOpSchemaINS_16Split_Onnx_ver18EEENS_8OpSchemaEv, symObjAddr: 0x2580, symBinAddr: 0xE2D050, symSize: 0x428 }
  - { offset: 0x680F36, size: 0x8, addend: 0x0, symName: __ZN4onnx11GetOpSchemaINS_16Slice_Onnx_ver13EEENS_8OpSchemaEv, symObjAddr: 0x29A8, symBinAddr: 0xE2D478, symSize: 0x528 }
  - { offset: 0x6824FE, size: 0x8, addend: 0x0, symName: __ZN4onnx11GetOpSchemaINS_20Transpose_Onnx_ver25EEENS_8OpSchemaEv, symObjAddr: 0x2ED0, symBinAddr: 0xE2D9A0, symSize: 0x3C8 }
  - { offset: 0x6838AB, size: 0x8, addend: 0x0, symName: __ZN4onnx11GetOpSchemaINS_18Scatter_Onnx_ver11EEENS_8OpSchemaEv, symObjAddr: 0x3298, symBinAddr: 0xE2DD68, symSize: 0x480 }
  - { offset: 0x684C58, size: 0x8, addend: 0x0, symName: __ZN4onnx11GetOpSchemaINS_20ScatterND_Onnx_ver18EEENS_8OpSchemaEv, symObjAddr: 0x3718, symBinAddr: 0xE2E1E8, symSize: 0x4A0 }
  - { offset: 0x68632B, size: 0x8, addend: 0x0, symName: __ZN4onnx11GetOpSchemaINS_26ScatterElements_Onnx_ver18EEENS_8OpSchemaEv, symObjAddr: 0x3BB8, symBinAddr: 0xE2E688, symSize: 0x504 }
  - { offset: 0x6879E6, size: 0x8, addend: 0x0, symName: __ZN4onnx11GetOpSchemaINS_17Gather_Onnx_ver13EEENS_8OpSchemaEv, symObjAddr: 0x40BC, symBinAddr: 0xE2EB8C, symSize: 0x4D0 }
  - { offset: 0x688FCD, size: 0x8, addend: 0x0, symName: __ZN4onnx11GetOpSchemaINS_25GatherElements_Onnx_ver13EEENS_8OpSchemaEv, symObjAddr: 0x458C, symBinAddr: 0xE2F05C, symSize: 0x454 }
  - { offset: 0x68A3A1, size: 0x8, addend: 0x0, symName: __ZN4onnx11GetOpSchemaINS_18Squeeze_Onnx_ver25EEENS_8OpSchemaEv, symObjAddr: 0x49E0, symBinAddr: 0xE2F4B0, symSize: 0x45C }
  - { offset: 0x68B942, size: 0x8, addend: 0x0, symName: __ZN4onnx11GetOpSchemaINS_20Unsqueeze_Onnx_ver25EEENS_8OpSchemaEv, symObjAddr: 0x4E3C, symBinAddr: 0xE2F90C, symSize: 0x45C }
  - { offset: 0x68CEE3, size: 0x8, addend: 0x0, symName: __ZN4onnx11GetOpSchemaINS_23SpaceToDepth_Onnx_ver13EEENS_8OpSchemaEv, symObjAddr: 0x5298, symBinAddr: 0xE2FD68, symSize: 0x3C8 }
  - { offset: 0x68E288, size: 0x8, addend: 0x0, symName: __ZN4onnx11GetOpSchemaINS_23DepthToSpace_Onnx_ver13EEENS_8OpSchemaEv, symObjAddr: 0x5660, symBinAddr: 0xE30130, symSize: 0x44C }
  - { offset: 0x68F93E, size: 0x8, addend: 0x0, symName: __ZN4onnx11GetOpSchemaINS_15Tile_Onnx_ver13EEENS_8OpSchemaEv, symObjAddr: 0x5AAC, symBinAddr: 0xE3057C, symSize: 0x414 }
  - { offset: 0x690CFD, size: 0x8, addend: 0x0, symName: __ZN4onnx11GetOpSchemaINS_19Upsample_Onnx_ver10EEENS_8OpSchemaEv, symObjAddr: 0x5EC0, symBinAddr: 0xE30990, symSize: 0x46C }
  - { offset: 0x6923C8, size: 0x8, addend: 0x0, symName: __ZN4onnx11GetOpSchemaINS_17Resize_Onnx_ver19EEENS_8OpSchemaEv, symObjAddr: 0x632C, symBinAddr: 0xE30DFC, symSize: 0x770 }
  - { offset: 0x694448, size: 0x8, addend: 0x0, symName: __ZN4onnx11GetOpSchemaINS_21GridSample_Onnx_ver22EEENS_8OpSchemaEv, symObjAddr: 0x6A9C, symBinAddr: 0xE3156C, symSize: 0x66C }
  - { offset: 0x69685D, size: 0x8, addend: 0x0, symName: __ZN4onnx11GetOpSchemaINS_21AffineGrid_Onnx_ver20EEENS_8OpSchemaEv, symObjAddr: 0x7108, symBinAddr: 0xE31BD8, symSize: 0x440 }
  - { offset: 0x697C17, size: 0x8, addend: 0x0, symName: __ZN4onnx11GetOpSchemaINS_19Compress_Onnx_ver11EEENS_8OpSchemaEv, symObjAddr: 0x7B5C, symBinAddr: 0xE32528, symSize: 0x430 }
  - { offset: 0x698FD6, size: 0x8, addend: 0x0, symName: __ZN4onnx11GetOpSchemaINS_17OneHot_Onnx_ver11EEENS_8OpSchemaEv, symObjAddr: 0x7F8C, symBinAddr: 0xE32958, symSize: 0x708 }
  - { offset: 0x69B7DB, size: 0x8, addend: 0x0, symName: __ZN4onnx11GetOpSchemaINS_16IsNaN_Onnx_ver20EEENS_8OpSchemaEv, symObjAddr: 0x8694, symBinAddr: 0xE33060, symSize: 0x3D8 }
  - { offset: 0x69CBAF, size: 0x8, addend: 0x0, symName: __ZN4onnx11GetOpSchemaINS_16IsInf_Onnx_ver20EEENS_8OpSchemaEv, symObjAddr: 0x8A6C, symBinAddr: 0xE33438, symSize: 0x448 }
  - { offset: 0x69DFAD, size: 0x8, addend: 0x0, symName: __ZN4onnx11GetOpSchemaINS_16Where_Onnx_ver16EEENS_8OpSchemaEv, symObjAddr: 0x8EB4, symBinAddr: 0xE33880, symSize: 0x5FC }
  - { offset: 0x69FF54, size: 0x8, addend: 0x0, symName: __ZN4onnx11GetOpSchemaINS_18NonZero_Onnx_ver13EEENS_8OpSchemaEv, symObjAddr: 0x94B0, symBinAddr: 0xE33E7C, symSize: 0x3A8 }
